ARM GAS  /var/folders/l4/6w9kflz11csb_6qsyz46nv3c0000gp/T//cccBIjak.s 			page 1


   1              		.cpu cortex-m7
   2              		.arch armv7e-m
   3              		.fpu fpv5-d16
   4              		.eabi_attribute 28, 1
   5              		.eabi_attribute 20, 1
   6              		.eabi_attribute 21, 1
   7              		.eabi_attribute 23, 3
   8              		.eabi_attribute 24, 1
   9              		.eabi_attribute 25, 1
  10              		.eabi_attribute 26, 1
  11              		.eabi_attribute 30, 1
  12              		.eabi_attribute 34, 1
  13              		.eabi_attribute 18, 4
  14              		.file	"main.c"
  15              		.text
  16              	.Ltext0:
  17              		.cfi_sections	.debug_frame
  18              		.file 1 "Core/Src/main.c"
  19              		.section	.text.MX_GPIO_Init,"ax",%progbits
  20              		.align	1
  21              		.syntax unified
  22              		.thumb
  23              		.thumb_func
  25              	MX_GPIO_Init:
  26              	.LFB147:
   1:Core/Src/main.c **** /* USER CODE BEGIN Header */
   2:Core/Src/main.c **** /**
   3:Core/Src/main.c ****   ******************************************************************************
   4:Core/Src/main.c ****   * @file           : main.c
   5:Core/Src/main.c ****   * @brief          : Main program body
   6:Core/Src/main.c ****   ******************************************************************************
   7:Core/Src/main.c ****   * @attention
   8:Core/Src/main.c ****   *
   9:Core/Src/main.c ****   * Copyright (c) 2026 STMicroelectronics.
  10:Core/Src/main.c ****   * All rights reserved.
  11:Core/Src/main.c ****   *
  12:Core/Src/main.c ****   * This software is licensed under terms that can be found in the LICENSE file
  13:Core/Src/main.c ****   * in the root directory of this software component.
  14:Core/Src/main.c ****   * If no LICENSE file comes with this software, it is provided AS-IS.
  15:Core/Src/main.c ****   *
  16:Core/Src/main.c ****   ******************************************************************************
  17:Core/Src/main.c ****   */
  18:Core/Src/main.c **** /* USER CODE END Header */
  19:Core/Src/main.c **** /* Includes ------------------------------------------------------------------*/
  20:Core/Src/main.c **** #include "main.h"
  21:Core/Src/main.c **** 
  22:Core/Src/main.c **** /* Private includes ----------------------------------------------------------*/
  23:Core/Src/main.c **** /* USER CODE BEGIN Includes */
  24:Core/Src/main.c **** 
  25:Core/Src/main.c **** /* USER CODE END Includes */
  26:Core/Src/main.c **** 
  27:Core/Src/main.c **** /* Private typedef -----------------------------------------------------------*/
  28:Core/Src/main.c **** /* USER CODE BEGIN PTD */
  29:Core/Src/main.c **** 
  30:Core/Src/main.c **** /* USER CODE END PTD */
  31:Core/Src/main.c **** 
  32:Core/Src/main.c **** /* Private define ------------------------------------------------------------*/
ARM GAS  /var/folders/l4/6w9kflz11csb_6qsyz46nv3c0000gp/T//cccBIjak.s 			page 2


  33:Core/Src/main.c **** /* USER CODE BEGIN PD */
  34:Core/Src/main.c **** #define LCD_ACTIVE_WIDTH  1280
  35:Core/Src/main.c **** #define  LCD_ACTIVE_HEIGHT 2400
  36:Core/Src/main.c **** 
  37:Core/Src/main.c **** 
  38:Core/Src/main.c **** #define H_SYNC_WIDTH   1000
  39:Core/Src/main.c **** #define H_BACK_PORCH   1000
  40:Core/Src/main.c **** #define H_FRONT_PORCH  720   // 4000 - (1000+1000+1280) = 720
  41:Core/Src/main.c **** #define V_SYNC_WIDTH   30
  42:Core/Src/main.c **** #define V_BACK_PORCH   30
  43:Core/Src/main.c **** #define V_FRONT_PORCH  40    // 2500 - (30+30+2400) = 40
  44:Core/Src/main.c **** 
  45:Core/Src/main.c **** #define H_TOTAL     (H_SYNC_WIDTH + H_FRONT_PORCH + LCD_ACTIVE_WIDTH + H_BACK_PORCH)
  46:Core/Src/main.c **** #define V_TOTAL     (V_SYNC_WIDTH + V_FRONT_PORCH + LCD_ACTIVE_HEIGHT + V_BACK_PORCH)
  47:Core/Src/main.c **** #define TOTAL_STRIPS  12
  48:Core/Src/main.c **** 
  49:Core/Src/main.c **** #define BYTES_PER_PIXEL 1
  50:Core/Src/main.c **** #define STRIP_HEIGHT 200
  51:Core/Src/main.c **** #define STRIP_SIZE_BYTES (LCD_ACTIVE_WIDTH * STRIP_HEIGHT)
  52:Core/Src/main.c **** // #define TOTAL_STRIPS (LCD_ACTIVE_HEIGHT / STRIP_HEIGHT)
  53:Core/Src/main.c **** #define FRAME_RATE 1 /*Hz*/
  54:Core/Src/main.c **** #define ROW_TIME_US (1000000 / (FRAME_RATE * LCD_ACTIVE_HEIGHT))
  55:Core/Src/main.c **** 
  56:Core/Src/main.c **** 
  57:Core/Src/main.c **** 
  58:Core/Src/main.c **** 
  59:Core/Src/main.c **** /* USER CODE END PD */
  60:Core/Src/main.c **** 
  61:Core/Src/main.c **** /* Private macro -------------------------------------------------------------*/
  62:Core/Src/main.c **** /* USER CODE BEGIN PM */
  63:Core/Src/main.c **** 
  64:Core/Src/main.c **** /* USER CODE END PM */
  65:Core/Src/main.c **** 
  66:Core/Src/main.c **** /* Private variables ---------------------------------------------------------*/
  67:Core/Src/main.c **** 
  68:Core/Src/main.c **** LTDC_HandleTypeDef hltdc;
  69:Core/Src/main.c **** 
  70:Core/Src/main.c **** /* USER CODE BEGIN PV */
  71:Core/Src/main.c **** uint32_t clut[256];
  72:Core/Src/main.c **** static uint8_t buffer0[STRIP_SIZE_BYTES] __attribute__((section(".video_buffers"), aligned(32)));
  73:Core/Src/main.c **** static uint8_t buffer1[STRIP_SIZE_BYTES] __attribute__((section(".video_buffers"), aligned(32)));
  74:Core/Src/main.c **** volatile uint32_t current_strip = 0 ;
  75:Core/Src/main.c **** volatile uint8_t need_fill = 0;
  76:Core/Src/main.c **** volatile uint8_t active_buffer = 0;
  77:Core/Src/main.c **** /* USER CODE END PV */
  78:Core/Src/main.c **** 
  79:Core/Src/main.c **** /* Private function prototypes -----------------------------------------------*/
  80:Core/Src/main.c **** void SystemClock_Config(void);
  81:Core/Src/main.c **** static void MPU_Config(void);
  82:Core/Src/main.c **** static void MX_GPIO_Init(void);
  83:Core/Src/main.c **** static void MX_LTDC_Init(void);
  84:Core/Src/main.c **** /* USER CODE BEGIN PFP */
  85:Core/Src/main.c **** void FillStrip(uint8_t* buffer);
  86:Core/Src/main.c **** void GenerateTestPattern(uint8_t *buffer, uint32_t strip_idx);
  87:Core/Src/main.c **** /* USER CODE END PFP */
  88:Core/Src/main.c **** 
  89:Core/Src/main.c **** /* Private user code ---------------------------------------------------------*/
ARM GAS  /var/folders/l4/6w9kflz11csb_6qsyz46nv3c0000gp/T//cccBIjak.s 			page 3


  90:Core/Src/main.c **** /* USER CODE BEGIN 0 */
  91:Core/Src/main.c **** 
  92:Core/Src/main.c **** /* USER CODE END 0 */
  93:Core/Src/main.c **** 
  94:Core/Src/main.c **** /**
  95:Core/Src/main.c ****   * @brief  The application entry point.
  96:Core/Src/main.c ****   * @retval int
  97:Core/Src/main.c ****   */
  98:Core/Src/main.c **** int main(void)
  99:Core/Src/main.c **** {
 100:Core/Src/main.c **** 
 101:Core/Src/main.c ****   /* USER CODE BEGIN 1 */
 102:Core/Src/main.c **** // –Ю—В–Ї–ї—О—З–Є—В—М MPU, –µ—Б–ї–Є –Њ–љ –±—Л–ї –≤–Ї–ї—О—З—С–љ –і–Њ main
 103:Core/Src/main.c **** HAL_MPU_Disable();
 104:Core/Src/main.c **** __DSB();
 105:Core/Src/main.c **** __ISB();
 106:Core/Src/main.c ****   /* USER CODE END 1 */
 107:Core/Src/main.c **** 
 108:Core/Src/main.c ****   /* MPU Configuration--------------------------------------------------------*/
 109:Core/Src/main.c ****   // MPU_Config();
 110:Core/Src/main.c **** 
 111:Core/Src/main.c ****   /* MCU Configuration--------------------------------------------------------*/
 112:Core/Src/main.c **** 
 113:Core/Src/main.c ****   /* Reset of all peripherals, Initializes the Flash interface and the Systick. */
 114:Core/Src/main.c ****   HAL_Init();
 115:Core/Src/main.c **** 
 116:Core/Src/main.c ****   /* USER CODE BEGIN Init */
 117:Core/Src/main.c **** 
 118:Core/Src/main.c ****   /* USER CODE END Init */
 119:Core/Src/main.c **** 
 120:Core/Src/main.c ****   /* Configure the system clock */
 121:Core/Src/main.c ****   SystemClock_Config();
 122:Core/Src/main.c **** 
 123:Core/Src/main.c ****   /* USER CODE BEGIN SysInit */
 124:Core/Src/main.c **** 
 125:Core/Src/main.c ****   /* USER CODE END SysInit */
 126:Core/Src/main.c **** 
 127:Core/Src/main.c ****   /* Initialize all configured peripherals */
 128:Core/Src/main.c ****   MX_GPIO_Init();
 129:Core/Src/main.c ****   MX_LTDC_Init();
 130:Core/Src/main.c ****   /* USER CODE BEGIN 2 */
 131:Core/Src/main.c ****   // 1. –Ч–∞–њ–Њ–ї–љ—П–µ–Љ –њ–µ—А–≤—Л–є –±—Г—Д–µ—А –і–∞–љ–љ—Л–Љ–Є –і–ї—П –њ–Њ–ї–Њ—Б—Л 0
 132:Core/Src/main.c ****     FillStrip(buffer0);    // —Д—Г–љ–Ї—Ж–Є—П FillStrip –Ј–∞–њ–Њ–ї–љ—П–µ—В –±—Г—Д–µ—А 256 –Ъ–С
 133:Core/Src/main.c **** 
 134:Core/Src/main.c ****     // 2. –£–Ї–∞–Ј—Л–≤–∞–µ–Љ LTDC –∞–і—А–µ—Б –њ–µ—А–≤–Њ–≥–Њ –±—Г—Д–µ—А–∞
 135:Core/Src/main.c ****     HAL_LTDC_SetAddress(&hltdc, (uint32_t)buffer0, LTDC_LAYER_1);
 136:Core/Src/main.c ****     active_buffer = 0;
 137:Core/Src/main.c **** 
 138:Core/Src/main.c ****     // 3. –Я—А–Њ–≥—А–∞–Љ–Љ–Є—А—Г–µ–Љ –њ—А–µ—А—Л–≤–∞–љ–Є–µ –љ–∞ –Ї–Њ–љ–µ—Ж –њ–µ—А–≤–Њ–є –њ–Њ–ї–Њ—Б—Л
 139:Core/Src/main.c ****     HAL_LTDC_ProgramLineEvent(&hltdc, STRIP_HEIGHT);
 140:Core/Src/main.c **** 
 141:Core/Src/main.c ****     // 4. –Т–Ї–ї—О—З–∞–µ–Љ –њ—А–µ—А—Л–≤–∞–љ–Є–µ –≤ NVIC
 142:Core/Src/main.c ****     HAL_NVIC_EnableIRQ(LTDC_IRQn);
 143:Core/Src/main.c **** 
 144:Core/Src/main.c ****     // 5. –Ч–∞–њ—Г—Б–Ї–∞–µ–Љ LTDC
 145:Core/Src/main.c ****     HAL_LTDC_Reload(&hltdc, LTDC_RELOAD_IMMEDIATE);
 146:Core/Src/main.c ****     __HAL_LTDC_ENABLE(&hltdc);
ARM GAS  /var/folders/l4/6w9kflz11csb_6qsyz46nv3c0000gp/T//cccBIjak.s 			page 4


 147:Core/Src/main.c **** 
 148:Core/Src/main.c ****   /* USER CODE END 2 */
 149:Core/Src/main.c **** 
 150:Core/Src/main.c ****   /* Infinite loop */
 151:Core/Src/main.c ****   /* USER CODE BEGIN WHILE */
 152:Core/Src/main.c ****   uint8_t temp = buffer0[50];
 153:Core/Src/main.c ****   while (1)
 154:Core/Src/main.c ****   {
 155:Core/Src/main.c ****     /* USER CODE END WHILE */
 156:Core/Src/main.c ****     __WFI();
 157:Core/Src/main.c ****     /* USER CODE BEGIN 3 */
 158:Core/Src/main.c ****   }
 159:Core/Src/main.c ****   /* USER CODE END 3 */
 160:Core/Src/main.c **** }
 161:Core/Src/main.c **** 
 162:Core/Src/main.c **** /**
 163:Core/Src/main.c ****   * @brief System Clock Configuration
 164:Core/Src/main.c ****   * @retval None
 165:Core/Src/main.c ****   */
 166:Core/Src/main.c **** void SystemClock_Config(void)
 167:Core/Src/main.c **** {
 168:Core/Src/main.c ****   RCC_OscInitTypeDef RCC_OscInitStruct = {0};
 169:Core/Src/main.c ****   RCC_ClkInitTypeDef RCC_ClkInitStruct = {0};
 170:Core/Src/main.c **** 
 171:Core/Src/main.c ****   /** Supply configuration update enable
 172:Core/Src/main.c ****   */
 173:Core/Src/main.c ****   HAL_PWREx_ConfigSupply(PWR_LDO_SUPPLY);
 174:Core/Src/main.c **** 
 175:Core/Src/main.c ****   /** Configure the main internal regulator output voltage
 176:Core/Src/main.c ****   */
 177:Core/Src/main.c ****   __HAL_PWR_VOLTAGESCALING_CONFIG(PWR_REGULATOR_VOLTAGE_SCALE1);
 178:Core/Src/main.c **** 
 179:Core/Src/main.c ****   while(!__HAL_PWR_GET_FLAG(PWR_FLAG_VOSRDY)) {}
 180:Core/Src/main.c **** 
 181:Core/Src/main.c ****   /** Initializes the RCC Oscillators according to the specified parameters
 182:Core/Src/main.c ****   * in the RCC_OscInitTypeDef structure.
 183:Core/Src/main.c ****   */
 184:Core/Src/main.c ****   RCC_OscInitStruct.OscillatorType = RCC_OSCILLATORTYPE_HSI;
 185:Core/Src/main.c ****   RCC_OscInitStruct.HSIState = RCC_HSI_DIV1;
 186:Core/Src/main.c ****   RCC_OscInitStruct.HSICalibrationValue = RCC_HSICALIBRATION_DEFAULT;
 187:Core/Src/main.c ****   RCC_OscInitStruct.PLL.PLLState = RCC_PLL_ON;
 188:Core/Src/main.c ****   RCC_OscInitStruct.PLL.PLLSource = RCC_PLLSOURCE_HSI;
 189:Core/Src/main.c ****   RCC_OscInitStruct.PLL.PLLM = 32;
 190:Core/Src/main.c ****   RCC_OscInitStruct.PLL.PLLN = 400;
 191:Core/Src/main.c ****   RCC_OscInitStruct.PLL.PLLP = 2;
 192:Core/Src/main.c ****   RCC_OscInitStruct.PLL.PLLQ = 2;
 193:Core/Src/main.c ****   RCC_OscInitStruct.PLL.PLLR = 2;
 194:Core/Src/main.c ****   RCC_OscInitStruct.PLL.PLLRGE = RCC_PLL1VCIRANGE_1;
 195:Core/Src/main.c ****   RCC_OscInitStruct.PLL.PLLVCOSEL = RCC_PLL1VCOWIDE;
 196:Core/Src/main.c ****   RCC_OscInitStruct.PLL.PLLFRACN = 0;
 197:Core/Src/main.c ****   if (HAL_RCC_OscConfig(&RCC_OscInitStruct) != HAL_OK)
 198:Core/Src/main.c ****   {
 199:Core/Src/main.c ****     Error_Handler();
 200:Core/Src/main.c ****   }
 201:Core/Src/main.c **** 
 202:Core/Src/main.c ****   /** Initializes the CPU, AHB and APB buses clocks
 203:Core/Src/main.c ****   */
ARM GAS  /var/folders/l4/6w9kflz11csb_6qsyz46nv3c0000gp/T//cccBIjak.s 			page 5


 204:Core/Src/main.c ****   RCC_ClkInitStruct.ClockType = RCC_CLOCKTYPE_HCLK|RCC_CLOCKTYPE_SYSCLK
 205:Core/Src/main.c ****                               |RCC_CLOCKTYPE_PCLK1|RCC_CLOCKTYPE_PCLK2
 206:Core/Src/main.c ****                               |RCC_CLOCKTYPE_D3PCLK1|RCC_CLOCKTYPE_D1PCLK1;
 207:Core/Src/main.c ****   RCC_ClkInitStruct.SYSCLKSource = RCC_SYSCLKSOURCE_PLLCLK;
 208:Core/Src/main.c ****   RCC_ClkInitStruct.SYSCLKDivider = RCC_SYSCLK_DIV1;
 209:Core/Src/main.c ****   RCC_ClkInitStruct.AHBCLKDivider = RCC_HCLK_DIV4;
 210:Core/Src/main.c ****   RCC_ClkInitStruct.APB3CLKDivider = RCC_APB3_DIV2;
 211:Core/Src/main.c ****   RCC_ClkInitStruct.APB1CLKDivider = RCC_APB1_DIV2;
 212:Core/Src/main.c ****   RCC_ClkInitStruct.APB2CLKDivider = RCC_APB2_DIV2;
 213:Core/Src/main.c ****   RCC_ClkInitStruct.APB4CLKDivider = RCC_APB4_DIV2;
 214:Core/Src/main.c **** 
 215:Core/Src/main.c ****   if (HAL_RCC_ClockConfig(&RCC_ClkInitStruct, FLASH_LATENCY_1) != HAL_OK)
 216:Core/Src/main.c ****   {
 217:Core/Src/main.c ****     Error_Handler();
 218:Core/Src/main.c ****   }
 219:Core/Src/main.c **** }
 220:Core/Src/main.c **** 
 221:Core/Src/main.c **** /**
 222:Core/Src/main.c ****   * @brief LTDC Initialization Function
 223:Core/Src/main.c ****   * @param None
 224:Core/Src/main.c ****   * @retval None
 225:Core/Src/main.c ****   */
 226:Core/Src/main.c **** static void MX_LTDC_Init(void)
 227:Core/Src/main.c **** {
 228:Core/Src/main.c **** 
 229:Core/Src/main.c ****   /* USER CODE BEGIN LTDC_Init 0 */
 230:Core/Src/main.c **** 
 231:Core/Src/main.c ****   /* USER CODE END LTDC_Init 0 */
 232:Core/Src/main.c **** 
 233:Core/Src/main.c ****   LTDC_LayerCfgTypeDef pLayerCfg = {0};
 234:Core/Src/main.c **** 
 235:Core/Src/main.c **** 
 236:Core/Src/main.c ****   /* USER CODE BEGIN LTDC_Init 1 */
 237:Core/Src/main.c **** 
 238:Core/Src/main.c ****   /* USER CODE END LTDC_Init 1 */
 239:Core/Src/main.c ****   hltdc.Instance = LTDC;
 240:Core/Src/main.c ****   hltdc.Init.HSPolarity = LTDC_HSPOLARITY_AL;
 241:Core/Src/main.c ****   hltdc.Init.VSPolarity = LTDC_VSPOLARITY_AL;
 242:Core/Src/main.c ****   hltdc.Init.DEPolarity = LTDC_DEPOLARITY_AL;
 243:Core/Src/main.c ****   hltdc.Init.PCPolarity = LTDC_PCPOLARITY_IPC;
 244:Core/Src/main.c ****   hltdc.Init.HorizontalSync = H_SYNC_WIDTH - 1;
 245:Core/Src/main.c ****   hltdc.Init.VerticalSync = V_SYNC_WIDTH - 1;
 246:Core/Src/main.c ****   hltdc.Init.AccumulatedHBP = H_SYNC_WIDTH + H_BACK_PORCH - 1;
 247:Core/Src/main.c ****   hltdc.Init.AccumulatedVBP = V_SYNC_WIDTH + V_BACK_PORCH - 1;
 248:Core/Src/main.c ****   hltdc.Init.AccumulatedActiveW = H_SYNC_WIDTH + H_BACK_PORCH + LCD_ACTIVE_WIDTH - 1;
 249:Core/Src/main.c ****   hltdc.Init.AccumulatedActiveH = V_SYNC_WIDTH + V_BACK_PORCH + LCD_ACTIVE_HEIGHT - 1;
 250:Core/Src/main.c ****   hltdc.Init.TotalWidth = H_TOTAL - 1;
 251:Core/Src/main.c ****   hltdc.Init.TotalHeigh = V_TOTAL - 1;
 252:Core/Src/main.c ****   hltdc.Init.Backcolor.Blue = 0;
 253:Core/Src/main.c ****   hltdc.Init.Backcolor.Green = 0;
 254:Core/Src/main.c ****   hltdc.Init.Backcolor.Red = 0;
 255:Core/Src/main.c ****   if (HAL_LTDC_Init(&hltdc) != HAL_OK)
 256:Core/Src/main.c ****   {
 257:Core/Src/main.c ****     Error_Handler();
 258:Core/Src/main.c ****   }
 259:Core/Src/main.c ****   pLayerCfg.WindowX0 = 0;
 260:Core/Src/main.c ****   pLayerCfg.WindowX1 = LCD_ACTIVE_WIDTH;
ARM GAS  /var/folders/l4/6w9kflz11csb_6qsyz46nv3c0000gp/T//cccBIjak.s 			page 6


 261:Core/Src/main.c ****   pLayerCfg.WindowY0 = 0;
 262:Core/Src/main.c ****   pLayerCfg.WindowY1 = LCD_ACTIVE_HEIGHT;
 263:Core/Src/main.c ****   pLayerCfg.PixelFormat = LTDC_PIXEL_FORMAT_L8;
 264:Core/Src/main.c ****   pLayerCfg.Alpha = 255;
 265:Core/Src/main.c ****   pLayerCfg.Alpha0 = 0;
 266:Core/Src/main.c ****   pLayerCfg.BlendingFactor1 = LTDC_BLENDING_FACTOR1_PAxCA;
 267:Core/Src/main.c ****   pLayerCfg.BlendingFactor2 = LTDC_BLENDING_FACTOR2_PAxCA;
 268:Core/Src/main.c ****   pLayerCfg.FBStartAdress = (uint32_t)buffer0;
 269:Core/Src/main.c ****   pLayerCfg.ImageWidth = LCD_ACTIVE_WIDTH;
 270:Core/Src/main.c ****   pLayerCfg.ImageHeight = LCD_ACTIVE_HEIGHT;
 271:Core/Src/main.c ****   pLayerCfg.Backcolor.Blue = 0;
 272:Core/Src/main.c ****   pLayerCfg.Backcolor.Green = 0;
 273:Core/Src/main.c ****   pLayerCfg.Backcolor.Red = 0;
 274:Core/Src/main.c ****   if (HAL_LTDC_ConfigLayer(&hltdc, &pLayerCfg, 1) != HAL_OK)
 275:Core/Src/main.c ****   {
 276:Core/Src/main.c ****     Error_Handler();
 277:Core/Src/main.c ****   }
 278:Core/Src/main.c ****   /* USER CODE BEGIN LTDC_Init 2 */
 279:Core/Src/main.c ****   for(int i = 0 ; i < 256; i++){
 280:Core/Src/main.c ****     clut[i] = i << 16 | i << 8 | i; 
 281:Core/Src/main.c ****   }
 282:Core/Src/main.c ****   HAL_LTDC_ConfigCLUT(&hltdc, clut, 256, LTDC_LAYER_1);
 283:Core/Src/main.c ****   /* USER CODE END LTDC_Init 2 */
 284:Core/Src/main.c **** 
 285:Core/Src/main.c **** }
 286:Core/Src/main.c **** 
 287:Core/Src/main.c **** /**
 288:Core/Src/main.c ****   * @brief GPIO Initialization Function
 289:Core/Src/main.c ****   * @param None
 290:Core/Src/main.c ****   * @retval None
 291:Core/Src/main.c ****   */
 292:Core/Src/main.c **** static void MX_GPIO_Init(void)
 293:Core/Src/main.c **** {
  27              		.loc 1 293 1 view -0
  28              		.cfi_startproc
  29              		@ args = 0, pretend = 0, frame = 32
  30              		@ frame_needed = 0, uses_anonymous_args = 0
  31              		@ link register save eliminated.
  32 0000 88B0     		sub	sp, sp, #32
  33              		.cfi_def_cfa_offset 32
 294:Core/Src/main.c ****   /* USER CODE BEGIN MX_GPIO_Init_1 */
 295:Core/Src/main.c **** 
 296:Core/Src/main.c ****   /* USER CODE END MX_GPIO_Init_1 */
 297:Core/Src/main.c **** 
 298:Core/Src/main.c ****   /* GPIO Ports Clock Enable */
 299:Core/Src/main.c ****   __HAL_RCC_GPIOE_CLK_ENABLE();
  34              		.loc 1 299 3 view .LVU1
  35              	.LBB8:
  36              		.loc 1 299 3 view .LVU2
  37              		.loc 1 299 3 view .LVU3
  38 0002 2B4B     		ldr	r3, .L3
  39 0004 D3F8E020 		ldr	r2, [r3, #224]
  40 0008 42F01002 		orr	r2, r2, #16
  41 000c C3F8E020 		str	r2, [r3, #224]
  42              		.loc 1 299 3 view .LVU4
  43 0010 D3F8E020 		ldr	r2, [r3, #224]
  44 0014 02F01002 		and	r2, r2, #16
ARM GAS  /var/folders/l4/6w9kflz11csb_6qsyz46nv3c0000gp/T//cccBIjak.s 			page 7


  45 0018 0192     		str	r2, [sp, #4]
  46              		.loc 1 299 3 view .LVU5
  47 001a 019A     		ldr	r2, [sp, #4]
  48              	.LBE8:
  49              		.loc 1 299 3 view .LVU6
 300:Core/Src/main.c ****   __HAL_RCC_GPIOF_CLK_ENABLE();
  50              		.loc 1 300 3 view .LVU7
  51              	.LBB9:
  52              		.loc 1 300 3 view .LVU8
  53              		.loc 1 300 3 view .LVU9
  54 001c D3F8E020 		ldr	r2, [r3, #224]
  55 0020 42F02002 		orr	r2, r2, #32
  56 0024 C3F8E020 		str	r2, [r3, #224]
  57              		.loc 1 300 3 view .LVU10
  58 0028 D3F8E020 		ldr	r2, [r3, #224]
  59 002c 02F02002 		and	r2, r2, #32
  60 0030 0292     		str	r2, [sp, #8]
  61              		.loc 1 300 3 view .LVU11
  62 0032 029A     		ldr	r2, [sp, #8]
  63              	.LBE9:
  64              		.loc 1 300 3 view .LVU12
 301:Core/Src/main.c ****   __HAL_RCC_GPIOC_CLK_ENABLE();
  65              		.loc 1 301 3 view .LVU13
  66              	.LBB10:
  67              		.loc 1 301 3 view .LVU14
  68              		.loc 1 301 3 view .LVU15
  69 0034 D3F8E020 		ldr	r2, [r3, #224]
  70 0038 42F00402 		orr	r2, r2, #4
  71 003c C3F8E020 		str	r2, [r3, #224]
  72              		.loc 1 301 3 view .LVU16
  73 0040 D3F8E020 		ldr	r2, [r3, #224]
  74 0044 02F00402 		and	r2, r2, #4
  75 0048 0392     		str	r2, [sp, #12]
  76              		.loc 1 301 3 view .LVU17
  77 004a 039A     		ldr	r2, [sp, #12]
  78              	.LBE10:
  79              		.loc 1 301 3 view .LVU18
 302:Core/Src/main.c ****   __HAL_RCC_GPIOA_CLK_ENABLE();
  80              		.loc 1 302 3 view .LVU19
  81              	.LBB11:
  82              		.loc 1 302 3 view .LVU20
  83              		.loc 1 302 3 view .LVU21
  84 004c D3F8E020 		ldr	r2, [r3, #224]
  85 0050 42F00102 		orr	r2, r2, #1
  86 0054 C3F8E020 		str	r2, [r3, #224]
  87              		.loc 1 302 3 view .LVU22
  88 0058 D3F8E020 		ldr	r2, [r3, #224]
  89 005c 02F00102 		and	r2, r2, #1
  90 0060 0492     		str	r2, [sp, #16]
  91              		.loc 1 302 3 view .LVU23
  92 0062 049A     		ldr	r2, [sp, #16]
  93              	.LBE11:
  94              		.loc 1 302 3 view .LVU24
 303:Core/Src/main.c ****   __HAL_RCC_GPIOB_CLK_ENABLE();
  95              		.loc 1 303 3 view .LVU25
  96              	.LBB12:
  97              		.loc 1 303 3 view .LVU26
ARM GAS  /var/folders/l4/6w9kflz11csb_6qsyz46nv3c0000gp/T//cccBIjak.s 			page 8


  98              		.loc 1 303 3 view .LVU27
  99 0064 D3F8E020 		ldr	r2, [r3, #224]
 100 0068 42F00202 		orr	r2, r2, #2
 101 006c C3F8E020 		str	r2, [r3, #224]
 102              		.loc 1 303 3 view .LVU28
 103 0070 D3F8E020 		ldr	r2, [r3, #224]
 104 0074 02F00202 		and	r2, r2, #2
 105 0078 0592     		str	r2, [sp, #20]
 106              		.loc 1 303 3 view .LVU29
 107 007a 059A     		ldr	r2, [sp, #20]
 108              	.LBE12:
 109              		.loc 1 303 3 view .LVU30
 304:Core/Src/main.c ****   __HAL_RCC_GPIOD_CLK_ENABLE();
 110              		.loc 1 304 3 view .LVU31
 111              	.LBB13:
 112              		.loc 1 304 3 view .LVU32
 113              		.loc 1 304 3 view .LVU33
 114 007c D3F8E020 		ldr	r2, [r3, #224]
 115 0080 42F00802 		orr	r2, r2, #8
 116 0084 C3F8E020 		str	r2, [r3, #224]
 117              		.loc 1 304 3 view .LVU34
 118 0088 D3F8E020 		ldr	r2, [r3, #224]
 119 008c 02F00802 		and	r2, r2, #8
 120 0090 0692     		str	r2, [sp, #24]
 121              		.loc 1 304 3 view .LVU35
 122 0092 069A     		ldr	r2, [sp, #24]
 123              	.LBE13:
 124              		.loc 1 304 3 view .LVU36
 305:Core/Src/main.c ****   __HAL_RCC_GPIOG_CLK_ENABLE();
 125              		.loc 1 305 3 view .LVU37
 126              	.LBB14:
 127              		.loc 1 305 3 view .LVU38
 128              		.loc 1 305 3 view .LVU39
 129 0094 D3F8E020 		ldr	r2, [r3, #224]
 130 0098 42F04002 		orr	r2, r2, #64
 131 009c C3F8E020 		str	r2, [r3, #224]
 132              		.loc 1 305 3 view .LVU40
 133 00a0 D3F8E030 		ldr	r3, [r3, #224]
 134 00a4 03F04003 		and	r3, r3, #64
 135 00a8 0793     		str	r3, [sp, #28]
 136              		.loc 1 305 3 view .LVU41
 137 00aa 079B     		ldr	r3, [sp, #28]
 138              	.LBE14:
 139              		.loc 1 305 3 view .LVU42
 306:Core/Src/main.c **** 
 307:Core/Src/main.c ****   /* USER CODE BEGIN MX_GPIO_Init_2 */
 308:Core/Src/main.c **** 
 309:Core/Src/main.c ****   /* USER CODE END MX_GPIO_Init_2 */
 310:Core/Src/main.c **** }
 140              		.loc 1 310 1 is_stmt 0 view .LVU43
 141 00ac 08B0     		add	sp, sp, #32
 142              		.cfi_def_cfa_offset 0
 143              		@ sp needed
 144 00ae 7047     		bx	lr
 145              	.L4:
 146              		.align	2
 147              	.L3:
ARM GAS  /var/folders/l4/6w9kflz11csb_6qsyz46nv3c0000gp/T//cccBIjak.s 			page 9


 148 00b0 00440258 		.word	1476543488
 149              		.cfi_endproc
 150              	.LFE147:
 152              		.section	.text.FillStrip,"ax",%progbits
 153              		.align	1
 154              		.global	FillStrip
 155              		.syntax unified
 156              		.thumb
 157              		.thumb_func
 159              	FillStrip:
 160              	.LVL0:
 161              	.LFB148:
 311:Core/Src/main.c **** 
 312:Core/Src/main.c **** /* USER CODE BEGIN 4 */
 313:Core/Src/main.c **** void FillStrip(uint8_t *buffer) {
 162              		.loc 1 313 33 is_stmt 1 view -0
 163              		.cfi_startproc
 164              		@ args = 0, pretend = 0, frame = 0
 165              		@ frame_needed = 0, uses_anonymous_args = 0
 166              		@ link register save eliminated.
 167              		.loc 1 313 33 is_stmt 0 view .LVU45
 168 0000 8446     		mov	ip, r0
 314:Core/Src/main.c ****     for (uint32_t row = 0; row < STRIP_HEIGHT; row++) {
 169              		.loc 1 314 5 is_stmt 1 view .LVU46
 170              	.LBB15:
 171              		.loc 1 314 10 view .LVU47
 172              	.LVL1:
 173              		.loc 1 314 19 is_stmt 0 view .LVU48
 174 0002 0021     		movs	r1, #0
 175              		.loc 1 314 5 view .LVU49
 176 0004 0BE0     		b	.L6
 177              	.LVL2:
 178              	.L7:
 179              	.LBB16:
 315:Core/Src/main.c ****         for (uint32_t column = 0; column < LCD_ACTIVE_WIDTH; column++) {
 316:Core/Src/main.c ****             buffer[row*LCD_ACTIVE_WIDTH + column] = 0xFF;
 180              		.loc 1 316 13 is_stmt 1 view .LVU50
 181              		.loc 1 316 23 is_stmt 0 view .LVU51
 182 0006 01EB8102 		add	r2, r1, r1, lsl #2
 183              		.loc 1 316 41 view .LVU52
 184 000a 03EB0222 		add	r2, r3, r2, lsl #8
 185              		.loc 1 316 51 view .LVU53
 186 000e FF20     		movs	r0, #255
 187 0010 0CF80200 		strb	r0, [ip, r2]
 315:Core/Src/main.c ****         for (uint32_t column = 0; column < LCD_ACTIVE_WIDTH; column++) {
 188              		.loc 1 315 68 is_stmt 1 discriminator 3 view .LVU54
 189 0014 0133     		adds	r3, r3, #1
 190              	.LVL3:
 191              	.L8:
 315:Core/Src/main.c ****         for (uint32_t column = 0; column < LCD_ACTIVE_WIDTH; column++) {
 192              		.loc 1 315 42 discriminator 1 view .LVU55
 193 0016 B3F5A06F 		cmp	r3, #1280
 194 001a F4D3     		bcc	.L7
 195              	.LBE16:
 314:Core/Src/main.c ****     for (uint32_t row = 0; row < STRIP_HEIGHT; row++) {
 196              		.loc 1 314 51 discriminator 2 view .LVU56
 197 001c 0131     		adds	r1, r1, #1
ARM GAS  /var/folders/l4/6w9kflz11csb_6qsyz46nv3c0000gp/T//cccBIjak.s 			page 10


 198              	.LVL4:
 199              	.L6:
 314:Core/Src/main.c ****     for (uint32_t row = 0; row < STRIP_HEIGHT; row++) {
 200              		.loc 1 314 32 discriminator 1 view .LVU57
 201 001e C729     		cmp	r1, #199
 202 0020 01D8     		bhi	.L10
 203              	.LBB17:
 315:Core/Src/main.c ****         for (uint32_t column = 0; column < LCD_ACTIVE_WIDTH; column++) {
 204              		.loc 1 315 23 is_stmt 0 view .LVU58
 205 0022 0023     		movs	r3, #0
 206 0024 F7E7     		b	.L8
 207              	.L10:
 208              	.LBE17:
 209              	.LBE15:
 317:Core/Src/main.c ****         }
 318:Core/Src/main.c ****     }
 319:Core/Src/main.c **** }
 210              		.loc 1 319 1 view .LVU59
 211 0026 7047     		bx	lr
 212              		.cfi_endproc
 213              	.LFE148:
 215              		.section	.text.LTDC_IRQHandler,"ax",%progbits
 216              		.align	1
 217              		.global	LTDC_IRQHandler
 218              		.syntax unified
 219              		.thumb
 220              		.thumb_func
 222              	LTDC_IRQHandler:
 223              	.LFB149:
 320:Core/Src/main.c **** 
 321:Core/Src/main.c **** void LTDC_IRQHandler(void)
 322:Core/Src/main.c **** {
 224              		.loc 1 322 1 is_stmt 1 view -0
 225              		.cfi_startproc
 226              		@ args = 0, pretend = 0, frame = 0
 227              		@ frame_needed = 0, uses_anonymous_args = 0
 323:Core/Src/main.c ****     if (__HAL_LTDC_GET_FLAG(&hltdc, LTDC_FLAG_LI))
 228              		.loc 1 323 5 view .LVU61
 229              		.loc 1 323 9 is_stmt 0 view .LVU62
 230 0000 364B     		ldr	r3, .L24
 231 0002 1B68     		ldr	r3, [r3]
 232 0004 9A6B     		ldr	r2, [r3, #56]
 233              		.loc 1 323 8 view .LVU63
 234 0006 12F0010F 		tst	r2, #1
 235 000a 65D0     		beq	.L21
 322:Core/Src/main.c ****     if (__HAL_LTDC_GET_FLAG(&hltdc, LTDC_FLAG_LI))
 236              		.loc 1 322 1 view .LVU64
 237 000c 10B5     		push	{r4, lr}
 238              		.cfi_def_cfa_offset 8
 239              		.cfi_offset 4, -8
 240              		.cfi_offset 14, -4
 324:Core/Src/main.c ****     {
 325:Core/Src/main.c ****         __HAL_LTDC_CLEAR_FLAG(&hltdc, LTDC_FLAG_LI);
 241              		.loc 1 325 9 is_stmt 1 view .LVU65
 242 000e 0122     		movs	r2, #1
 243 0010 DA63     		str	r2, [r3, #60]
 326:Core/Src/main.c **** 
ARM GAS  /var/folders/l4/6w9kflz11csb_6qsyz46nv3c0000gp/T//cccBIjak.s 			page 11


 327:Core/Src/main.c ****         current_strip++;   // –њ–µ—А–µ—Е–Њ–і–Є–Љ –Ї —Б–ї–µ–і—Г—О—Й–µ–є –њ–Њ–ї–Њ—Б–µ
 244              		.loc 1 327 9 view .LVU66
 245              		.loc 1 327 22 is_stmt 0 view .LVU67
 246 0012 334B     		ldr	r3, .L24+4
 247 0014 1A68     		ldr	r2, [r3]
 248 0016 0132     		adds	r2, r2, #1
 249 0018 1A60     		str	r2, [r3]
 328:Core/Src/main.c **** 
 329:Core/Src/main.c ****         if (current_strip < TOTAL_STRIPS)   // 0..11
 250              		.loc 1 329 9 is_stmt 1 view .LVU68
 251              		.loc 1 329 27 is_stmt 0 view .LVU69
 252 001a 1B68     		ldr	r3, [r3]
 253              		.loc 1 329 12 view .LVU70
 254 001c 0B2B     		cmp	r3, #11
 255 001e 2ED8     		bhi	.L13
 330:Core/Src/main.c ****         {
 331:Core/Src/main.c ****             // ---- 1. –Я–µ—А–µ–Ї–ї—О—З–∞–µ–Љ LTDC –љ–∞ –і—А—Г–≥–Њ–є –±—Г—Д–µ—А (—Г–ґ–µ –Ј–∞–њ–Њ–ї–
 332:Core/Src/main.c ****             if (active_buffer == 0){
 256              		.loc 1 332 13 is_stmt 1 view .LVU71
 257              		.loc 1 332 31 is_stmt 0 view .LVU72
 258 0020 304B     		ldr	r3, .L24+8
 259 0022 1B78     		ldrb	r3, [r3]	@ zero_extendqisi2
 260              		.loc 1 332 16 view .LVU73
 261 0024 E3B9     		cbnz	r3, .L14
 333:Core/Src/main.c ****                 HAL_LTDC_SetAddress(&hltdc, (uint32_t)buffer1, LTDC_LAYER_1);
 262              		.loc 1 333 17 is_stmt 1 view .LVU74
 263 0026 2D4C     		ldr	r4, .L24
 264 0028 0022     		movs	r2, #0
 265 002a 2F49     		ldr	r1, .L24+12
 266 002c 2046     		mov	r0, r4
 267 002e FFF7FEFF 		bl	HAL_LTDC_SetAddress
 268              	.LVL5:
 334:Core/Src/main.c ****                 HAL_LTDC_Reload(&hltdc, LTDC_RELOAD_IMMEDIATE);
 269              		.loc 1 334 17 view .LVU75
 270 0032 0121     		movs	r1, #1
 271 0034 2046     		mov	r0, r4
 272 0036 FFF7FEFF 		bl	HAL_LTDC_Reload
 273              	.LVL6:
 274              	.L15:
 335:Core/Src/main.c ****             }
 336:Core/Src/main.c ****             else{
 337:Core/Src/main.c ****                 HAL_LTDC_SetAddress(&hltdc, (uint32_t)buffer0, LTDC_LAYER_1);
 338:Core/Src/main.c ****                 HAL_LTDC_Reload(&hltdc, LTDC_RELOAD_IMMEDIATE);
 339:Core/Src/main.c ****               }
 340:Core/Src/main.c ****             // ---- 2. –Ш–љ–≤–µ—А—В–Є—А—Г–µ–Љ —Д–ї–∞–≥ –∞–Ї—В–Є–≤–љ–Њ–≥–Њ –±—Г—Д–µ—А–∞ ----
 341:Core/Src/main.c ****             active_buffer ^= 1;
 275              		.loc 1 341 13 view .LVU76
 276              		.loc 1 341 27 is_stmt 0 view .LVU77
 277 003a 2A4C     		ldr	r4, .L24+8
 278 003c 2378     		ldrb	r3, [r4]	@ zero_extendqisi2
 279 003e 83F00103 		eor	r3, r3, #1
 280 0042 2370     		strb	r3, [r4]
 342:Core/Src/main.c **** 
 343:Core/Src/main.c ****             // ---- 3. –Я—А–Њ–≥—А–∞–Љ–Љ–Є—А—Г–µ–Љ —Б–ї–µ–і—Г—О—Й–µ–µ –њ—А–µ—А—Л–≤–∞–љ–Є–µ (–љ–∞ –Ї–
 344:Core/Src/main.c ****             HAL_LTDC_ProgramLineEvent(&hltdc, (current_strip + 1) * STRIP_HEIGHT);
 281              		.loc 1 344 13 is_stmt 1 view .LVU78
 282 0044 264B     		ldr	r3, .L24+4
ARM GAS  /var/folders/l4/6w9kflz11csb_6qsyz46nv3c0000gp/T//cccBIjak.s 			page 12


 283 0046 1B68     		ldr	r3, [r3]
 284 0048 C821     		movs	r1, #200
 285 004a 03FB0111 		mla	r1, r3, r1, r1
 286 004e 2348     		ldr	r0, .L24
 287 0050 FFF7FEFF 		bl	HAL_LTDC_ProgramLineEvent
 288              	.LVL7:
 345:Core/Src/main.c **** 
 346:Core/Src/main.c ****             // ---- 4. –Ч–∞–њ–Њ–ї–љ—П–µ–Љ –Њ—Б–≤–Њ–±–Њ–і–Є–≤—И–Є–є—Б—П –±—Г—Д–µ—А –і–∞–љ–љ—Л–Љ–Є –і
 347:Core/Src/main.c ****             if (active_buffer == 0)
 289              		.loc 1 347 13 view .LVU79
 290              		.loc 1 347 31 is_stmt 0 view .LVU80
 291 0054 2378     		ldrb	r3, [r4]	@ zero_extendqisi2
 292              		.loc 1 347 16 view .LVU81
 293 0056 73B9     		cbnz	r3, .L16
 348:Core/Src/main.c ****                 FillStrip(buffer0);   // current_strip —Г–ґ–µ —Г–≤–µ–ї–Є—З–µ–љ
 294              		.loc 1 348 17 is_stmt 1 view .LVU82
 295 0058 2448     		ldr	r0, .L24+16
 296 005a FFF7FEFF 		bl	FillStrip
 297              	.LVL8:
 298              	.L11:
 349:Core/Src/main.c ****             else
 350:Core/Src/main.c ****                 FillStrip(buffer1);
 351:Core/Src/main.c ****         }
 352:Core/Src/main.c ****         else
 353:Core/Src/main.c ****         {
 354:Core/Src/main.c ****             // –Ъ–Њ–љ–µ—Ж –Ї–∞–і—А–∞: —Б–±—А–∞—Б—Л–≤–∞–µ–Љ —Б—З—С—В—З–Є–Ї, –љ–∞—З–Є–љ–∞–µ–Љ –љ–Њ–≤—
 355:Core/Src/main.c ****             current_strip = 0;
 356:Core/Src/main.c **** 
 357:Core/Src/main.c ****             // –Я–µ—А–µ–Ї–ї—О—З–∞–µ–Љ LTDC –љ–∞ –і—А—Г–≥–Њ–є –±—Г—Д–µ—А (–і–ї—П –њ–µ—А–≤–Њ–є –њ–Њ–ї
 358:Core/Src/main.c ****             if (active_buffer == 0){
 359:Core/Src/main.c ****                 HAL_LTDC_SetAddress(&hltdc, (uint32_t)buffer1, LTDC_LAYER_1);
 360:Core/Src/main.c ****                 HAL_LTDC_Reload(&hltdc, LTDC_RELOAD_IMMEDIATE);
 361:Core/Src/main.c ****             }
 362:Core/Src/main.c ****             else{
 363:Core/Src/main.c ****                 HAL_LTDC_SetAddress(&hltdc, (uint32_t)buffer0, LTDC_LAYER_1);
 364:Core/Src/main.c ****                 HAL_LTDC_Reload(&hltdc, LTDC_RELOAD_IMMEDIATE);
 365:Core/Src/main.c ****             }
 366:Core/Src/main.c ****             active_buffer ^= 1;
 367:Core/Src/main.c **** 
 368:Core/Src/main.c ****             // –Я—А–Њ–≥—А–∞–Љ–Љ–Є—А—Г–µ–Љ –њ—А–µ—А—Л–≤–∞–љ–Є–µ –љ–∞ –Ї–Њ–љ–µ—Ж –њ–µ—А–≤–Њ–є –њ–Њ–ї–
 369:Core/Src/main.c ****             HAL_LTDC_ProgramLineEvent(&hltdc, STRIP_HEIGHT);
 370:Core/Src/main.c **** 
 371:Core/Src/main.c ****             // –Ч–∞–њ–Њ–ї–љ—П–µ–Љ –Њ—Б–≤–Њ–±–Њ–і–Є–≤—И–Є–є—Б—П –±—Г—Д–µ—А –і–ї—П –њ–µ—А–≤–Њ–є –њ–Њ–
 372:Core/Src/main.c ****             if (active_buffer == 0)
 373:Core/Src/main.c ****                 FillStrip(buffer0);
 374:Core/Src/main.c ****             else
 375:Core/Src/main.c ****                 FillStrip(buffer1);
 376:Core/Src/main.c ****         }
 377:Core/Src/main.c ****     }
 378:Core/Src/main.c **** }  
 299              		.loc 1 378 1 is_stmt 0 view .LVU83
 300 005e 10BD     		pop	{r4, pc}
 301              	.L14:
 337:Core/Src/main.c ****                 HAL_LTDC_Reload(&hltdc, LTDC_RELOAD_IMMEDIATE);
 302              		.loc 1 337 17 is_stmt 1 view .LVU84
 303 0060 1E4C     		ldr	r4, .L24
 304 0062 0022     		movs	r2, #0
ARM GAS  /var/folders/l4/6w9kflz11csb_6qsyz46nv3c0000gp/T//cccBIjak.s 			page 13


 305 0064 2149     		ldr	r1, .L24+16
 306 0066 2046     		mov	r0, r4
 307 0068 FFF7FEFF 		bl	HAL_LTDC_SetAddress
 308              	.LVL9:
 338:Core/Src/main.c ****               }
 309              		.loc 1 338 17 view .LVU85
 310 006c 0121     		movs	r1, #1
 311 006e 2046     		mov	r0, r4
 312 0070 FFF7FEFF 		bl	HAL_LTDC_Reload
 313              	.LVL10:
 314 0074 E1E7     		b	.L15
 315              	.L16:
 350:Core/Src/main.c ****         }
 316              		.loc 1 350 17 view .LVU86
 317 0076 1C48     		ldr	r0, .L24+12
 318 0078 FFF7FEFF 		bl	FillStrip
 319              	.LVL11:
 320 007c EFE7     		b	.L11
 321              	.L13:
 355:Core/Src/main.c **** 
 322              		.loc 1 355 13 view .LVU87
 355:Core/Src/main.c **** 
 323              		.loc 1 355 27 is_stmt 0 view .LVU88
 324 007e 184B     		ldr	r3, .L24+4
 325 0080 0022     		movs	r2, #0
 326 0082 1A60     		str	r2, [r3]
 358:Core/Src/main.c ****                 HAL_LTDC_SetAddress(&hltdc, (uint32_t)buffer1, LTDC_LAYER_1);
 327              		.loc 1 358 13 is_stmt 1 view .LVU89
 358:Core/Src/main.c ****                 HAL_LTDC_SetAddress(&hltdc, (uint32_t)buffer1, LTDC_LAYER_1);
 328              		.loc 1 358 31 is_stmt 0 view .LVU90
 329 0084 174B     		ldr	r3, .L24+8
 330 0086 1B78     		ldrb	r3, [r3]	@ zero_extendqisi2
 358:Core/Src/main.c ****                 HAL_LTDC_SetAddress(&hltdc, (uint32_t)buffer1, LTDC_LAYER_1);
 331              		.loc 1 358 16 view .LVU91
 332 0088 BBB9     		cbnz	r3, .L17
 359:Core/Src/main.c ****                 HAL_LTDC_Reload(&hltdc, LTDC_RELOAD_IMMEDIATE);
 333              		.loc 1 359 17 is_stmt 1 view .LVU92
 334 008a 144C     		ldr	r4, .L24
 335 008c 1649     		ldr	r1, .L24+12
 336 008e 2046     		mov	r0, r4
 337 0090 FFF7FEFF 		bl	HAL_LTDC_SetAddress
 338              	.LVL12:
 360:Core/Src/main.c ****             }
 339              		.loc 1 360 17 view .LVU93
 340 0094 0121     		movs	r1, #1
 341 0096 2046     		mov	r0, r4
 342 0098 FFF7FEFF 		bl	HAL_LTDC_Reload
 343              	.LVL13:
 344              	.L18:
 366:Core/Src/main.c **** 
 345              		.loc 1 366 13 view .LVU94
 366:Core/Src/main.c **** 
 346              		.loc 1 366 27 is_stmt 0 view .LVU95
 347 009c 114C     		ldr	r4, .L24+8
 348 009e 2378     		ldrb	r3, [r4]	@ zero_extendqisi2
 349 00a0 83F00103 		eor	r3, r3, #1
 350 00a4 2370     		strb	r3, [r4]
ARM GAS  /var/folders/l4/6w9kflz11csb_6qsyz46nv3c0000gp/T//cccBIjak.s 			page 14


 369:Core/Src/main.c **** 
 351              		.loc 1 369 13 is_stmt 1 view .LVU96
 352 00a6 C821     		movs	r1, #200
 353 00a8 0C48     		ldr	r0, .L24
 354 00aa FFF7FEFF 		bl	HAL_LTDC_ProgramLineEvent
 355              	.LVL14:
 372:Core/Src/main.c ****                 FillStrip(buffer0);
 356              		.loc 1 372 13 view .LVU97
 372:Core/Src/main.c ****                 FillStrip(buffer0);
 357              		.loc 1 372 31 is_stmt 0 view .LVU98
 358 00ae 2378     		ldrb	r3, [r4]	@ zero_extendqisi2
 372:Core/Src/main.c ****                 FillStrip(buffer0);
 359              		.loc 1 372 16 view .LVU99
 360 00b0 73B9     		cbnz	r3, .L19
 373:Core/Src/main.c ****             else
 361              		.loc 1 373 17 is_stmt 1 view .LVU100
 362 00b2 0E48     		ldr	r0, .L24+16
 363 00b4 FFF7FEFF 		bl	FillStrip
 364              	.LVL15:
 365 00b8 D1E7     		b	.L11
 366              	.L17:
 363:Core/Src/main.c ****                 HAL_LTDC_Reload(&hltdc, LTDC_RELOAD_IMMEDIATE);
 367              		.loc 1 363 17 view .LVU101
 368 00ba 084C     		ldr	r4, .L24
 369 00bc 0022     		movs	r2, #0
 370 00be 0B49     		ldr	r1, .L24+16
 371 00c0 2046     		mov	r0, r4
 372 00c2 FFF7FEFF 		bl	HAL_LTDC_SetAddress
 373              	.LVL16:
 364:Core/Src/main.c ****             }
 374              		.loc 1 364 17 view .LVU102
 375 00c6 0121     		movs	r1, #1
 376 00c8 2046     		mov	r0, r4
 377 00ca FFF7FEFF 		bl	HAL_LTDC_Reload
 378              	.LVL17:
 379 00ce E5E7     		b	.L18
 380              	.L19:
 375:Core/Src/main.c ****         }
 381              		.loc 1 375 17 view .LVU103
 382 00d0 0548     		ldr	r0, .L24+12
 383 00d2 FFF7FEFF 		bl	FillStrip
 384              	.LVL18:
 385              		.loc 1 378 1 is_stmt 0 view .LVU104
 386 00d6 C2E7     		b	.L11
 387              	.L21:
 388              		.cfi_def_cfa_offset 0
 389              		.cfi_restore 4
 390              		.cfi_restore 14
 391 00d8 7047     		bx	lr
 392              	.L25:
 393 00da 00BF     		.align	2
 394              	.L24:
 395 00dc 00000000 		.word	hltdc
 396 00e0 00000000 		.word	current_strip
 397 00e4 00000000 		.word	active_buffer
 398 00e8 00000000 		.word	buffer1
 399 00ec 00E80300 		.word	buffer0
ARM GAS  /var/folders/l4/6w9kflz11csb_6qsyz46nv3c0000gp/T//cccBIjak.s 			page 15


 400              		.cfi_endproc
 401              	.LFE149:
 403              		.section	.text.Error_Handler,"ax",%progbits
 404              		.align	1
 405              		.global	Error_Handler
 406              		.syntax unified
 407              		.thumb
 408              		.thumb_func
 410              	Error_Handler:
 411              	.LFB151:
 379:Core/Src/main.c **** 
 380:Core/Src/main.c **** 
 381:Core/Src/main.c **** /* USER CODE END 4 */
 382:Core/Src/main.c **** 
 383:Core/Src/main.c ****  /* MPU Configuration */
 384:Core/Src/main.c **** 
 385:Core/Src/main.c **** void MPU_Config(void)
 386:Core/Src/main.c **** {
 387:Core/Src/main.c ****   MPU_Region_InitTypeDef MPU_InitStruct = {0};
 388:Core/Src/main.c **** 
 389:Core/Src/main.c ****   /* Disables the MPU */
 390:Core/Src/main.c ****   HAL_MPU_Disable();
 391:Core/Src/main.c **** 
 392:Core/Src/main.c ****   /** Initializes and configures the Region and the memory to be protected
 393:Core/Src/main.c ****   */
 394:Core/Src/main.c ****   MPU_InitStruct.Enable = MPU_REGION_ENABLE;
 395:Core/Src/main.c ****   MPU_InitStruct.Number = MPU_REGION_NUMBER0;
 396:Core/Src/main.c ****   MPU_InitStruct.BaseAddress = 0x0;
 397:Core/Src/main.c ****   MPU_InitStruct.Size = MPU_REGION_SIZE_4GB;
 398:Core/Src/main.c ****   MPU_InitStruct.SubRegionDisable = 0x87;
 399:Core/Src/main.c ****   MPU_InitStruct.TypeExtField = MPU_TEX_LEVEL0;
 400:Core/Src/main.c ****   MPU_InitStruct.AccessPermission = MPU_REGION_NO_ACCESS;
 401:Core/Src/main.c ****   MPU_InitStruct.DisableExec = MPU_INSTRUCTION_ACCESS_DISABLE;
 402:Core/Src/main.c ****   MPU_InitStruct.IsShareable = MPU_ACCESS_SHAREABLE;
 403:Core/Src/main.c ****   MPU_InitStruct.IsCacheable = MPU_ACCESS_NOT_CACHEABLE;
 404:Core/Src/main.c ****   MPU_InitStruct.IsBufferable = MPU_ACCESS_NOT_BUFFERABLE;
 405:Core/Src/main.c **** 
 406:Core/Src/main.c ****   HAL_MPU_ConfigRegion(&MPU_InitStruct);
 407:Core/Src/main.c ****   /* Enables the MPU */
 408:Core/Src/main.c ****   HAL_MPU_Enable(MPU_PRIVILEGED_DEFAULT);
 409:Core/Src/main.c **** 
 410:Core/Src/main.c **** }
 411:Core/Src/main.c **** 
 412:Core/Src/main.c **** /**
 413:Core/Src/main.c ****   * @brief  This function is executed in case of error occurrence.
 414:Core/Src/main.c ****   * @retval None
 415:Core/Src/main.c ****   */
 416:Core/Src/main.c **** void Error_Handler(void)
 417:Core/Src/main.c **** {
 412              		.loc 1 417 1 is_stmt 1 view -0
 413              		.cfi_startproc
 414              		@ Volatile: function does not return.
 415              		@ args = 0, pretend = 0, frame = 0
 416              		@ frame_needed = 0, uses_anonymous_args = 0
 417              		@ link register save eliminated.
 418:Core/Src/main.c ****   /* USER CODE BEGIN Error_Handler_Debug */
 419:Core/Src/main.c ****   /* User can add his own implementation to report the HAL error return state */
ARM GAS  /var/folders/l4/6w9kflz11csb_6qsyz46nv3c0000gp/T//cccBIjak.s 			page 16


 420:Core/Src/main.c ****   __disable_irq();
 418              		.loc 1 420 3 view .LVU106
 419              	.LBB18:
 420              	.LBI18:
 421              		.file 2 "Drivers/CMSIS/Include/cmsis_gcc.h"
   1:Drivers/CMSIS/Include/cmsis_gcc.h **** /**************************************************************************//**
   2:Drivers/CMSIS/Include/cmsis_gcc.h ****  * @file     cmsis_gcc.h
   3:Drivers/CMSIS/Include/cmsis_gcc.h ****  * @brief    CMSIS compiler GCC header file
   4:Drivers/CMSIS/Include/cmsis_gcc.h ****  * @version  V5.2.0
   5:Drivers/CMSIS/Include/cmsis_gcc.h ****  * @date     08. May 2019
   6:Drivers/CMSIS/Include/cmsis_gcc.h ****  ******************************************************************************/
   7:Drivers/CMSIS/Include/cmsis_gcc.h **** /*
   8:Drivers/CMSIS/Include/cmsis_gcc.h ****  * Copyright (c) 2009-2019 Arm Limited. All rights reserved.
   9:Drivers/CMSIS/Include/cmsis_gcc.h ****  *
  10:Drivers/CMSIS/Include/cmsis_gcc.h ****  * SPDX-License-Identifier: Apache-2.0
  11:Drivers/CMSIS/Include/cmsis_gcc.h ****  *
  12:Drivers/CMSIS/Include/cmsis_gcc.h ****  * Licensed under the Apache License, Version 2.0 (the License); you may
  13:Drivers/CMSIS/Include/cmsis_gcc.h ****  * not use this file except in compliance with the License.
  14:Drivers/CMSIS/Include/cmsis_gcc.h ****  * You may obtain a copy of the License at
  15:Drivers/CMSIS/Include/cmsis_gcc.h ****  *
  16:Drivers/CMSIS/Include/cmsis_gcc.h ****  * www.apache.org/licenses/LICENSE-2.0
  17:Drivers/CMSIS/Include/cmsis_gcc.h ****  *
  18:Drivers/CMSIS/Include/cmsis_gcc.h ****  * Unless required by applicable law or agreed to in writing, software
  19:Drivers/CMSIS/Include/cmsis_gcc.h ****  * distributed under the License is distributed on an AS IS BASIS, WITHOUT
  20:Drivers/CMSIS/Include/cmsis_gcc.h ****  * WARRANTIES OR CONDITIONS OF ANY KIND, either express or implied.
  21:Drivers/CMSIS/Include/cmsis_gcc.h ****  * See the License for the specific language governing permissions and
  22:Drivers/CMSIS/Include/cmsis_gcc.h ****  * limitations under the License.
  23:Drivers/CMSIS/Include/cmsis_gcc.h ****  */
  24:Drivers/CMSIS/Include/cmsis_gcc.h **** 
  25:Drivers/CMSIS/Include/cmsis_gcc.h **** #ifndef __CMSIS_GCC_H
  26:Drivers/CMSIS/Include/cmsis_gcc.h **** #define __CMSIS_GCC_H
  27:Drivers/CMSIS/Include/cmsis_gcc.h **** 
  28:Drivers/CMSIS/Include/cmsis_gcc.h **** /* ignore some GCC warnings */
  29:Drivers/CMSIS/Include/cmsis_gcc.h **** #pragma GCC diagnostic push
  30:Drivers/CMSIS/Include/cmsis_gcc.h **** #pragma GCC diagnostic ignored "-Wsign-conversion"
  31:Drivers/CMSIS/Include/cmsis_gcc.h **** #pragma GCC diagnostic ignored "-Wconversion"
  32:Drivers/CMSIS/Include/cmsis_gcc.h **** #pragma GCC diagnostic ignored "-Wunused-parameter"
  33:Drivers/CMSIS/Include/cmsis_gcc.h **** 
  34:Drivers/CMSIS/Include/cmsis_gcc.h **** /* Fallback for __has_builtin */
  35:Drivers/CMSIS/Include/cmsis_gcc.h **** #ifndef __has_builtin
  36:Drivers/CMSIS/Include/cmsis_gcc.h ****   #define __has_builtin(x) (0)
  37:Drivers/CMSIS/Include/cmsis_gcc.h **** #endif
  38:Drivers/CMSIS/Include/cmsis_gcc.h **** 
  39:Drivers/CMSIS/Include/cmsis_gcc.h **** /* CMSIS compiler specific defines */
  40:Drivers/CMSIS/Include/cmsis_gcc.h **** #ifndef   __ASM
  41:Drivers/CMSIS/Include/cmsis_gcc.h ****   #define __ASM                                  __asm
  42:Drivers/CMSIS/Include/cmsis_gcc.h **** #endif
  43:Drivers/CMSIS/Include/cmsis_gcc.h **** #ifndef   __INLINE
  44:Drivers/CMSIS/Include/cmsis_gcc.h ****   #define __INLINE                               inline
  45:Drivers/CMSIS/Include/cmsis_gcc.h **** #endif
  46:Drivers/CMSIS/Include/cmsis_gcc.h **** #ifndef   __STATIC_INLINE
  47:Drivers/CMSIS/Include/cmsis_gcc.h ****   #define __STATIC_INLINE                        static inline
  48:Drivers/CMSIS/Include/cmsis_gcc.h **** #endif
  49:Drivers/CMSIS/Include/cmsis_gcc.h **** #ifndef   __STATIC_FORCEINLINE                 
  50:Drivers/CMSIS/Include/cmsis_gcc.h ****   #define __STATIC_FORCEINLINE                   __attribute__((always_inline)) static inline
  51:Drivers/CMSIS/Include/cmsis_gcc.h **** #endif                                           
  52:Drivers/CMSIS/Include/cmsis_gcc.h **** #ifndef   __NO_RETURN
ARM GAS  /var/folders/l4/6w9kflz11csb_6qsyz46nv3c0000gp/T//cccBIjak.s 			page 17


  53:Drivers/CMSIS/Include/cmsis_gcc.h ****   #define __NO_RETURN                            __attribute__((__noreturn__))
  54:Drivers/CMSIS/Include/cmsis_gcc.h **** #endif
  55:Drivers/CMSIS/Include/cmsis_gcc.h **** #ifndef   __USED
  56:Drivers/CMSIS/Include/cmsis_gcc.h ****   #define __USED                                 __attribute__((used))
  57:Drivers/CMSIS/Include/cmsis_gcc.h **** #endif
  58:Drivers/CMSIS/Include/cmsis_gcc.h **** #ifndef   __WEAK
  59:Drivers/CMSIS/Include/cmsis_gcc.h ****   #define __WEAK                                 __attribute__((weak))
  60:Drivers/CMSIS/Include/cmsis_gcc.h **** #endif
  61:Drivers/CMSIS/Include/cmsis_gcc.h **** #ifndef   __PACKED
  62:Drivers/CMSIS/Include/cmsis_gcc.h ****   #define __PACKED                               __attribute__((packed, aligned(1)))
  63:Drivers/CMSIS/Include/cmsis_gcc.h **** #endif
  64:Drivers/CMSIS/Include/cmsis_gcc.h **** #ifndef   __PACKED_STRUCT
  65:Drivers/CMSIS/Include/cmsis_gcc.h ****   #define __PACKED_STRUCT                        struct __attribute__((packed, aligned(1)))
  66:Drivers/CMSIS/Include/cmsis_gcc.h **** #endif
  67:Drivers/CMSIS/Include/cmsis_gcc.h **** #ifndef   __PACKED_UNION
  68:Drivers/CMSIS/Include/cmsis_gcc.h ****   #define __PACKED_UNION                         union __attribute__((packed, aligned(1)))
  69:Drivers/CMSIS/Include/cmsis_gcc.h **** #endif
  70:Drivers/CMSIS/Include/cmsis_gcc.h **** #ifndef   __UNALIGNED_UINT32        /* deprecated */
  71:Drivers/CMSIS/Include/cmsis_gcc.h ****   #pragma GCC diagnostic push
  72:Drivers/CMSIS/Include/cmsis_gcc.h ****   #pragma GCC diagnostic ignored "-Wpacked"
  73:Drivers/CMSIS/Include/cmsis_gcc.h ****   #pragma GCC diagnostic ignored "-Wattributes"
  74:Drivers/CMSIS/Include/cmsis_gcc.h ****   struct __attribute__((packed)) T_UINT32 { uint32_t v; };
  75:Drivers/CMSIS/Include/cmsis_gcc.h ****   #pragma GCC diagnostic pop
  76:Drivers/CMSIS/Include/cmsis_gcc.h ****   #define __UNALIGNED_UINT32(x)                  (((struct T_UINT32 *)(x))->v)
  77:Drivers/CMSIS/Include/cmsis_gcc.h **** #endif
  78:Drivers/CMSIS/Include/cmsis_gcc.h **** #ifndef   __UNALIGNED_UINT16_WRITE
  79:Drivers/CMSIS/Include/cmsis_gcc.h ****   #pragma GCC diagnostic push
  80:Drivers/CMSIS/Include/cmsis_gcc.h ****   #pragma GCC diagnostic ignored "-Wpacked"
  81:Drivers/CMSIS/Include/cmsis_gcc.h ****   #pragma GCC diagnostic ignored "-Wattributes"
  82:Drivers/CMSIS/Include/cmsis_gcc.h ****   __PACKED_STRUCT T_UINT16_WRITE { uint16_t v; };
  83:Drivers/CMSIS/Include/cmsis_gcc.h ****   #pragma GCC diagnostic pop
  84:Drivers/CMSIS/Include/cmsis_gcc.h ****   #define __UNALIGNED_UINT16_WRITE(addr, val)    (void)((((struct T_UINT16_WRITE *)(void *)(addr))-
  85:Drivers/CMSIS/Include/cmsis_gcc.h **** #endif
  86:Drivers/CMSIS/Include/cmsis_gcc.h **** #ifndef   __UNALIGNED_UINT16_READ
  87:Drivers/CMSIS/Include/cmsis_gcc.h ****   #pragma GCC diagnostic push
  88:Drivers/CMSIS/Include/cmsis_gcc.h ****   #pragma GCC diagnostic ignored "-Wpacked"
  89:Drivers/CMSIS/Include/cmsis_gcc.h ****   #pragma GCC diagnostic ignored "-Wattributes"
  90:Drivers/CMSIS/Include/cmsis_gcc.h ****   __PACKED_STRUCT T_UINT16_READ { uint16_t v; };
  91:Drivers/CMSIS/Include/cmsis_gcc.h ****   #pragma GCC diagnostic pop
  92:Drivers/CMSIS/Include/cmsis_gcc.h ****   #define __UNALIGNED_UINT16_READ(addr)          (((const struct T_UINT16_READ *)(const void *)(add
  93:Drivers/CMSIS/Include/cmsis_gcc.h **** #endif
  94:Drivers/CMSIS/Include/cmsis_gcc.h **** #ifndef   __UNALIGNED_UINT32_WRITE
  95:Drivers/CMSIS/Include/cmsis_gcc.h ****   #pragma GCC diagnostic push
  96:Drivers/CMSIS/Include/cmsis_gcc.h ****   #pragma GCC diagnostic ignored "-Wpacked"
  97:Drivers/CMSIS/Include/cmsis_gcc.h ****   #pragma GCC diagnostic ignored "-Wattributes"
  98:Drivers/CMSIS/Include/cmsis_gcc.h ****   __PACKED_STRUCT T_UINT32_WRITE { uint32_t v; };
  99:Drivers/CMSIS/Include/cmsis_gcc.h ****   #pragma GCC diagnostic pop
 100:Drivers/CMSIS/Include/cmsis_gcc.h ****   #define __UNALIGNED_UINT32_WRITE(addr, val)    (void)((((struct T_UINT32_WRITE *)(void *)(addr))-
 101:Drivers/CMSIS/Include/cmsis_gcc.h **** #endif
 102:Drivers/CMSIS/Include/cmsis_gcc.h **** #ifndef   __UNALIGNED_UINT32_READ
 103:Drivers/CMSIS/Include/cmsis_gcc.h ****   #pragma GCC diagnostic push
 104:Drivers/CMSIS/Include/cmsis_gcc.h ****   #pragma GCC diagnostic ignored "-Wpacked"
 105:Drivers/CMSIS/Include/cmsis_gcc.h ****   #pragma GCC diagnostic ignored "-Wattributes"
 106:Drivers/CMSIS/Include/cmsis_gcc.h ****   __PACKED_STRUCT T_UINT32_READ { uint32_t v; };
 107:Drivers/CMSIS/Include/cmsis_gcc.h ****   #pragma GCC diagnostic pop
 108:Drivers/CMSIS/Include/cmsis_gcc.h ****   #define __UNALIGNED_UINT32_READ(addr)          (((const struct T_UINT32_READ *)(const void *)(add
 109:Drivers/CMSIS/Include/cmsis_gcc.h **** #endif
ARM GAS  /var/folders/l4/6w9kflz11csb_6qsyz46nv3c0000gp/T//cccBIjak.s 			page 18


 110:Drivers/CMSIS/Include/cmsis_gcc.h **** #ifndef   __ALIGNED
 111:Drivers/CMSIS/Include/cmsis_gcc.h ****   #define __ALIGNED(x)                           __attribute__((aligned(x)))
 112:Drivers/CMSIS/Include/cmsis_gcc.h **** #endif
 113:Drivers/CMSIS/Include/cmsis_gcc.h **** #ifndef   __RESTRICT
 114:Drivers/CMSIS/Include/cmsis_gcc.h ****   #define __RESTRICT                             __restrict
 115:Drivers/CMSIS/Include/cmsis_gcc.h **** #endif
 116:Drivers/CMSIS/Include/cmsis_gcc.h **** #ifndef   __COMPILER_BARRIER
 117:Drivers/CMSIS/Include/cmsis_gcc.h ****   #define __COMPILER_BARRIER()                   __ASM volatile("":::"memory")
 118:Drivers/CMSIS/Include/cmsis_gcc.h **** #endif
 119:Drivers/CMSIS/Include/cmsis_gcc.h **** 
 120:Drivers/CMSIS/Include/cmsis_gcc.h **** /* #########################  Startup and Lowlevel Init  ######################## */
 121:Drivers/CMSIS/Include/cmsis_gcc.h **** 
 122:Drivers/CMSIS/Include/cmsis_gcc.h **** #ifndef __PROGRAM_START
 123:Drivers/CMSIS/Include/cmsis_gcc.h **** 
 124:Drivers/CMSIS/Include/cmsis_gcc.h **** /**
 125:Drivers/CMSIS/Include/cmsis_gcc.h ****   \brief   Initializes data and bss sections
 126:Drivers/CMSIS/Include/cmsis_gcc.h ****   \details This default implementations initialized all data and additional bss
 127:Drivers/CMSIS/Include/cmsis_gcc.h ****            sections relying on .copy.table and .zero.table specified properly
 128:Drivers/CMSIS/Include/cmsis_gcc.h ****            in the used linker script.
 129:Drivers/CMSIS/Include/cmsis_gcc.h ****   
 130:Drivers/CMSIS/Include/cmsis_gcc.h ****  */
 131:Drivers/CMSIS/Include/cmsis_gcc.h **** __STATIC_FORCEINLINE __NO_RETURN void __cmsis_start(void)
 132:Drivers/CMSIS/Include/cmsis_gcc.h **** {
 133:Drivers/CMSIS/Include/cmsis_gcc.h ****   extern void _start(void) __NO_RETURN;
 134:Drivers/CMSIS/Include/cmsis_gcc.h ****   
 135:Drivers/CMSIS/Include/cmsis_gcc.h ****   typedef struct {
 136:Drivers/CMSIS/Include/cmsis_gcc.h ****     uint32_t const* src;
 137:Drivers/CMSIS/Include/cmsis_gcc.h ****     uint32_t* dest;
 138:Drivers/CMSIS/Include/cmsis_gcc.h ****     uint32_t  wlen;
 139:Drivers/CMSIS/Include/cmsis_gcc.h ****   } __copy_table_t;
 140:Drivers/CMSIS/Include/cmsis_gcc.h ****   
 141:Drivers/CMSIS/Include/cmsis_gcc.h ****   typedef struct {
 142:Drivers/CMSIS/Include/cmsis_gcc.h ****     uint32_t* dest;
 143:Drivers/CMSIS/Include/cmsis_gcc.h ****     uint32_t  wlen;
 144:Drivers/CMSIS/Include/cmsis_gcc.h ****   } __zero_table_t;
 145:Drivers/CMSIS/Include/cmsis_gcc.h ****   
 146:Drivers/CMSIS/Include/cmsis_gcc.h ****   extern const __copy_table_t __copy_table_start__;
 147:Drivers/CMSIS/Include/cmsis_gcc.h ****   extern const __copy_table_t __copy_table_end__;
 148:Drivers/CMSIS/Include/cmsis_gcc.h ****   extern const __zero_table_t __zero_table_start__;
 149:Drivers/CMSIS/Include/cmsis_gcc.h ****   extern const __zero_table_t __zero_table_end__;
 150:Drivers/CMSIS/Include/cmsis_gcc.h **** 
 151:Drivers/CMSIS/Include/cmsis_gcc.h ****   for (__copy_table_t const* pTable = &__copy_table_start__; pTable < &__copy_table_end__; ++pTable
 152:Drivers/CMSIS/Include/cmsis_gcc.h ****     for(uint32_t i=0u; i<pTable->wlen; ++i) {
 153:Drivers/CMSIS/Include/cmsis_gcc.h ****       pTable->dest[i] = pTable->src[i];
 154:Drivers/CMSIS/Include/cmsis_gcc.h ****     }
 155:Drivers/CMSIS/Include/cmsis_gcc.h ****   }
 156:Drivers/CMSIS/Include/cmsis_gcc.h ****  
 157:Drivers/CMSIS/Include/cmsis_gcc.h ****   for (__zero_table_t const* pTable = &__zero_table_start__; pTable < &__zero_table_end__; ++pTable
 158:Drivers/CMSIS/Include/cmsis_gcc.h ****     for(uint32_t i=0u; i<pTable->wlen; ++i) {
 159:Drivers/CMSIS/Include/cmsis_gcc.h ****       pTable->dest[i] = 0u;
 160:Drivers/CMSIS/Include/cmsis_gcc.h ****     }
 161:Drivers/CMSIS/Include/cmsis_gcc.h ****   }
 162:Drivers/CMSIS/Include/cmsis_gcc.h ****  
 163:Drivers/CMSIS/Include/cmsis_gcc.h ****   _start();
 164:Drivers/CMSIS/Include/cmsis_gcc.h **** }
 165:Drivers/CMSIS/Include/cmsis_gcc.h ****   
 166:Drivers/CMSIS/Include/cmsis_gcc.h **** #define __PROGRAM_START           __cmsis_start
ARM GAS  /var/folders/l4/6w9kflz11csb_6qsyz46nv3c0000gp/T//cccBIjak.s 			page 19


 167:Drivers/CMSIS/Include/cmsis_gcc.h **** #endif
 168:Drivers/CMSIS/Include/cmsis_gcc.h **** 
 169:Drivers/CMSIS/Include/cmsis_gcc.h **** #ifndef __INITIAL_SP
 170:Drivers/CMSIS/Include/cmsis_gcc.h **** #define __INITIAL_SP              __StackTop
 171:Drivers/CMSIS/Include/cmsis_gcc.h **** #endif
 172:Drivers/CMSIS/Include/cmsis_gcc.h **** 
 173:Drivers/CMSIS/Include/cmsis_gcc.h **** #ifndef __STACK_LIMIT
 174:Drivers/CMSIS/Include/cmsis_gcc.h **** #define __STACK_LIMIT             __StackLimit
 175:Drivers/CMSIS/Include/cmsis_gcc.h **** #endif
 176:Drivers/CMSIS/Include/cmsis_gcc.h **** 
 177:Drivers/CMSIS/Include/cmsis_gcc.h **** #ifndef __VECTOR_TABLE
 178:Drivers/CMSIS/Include/cmsis_gcc.h **** #define __VECTOR_TABLE            __Vectors
 179:Drivers/CMSIS/Include/cmsis_gcc.h **** #endif
 180:Drivers/CMSIS/Include/cmsis_gcc.h **** 
 181:Drivers/CMSIS/Include/cmsis_gcc.h **** #ifndef __VECTOR_TABLE_ATTRIBUTE
 182:Drivers/CMSIS/Include/cmsis_gcc.h **** #define __VECTOR_TABLE_ATTRIBUTE  __attribute((used, section(".vectors")))
 183:Drivers/CMSIS/Include/cmsis_gcc.h **** #endif
 184:Drivers/CMSIS/Include/cmsis_gcc.h **** 
 185:Drivers/CMSIS/Include/cmsis_gcc.h **** /* ###########################  Core Function Access  ########################### */
 186:Drivers/CMSIS/Include/cmsis_gcc.h **** /** \ingroup  CMSIS_Core_FunctionInterface
 187:Drivers/CMSIS/Include/cmsis_gcc.h ****     \defgroup CMSIS_Core_RegAccFunctions CMSIS Core Register Access Functions
 188:Drivers/CMSIS/Include/cmsis_gcc.h ****   @{
 189:Drivers/CMSIS/Include/cmsis_gcc.h ****  */
 190:Drivers/CMSIS/Include/cmsis_gcc.h **** 
 191:Drivers/CMSIS/Include/cmsis_gcc.h **** /**
 192:Drivers/CMSIS/Include/cmsis_gcc.h ****   \brief   Enable IRQ Interrupts
 193:Drivers/CMSIS/Include/cmsis_gcc.h ****   \details Enables IRQ interrupts by clearing the I-bit in the CPSR.
 194:Drivers/CMSIS/Include/cmsis_gcc.h ****            Can only be executed in Privileged modes.
 195:Drivers/CMSIS/Include/cmsis_gcc.h ****  */
 196:Drivers/CMSIS/Include/cmsis_gcc.h **** __STATIC_FORCEINLINE void __enable_irq(void)
 197:Drivers/CMSIS/Include/cmsis_gcc.h **** {
 198:Drivers/CMSIS/Include/cmsis_gcc.h ****   __ASM volatile ("cpsie i" : : : "memory");
 199:Drivers/CMSIS/Include/cmsis_gcc.h **** }
 200:Drivers/CMSIS/Include/cmsis_gcc.h **** 
 201:Drivers/CMSIS/Include/cmsis_gcc.h **** 
 202:Drivers/CMSIS/Include/cmsis_gcc.h **** /**
 203:Drivers/CMSIS/Include/cmsis_gcc.h ****   \brief   Disable IRQ Interrupts
 204:Drivers/CMSIS/Include/cmsis_gcc.h ****   \details Disables IRQ interrupts by setting the I-bit in the CPSR.
 205:Drivers/CMSIS/Include/cmsis_gcc.h ****            Can only be executed in Privileged modes.
 206:Drivers/CMSIS/Include/cmsis_gcc.h ****  */
 207:Drivers/CMSIS/Include/cmsis_gcc.h **** __STATIC_FORCEINLINE void __disable_irq(void)
 422              		.loc 2 207 27 view .LVU107
 423              	.LBB19:
 208:Drivers/CMSIS/Include/cmsis_gcc.h **** {
 209:Drivers/CMSIS/Include/cmsis_gcc.h ****   __ASM volatile ("cpsid i" : : : "memory");
 424              		.loc 2 209 3 view .LVU108
 425              		.syntax unified
 426              	@ 209 "Drivers/CMSIS/Include/cmsis_gcc.h" 1
 427 0000 72B6     		cpsid i
 428              	@ 0 "" 2
 429              		.thumb
 430              		.syntax unified
 431              	.L27:
 432              	.LBE19:
 433              	.LBE18:
 421:Core/Src/main.c ****   while (1)
 434              		.loc 1 421 3 view .LVU109
ARM GAS  /var/folders/l4/6w9kflz11csb_6qsyz46nv3c0000gp/T//cccBIjak.s 			page 20


 422:Core/Src/main.c ****   {
 423:Core/Src/main.c ****   }
 435              		.loc 1 423 3 view .LVU110
 421:Core/Src/main.c ****   while (1)
 436              		.loc 1 421 9 view .LVU111
 437 0002 FEE7     		b	.L27
 438              		.cfi_endproc
 439              	.LFE151:
 441              		.section	.text.MX_LTDC_Init,"ax",%progbits
 442              		.align	1
 443              		.syntax unified
 444              		.thumb
 445              		.thumb_func
 447              	MX_LTDC_Init:
 448              	.LFB146:
 227:Core/Src/main.c **** 
 449              		.loc 1 227 1 view -0
 450              		.cfi_startproc
 451              		@ args = 0, pretend = 0, frame = 56
 452              		@ frame_needed = 0, uses_anonymous_args = 0
 453 0000 00B5     		push	{lr}
 454              		.cfi_def_cfa_offset 4
 455              		.cfi_offset 14, -4
 456 0002 8FB0     		sub	sp, sp, #60
 457              		.cfi_def_cfa_offset 64
 233:Core/Src/main.c **** 
 458              		.loc 1 233 3 view .LVU113
 233:Core/Src/main.c **** 
 459              		.loc 1 233 24 is_stmt 0 view .LVU114
 460 0004 3422     		movs	r2, #52
 461 0006 0021     		movs	r1, #0
 462 0008 01A8     		add	r0, sp, #4
 463 000a FFF7FEFF 		bl	memset
 464              	.LVL19:
 239:Core/Src/main.c ****   hltdc.Init.HSPolarity = LTDC_HSPOLARITY_AL;
 465              		.loc 1 239 3 is_stmt 1 view .LVU115
 239:Core/Src/main.c ****   hltdc.Init.HSPolarity = LTDC_HSPOLARITY_AL;
 466              		.loc 1 239 18 is_stmt 0 view .LVU116
 467 000e 3248     		ldr	r0, .L36
 468 0010 324B     		ldr	r3, .L36+4
 469 0012 0360     		str	r3, [r0]
 240:Core/Src/main.c ****   hltdc.Init.VSPolarity = LTDC_VSPOLARITY_AL;
 470              		.loc 1 240 3 is_stmt 1 view .LVU117
 240:Core/Src/main.c ****   hltdc.Init.VSPolarity = LTDC_VSPOLARITY_AL;
 471              		.loc 1 240 25 is_stmt 0 view .LVU118
 472 0014 0023     		movs	r3, #0
 473 0016 4360     		str	r3, [r0, #4]
 241:Core/Src/main.c ****   hltdc.Init.DEPolarity = LTDC_DEPOLARITY_AL;
 474              		.loc 1 241 3 is_stmt 1 view .LVU119
 241:Core/Src/main.c ****   hltdc.Init.DEPolarity = LTDC_DEPOLARITY_AL;
 475              		.loc 1 241 25 is_stmt 0 view .LVU120
 476 0018 8360     		str	r3, [r0, #8]
 242:Core/Src/main.c ****   hltdc.Init.PCPolarity = LTDC_PCPOLARITY_IPC;
 477              		.loc 1 242 3 is_stmt 1 view .LVU121
 242:Core/Src/main.c ****   hltdc.Init.PCPolarity = LTDC_PCPOLARITY_IPC;
 478              		.loc 1 242 25 is_stmt 0 view .LVU122
 479 001a C360     		str	r3, [r0, #12]
ARM GAS  /var/folders/l4/6w9kflz11csb_6qsyz46nv3c0000gp/T//cccBIjak.s 			page 21


 243:Core/Src/main.c ****   hltdc.Init.HorizontalSync = H_SYNC_WIDTH - 1;
 480              		.loc 1 243 3 is_stmt 1 view .LVU123
 243:Core/Src/main.c ****   hltdc.Init.HorizontalSync = H_SYNC_WIDTH - 1;
 481              		.loc 1 243 25 is_stmt 0 view .LVU124
 482 001c 0361     		str	r3, [r0, #16]
 244:Core/Src/main.c ****   hltdc.Init.VerticalSync = V_SYNC_WIDTH - 1;
 483              		.loc 1 244 3 is_stmt 1 view .LVU125
 244:Core/Src/main.c ****   hltdc.Init.VerticalSync = V_SYNC_WIDTH - 1;
 484              		.loc 1 244 29 is_stmt 0 view .LVU126
 485 001e 40F2E732 		movw	r2, #999
 486 0022 4261     		str	r2, [r0, #20]
 245:Core/Src/main.c ****   hltdc.Init.AccumulatedHBP = H_SYNC_WIDTH + H_BACK_PORCH - 1;
 487              		.loc 1 245 3 is_stmt 1 view .LVU127
 245:Core/Src/main.c ****   hltdc.Init.AccumulatedHBP = H_SYNC_WIDTH + H_BACK_PORCH - 1;
 488              		.loc 1 245 27 is_stmt 0 view .LVU128
 489 0024 1D22     		movs	r2, #29
 490 0026 8261     		str	r2, [r0, #24]
 246:Core/Src/main.c ****   hltdc.Init.AccumulatedVBP = V_SYNC_WIDTH + V_BACK_PORCH - 1;
 491              		.loc 1 246 3 is_stmt 1 view .LVU129
 246:Core/Src/main.c ****   hltdc.Init.AccumulatedVBP = V_SYNC_WIDTH + V_BACK_PORCH - 1;
 492              		.loc 1 246 29 is_stmt 0 view .LVU130
 493 0028 40F2CF72 		movw	r2, #1999
 494 002c C261     		str	r2, [r0, #28]
 247:Core/Src/main.c ****   hltdc.Init.AccumulatedActiveW = H_SYNC_WIDTH + H_BACK_PORCH + LCD_ACTIVE_WIDTH - 1;
 495              		.loc 1 247 3 is_stmt 1 view .LVU131
 247:Core/Src/main.c ****   hltdc.Init.AccumulatedActiveW = H_SYNC_WIDTH + H_BACK_PORCH + LCD_ACTIVE_WIDTH - 1;
 496              		.loc 1 247 29 is_stmt 0 view .LVU132
 497 002e 3B22     		movs	r2, #59
 498 0030 0262     		str	r2, [r0, #32]
 248:Core/Src/main.c ****   hltdc.Init.AccumulatedActiveH = V_SYNC_WIDTH + V_BACK_PORCH + LCD_ACTIVE_HEIGHT - 1;
 499              		.loc 1 248 3 is_stmt 1 view .LVU133
 248:Core/Src/main.c ****   hltdc.Init.AccumulatedActiveH = V_SYNC_WIDTH + V_BACK_PORCH + LCD_ACTIVE_HEIGHT - 1;
 500              		.loc 1 248 33 is_stmt 0 view .LVU134
 501 0032 40F6CF42 		movw	r2, #3279
 502 0036 4262     		str	r2, [r0, #36]
 249:Core/Src/main.c ****   hltdc.Init.TotalWidth = H_TOTAL - 1;
 503              		.loc 1 249 3 is_stmt 1 view .LVU135
 249:Core/Src/main.c ****   hltdc.Init.TotalWidth = H_TOTAL - 1;
 504              		.loc 1 249 33 is_stmt 0 view .LVU136
 505 0038 40F69B12 		movw	r2, #2459
 506 003c 8262     		str	r2, [r0, #40]
 250:Core/Src/main.c ****   hltdc.Init.TotalHeigh = V_TOTAL - 1;
 507              		.loc 1 250 3 is_stmt 1 view .LVU137
 250:Core/Src/main.c ****   hltdc.Init.TotalHeigh = V_TOTAL - 1;
 508              		.loc 1 250 25 is_stmt 0 view .LVU138
 509 003e 40F69F72 		movw	r2, #3999
 510 0042 C262     		str	r2, [r0, #44]
 251:Core/Src/main.c ****   hltdc.Init.Backcolor.Blue = 0;
 511              		.loc 1 251 3 is_stmt 1 view .LVU139
 251:Core/Src/main.c ****   hltdc.Init.Backcolor.Blue = 0;
 512              		.loc 1 251 25 is_stmt 0 view .LVU140
 513 0044 40F6C312 		movw	r2, #2499
 514 0048 0263     		str	r2, [r0, #48]
 252:Core/Src/main.c ****   hltdc.Init.Backcolor.Green = 0;
 515              		.loc 1 252 3 is_stmt 1 view .LVU141
 252:Core/Src/main.c ****   hltdc.Init.Backcolor.Green = 0;
 516              		.loc 1 252 29 is_stmt 0 view .LVU142
ARM GAS  /var/folders/l4/6w9kflz11csb_6qsyz46nv3c0000gp/T//cccBIjak.s 			page 22


 517 004a 80F83430 		strb	r3, [r0, #52]
 253:Core/Src/main.c ****   hltdc.Init.Backcolor.Red = 0;
 518              		.loc 1 253 3 is_stmt 1 view .LVU143
 253:Core/Src/main.c ****   hltdc.Init.Backcolor.Red = 0;
 519              		.loc 1 253 30 is_stmt 0 view .LVU144
 520 004e 80F83530 		strb	r3, [r0, #53]
 254:Core/Src/main.c ****   if (HAL_LTDC_Init(&hltdc) != HAL_OK)
 521              		.loc 1 254 3 is_stmt 1 view .LVU145
 254:Core/Src/main.c ****   if (HAL_LTDC_Init(&hltdc) != HAL_OK)
 522              		.loc 1 254 28 is_stmt 0 view .LVU146
 523 0052 80F83630 		strb	r3, [r0, #54]
 255:Core/Src/main.c ****   {
 524              		.loc 1 255 3 is_stmt 1 view .LVU147
 255:Core/Src/main.c ****   {
 525              		.loc 1 255 7 is_stmt 0 view .LVU148
 526 0056 FFF7FEFF 		bl	HAL_LTDC_Init
 527              	.LVL20:
 255:Core/Src/main.c ****   {
 528              		.loc 1 255 6 discriminator 1 view .LVU149
 529 005a 20BB     		cbnz	r0, .L34
 259:Core/Src/main.c ****   pLayerCfg.WindowX1 = LCD_ACTIVE_WIDTH;
 530              		.loc 1 259 3 is_stmt 1 view .LVU150
 259:Core/Src/main.c ****   pLayerCfg.WindowX1 = LCD_ACTIVE_WIDTH;
 531              		.loc 1 259 22 is_stmt 0 view .LVU151
 532 005c 0023     		movs	r3, #0
 533 005e 0193     		str	r3, [sp, #4]
 260:Core/Src/main.c ****   pLayerCfg.WindowY0 = 0;
 534              		.loc 1 260 3 is_stmt 1 view .LVU152
 260:Core/Src/main.c ****   pLayerCfg.WindowY0 = 0;
 535              		.loc 1 260 22 is_stmt 0 view .LVU153
 536 0060 4FF4A061 		mov	r1, #1280
 537 0064 0291     		str	r1, [sp, #8]
 261:Core/Src/main.c ****   pLayerCfg.WindowY1 = LCD_ACTIVE_HEIGHT;
 538              		.loc 1 261 3 is_stmt 1 view .LVU154
 261:Core/Src/main.c ****   pLayerCfg.WindowY1 = LCD_ACTIVE_HEIGHT;
 539              		.loc 1 261 22 is_stmt 0 view .LVU155
 540 0066 0393     		str	r3, [sp, #12]
 262:Core/Src/main.c ****   pLayerCfg.PixelFormat = LTDC_PIXEL_FORMAT_L8;
 541              		.loc 1 262 3 is_stmt 1 view .LVU156
 262:Core/Src/main.c ****   pLayerCfg.PixelFormat = LTDC_PIXEL_FORMAT_L8;
 542              		.loc 1 262 22 is_stmt 0 view .LVU157
 543 0068 4FF41662 		mov	r2, #2400
 544 006c 0492     		str	r2, [sp, #16]
 263:Core/Src/main.c ****   pLayerCfg.Alpha = 255;
 545              		.loc 1 263 3 is_stmt 1 view .LVU158
 263:Core/Src/main.c ****   pLayerCfg.Alpha = 255;
 546              		.loc 1 263 25 is_stmt 0 view .LVU159
 547 006e 0520     		movs	r0, #5
 548 0070 0590     		str	r0, [sp, #20]
 264:Core/Src/main.c ****   pLayerCfg.Alpha0 = 0;
 549              		.loc 1 264 3 is_stmt 1 view .LVU160
 264:Core/Src/main.c ****   pLayerCfg.Alpha0 = 0;
 550              		.loc 1 264 19 is_stmt 0 view .LVU161
 551 0072 FF20     		movs	r0, #255
 552 0074 0690     		str	r0, [sp, #24]
 265:Core/Src/main.c ****   pLayerCfg.BlendingFactor1 = LTDC_BLENDING_FACTOR1_PAxCA;
 553              		.loc 1 265 3 is_stmt 1 view .LVU162
ARM GAS  /var/folders/l4/6w9kflz11csb_6qsyz46nv3c0000gp/T//cccBIjak.s 			page 23


 265:Core/Src/main.c ****   pLayerCfg.BlendingFactor1 = LTDC_BLENDING_FACTOR1_PAxCA;
 554              		.loc 1 265 20 is_stmt 0 view .LVU163
 555 0076 0793     		str	r3, [sp, #28]
 266:Core/Src/main.c ****   pLayerCfg.BlendingFactor2 = LTDC_BLENDING_FACTOR2_PAxCA;
 556              		.loc 1 266 3 is_stmt 1 view .LVU164
 266:Core/Src/main.c ****   pLayerCfg.BlendingFactor2 = LTDC_BLENDING_FACTOR2_PAxCA;
 557              		.loc 1 266 29 is_stmt 0 view .LVU165
 558 0078 4FF4C060 		mov	r0, #1536
 559 007c 0890     		str	r0, [sp, #32]
 267:Core/Src/main.c ****   pLayerCfg.FBStartAdress = (uint32_t)buffer0;
 560              		.loc 1 267 3 is_stmt 1 view .LVU166
 267:Core/Src/main.c ****   pLayerCfg.FBStartAdress = (uint32_t)buffer0;
 561              		.loc 1 267 29 is_stmt 0 view .LVU167
 562 007e 0720     		movs	r0, #7
 563 0080 0990     		str	r0, [sp, #36]
 268:Core/Src/main.c ****   pLayerCfg.ImageWidth = LCD_ACTIVE_WIDTH;
 564              		.loc 1 268 3 is_stmt 1 view .LVU168
 268:Core/Src/main.c ****   pLayerCfg.ImageWidth = LCD_ACTIVE_WIDTH;
 565              		.loc 1 268 29 is_stmt 0 view .LVU169
 566 0082 1748     		ldr	r0, .L36+8
 268:Core/Src/main.c ****   pLayerCfg.ImageWidth = LCD_ACTIVE_WIDTH;
 567              		.loc 1 268 27 view .LVU170
 568 0084 0A90     		str	r0, [sp, #40]
 269:Core/Src/main.c ****   pLayerCfg.ImageHeight = LCD_ACTIVE_HEIGHT;
 569              		.loc 1 269 3 is_stmt 1 view .LVU171
 269:Core/Src/main.c ****   pLayerCfg.ImageHeight = LCD_ACTIVE_HEIGHT;
 570              		.loc 1 269 24 is_stmt 0 view .LVU172
 571 0086 0B91     		str	r1, [sp, #44]
 270:Core/Src/main.c ****   pLayerCfg.Backcolor.Blue = 0;
 572              		.loc 1 270 3 is_stmt 1 view .LVU173
 270:Core/Src/main.c ****   pLayerCfg.Backcolor.Blue = 0;
 573              		.loc 1 270 25 is_stmt 0 view .LVU174
 574 0088 0C92     		str	r2, [sp, #48]
 271:Core/Src/main.c ****   pLayerCfg.Backcolor.Green = 0;
 575              		.loc 1 271 3 is_stmt 1 view .LVU175
 271:Core/Src/main.c ****   pLayerCfg.Backcolor.Green = 0;
 576              		.loc 1 271 28 is_stmt 0 view .LVU176
 577 008a 8DF83430 		strb	r3, [sp, #52]
 272:Core/Src/main.c ****   pLayerCfg.Backcolor.Red = 0;
 578              		.loc 1 272 3 is_stmt 1 view .LVU177
 272:Core/Src/main.c ****   pLayerCfg.Backcolor.Red = 0;
 579              		.loc 1 272 29 is_stmt 0 view .LVU178
 580 008e 8DF83530 		strb	r3, [sp, #53]
 273:Core/Src/main.c ****   if (HAL_LTDC_ConfigLayer(&hltdc, &pLayerCfg, 1) != HAL_OK)
 581              		.loc 1 273 3 is_stmt 1 view .LVU179
 273:Core/Src/main.c ****   if (HAL_LTDC_ConfigLayer(&hltdc, &pLayerCfg, 1) != HAL_OK)
 582              		.loc 1 273 27 is_stmt 0 view .LVU180
 583 0092 8DF83630 		strb	r3, [sp, #54]
 274:Core/Src/main.c ****   {
 584              		.loc 1 274 3 is_stmt 1 view .LVU181
 274:Core/Src/main.c ****   {
 585              		.loc 1 274 7 is_stmt 0 view .LVU182
 586 0096 0122     		movs	r2, #1
 587 0098 01A9     		add	r1, sp, #4
 588 009a 0F48     		ldr	r0, .L36
 589 009c FFF7FEFF 		bl	HAL_LTDC_ConfigLayer
 590              	.LVL21:
ARM GAS  /var/folders/l4/6w9kflz11csb_6qsyz46nv3c0000gp/T//cccBIjak.s 			page 24


 274:Core/Src/main.c ****   {
 591              		.loc 1 274 6 discriminator 1 view .LVU183
 592 00a0 18B9     		cbnz	r0, .L35
 593              	.LBB20:
 279:Core/Src/main.c ****     clut[i] = i << 16 | i << 8 | i; 
 594              		.loc 1 279 11 view .LVU184
 595 00a2 0023     		movs	r3, #0
 596 00a4 0BE0     		b	.L30
 597              	.L34:
 598              	.LBE20:
 257:Core/Src/main.c ****   }
 599              		.loc 1 257 5 is_stmt 1 view .LVU185
 600 00a6 FFF7FEFF 		bl	Error_Handler
 601              	.LVL22:
 602              	.L35:
 276:Core/Src/main.c ****   }
 603              		.loc 1 276 5 view .LVU186
 604 00aa FFF7FEFF 		bl	Error_Handler
 605              	.LVL23:
 606              	.L31:
 607              	.LBB21:
 280:Core/Src/main.c ****   }
 608              		.loc 1 280 5 view .LVU187
 280:Core/Src/main.c ****   }
 609              		.loc 1 280 27 is_stmt 0 view .LVU188
 610 00ae 1A02     		lsls	r2, r3, #8
 280:Core/Src/main.c ****   }
 611              		.loc 1 280 23 view .LVU189
 612 00b0 42EA0342 		orr	r2, r2, r3, lsl #16
 280:Core/Src/main.c ****   }
 613              		.loc 1 280 32 view .LVU190
 614 00b4 1A43     		orrs	r2, r2, r3
 280:Core/Src/main.c ****   }
 615              		.loc 1 280 13 view .LVU191
 616 00b6 0B49     		ldr	r1, .L36+12
 617 00b8 41F82320 		str	r2, [r1, r3, lsl #2]
 279:Core/Src/main.c ****     clut[i] = i << 16 | i << 8 | i; 
 618              		.loc 1 279 29 is_stmt 1 discriminator 3 view .LVU192
 619 00bc 0133     		adds	r3, r3, #1
 620              	.LVL24:
 621              	.L30:
 279:Core/Src/main.c ****     clut[i] = i << 16 | i << 8 | i; 
 622              		.loc 1 279 21 discriminator 1 view .LVU193
 623 00be FF2B     		cmp	r3, #255
 624 00c0 F5DD     		ble	.L31
 625              	.LBE21:
 282:Core/Src/main.c ****   /* USER CODE END LTDC_Init 2 */
 626              		.loc 1 282 3 view .LVU194
 627 00c2 0023     		movs	r3, #0
 628              	.LVL25:
 282:Core/Src/main.c ****   /* USER CODE END LTDC_Init 2 */
 629              		.loc 1 282 3 is_stmt 0 view .LVU195
 630 00c4 4FF48072 		mov	r2, #256
 631 00c8 0649     		ldr	r1, .L36+12
 632 00ca 0348     		ldr	r0, .L36
 633 00cc FFF7FEFF 		bl	HAL_LTDC_ConfigCLUT
 634              	.LVL26:
ARM GAS  /var/folders/l4/6w9kflz11csb_6qsyz46nv3c0000gp/T//cccBIjak.s 			page 25


 285:Core/Src/main.c **** 
 635              		.loc 1 285 1 view .LVU196
 636 00d0 0FB0     		add	sp, sp, #60
 637              		.cfi_def_cfa_offset 4
 638              		@ sp needed
 639 00d2 5DF804FB 		ldr	pc, [sp], #4
 640              	.L37:
 641 00d6 00BF     		.align	2
 642              	.L36:
 643 00d8 00000000 		.word	hltdc
 644 00dc 00100050 		.word	1342181376
 645 00e0 00E80300 		.word	buffer0
 646 00e4 00000000 		.word	clut
 647              		.cfi_endproc
 648              	.LFE146:
 650              		.section	.text.SystemClock_Config,"ax",%progbits
 651              		.align	1
 652              		.global	SystemClock_Config
 653              		.syntax unified
 654              		.thumb
 655              		.thumb_func
 657              	SystemClock_Config:
 658              	.LFB145:
 167:Core/Src/main.c ****   RCC_OscInitTypeDef RCC_OscInitStruct = {0};
 659              		.loc 1 167 1 is_stmt 1 view -0
 660              		.cfi_startproc
 661              		@ args = 0, pretend = 0, frame = 112
 662              		@ frame_needed = 0, uses_anonymous_args = 0
 663 0000 00B5     		push	{lr}
 664              		.cfi_def_cfa_offset 4
 665              		.cfi_offset 14, -4
 666 0002 9DB0     		sub	sp, sp, #116
 667              		.cfi_def_cfa_offset 120
 168:Core/Src/main.c ****   RCC_ClkInitTypeDef RCC_ClkInitStruct = {0};
 668              		.loc 1 168 3 view .LVU198
 168:Core/Src/main.c ****   RCC_ClkInitTypeDef RCC_ClkInitStruct = {0};
 669              		.loc 1 168 22 is_stmt 0 view .LVU199
 670 0004 4C22     		movs	r2, #76
 671 0006 0021     		movs	r1, #0
 672 0008 09A8     		add	r0, sp, #36
 673 000a FFF7FEFF 		bl	memset
 674              	.LVL27:
 169:Core/Src/main.c **** 
 675              		.loc 1 169 3 is_stmt 1 view .LVU200
 169:Core/Src/main.c **** 
 676              		.loc 1 169 22 is_stmt 0 view .LVU201
 677 000e 2022     		movs	r2, #32
 678 0010 0021     		movs	r1, #0
 679 0012 01A8     		add	r0, sp, #4
 680 0014 FFF7FEFF 		bl	memset
 681              	.LVL28:
 173:Core/Src/main.c **** 
 682              		.loc 1 173 3 is_stmt 1 view .LVU202
 683 0018 0220     		movs	r0, #2
 684 001a FFF7FEFF 		bl	HAL_PWREx_ConfigSupply
 685              	.LVL29:
 177:Core/Src/main.c **** 
ARM GAS  /var/folders/l4/6w9kflz11csb_6qsyz46nv3c0000gp/T//cccBIjak.s 			page 26


 686              		.loc 1 177 3 view .LVU203
 687              	.LBB22:
 177:Core/Src/main.c **** 
 688              		.loc 1 177 3 view .LVU204
 689 001e 0023     		movs	r3, #0
 690 0020 0093     		str	r3, [sp]
 177:Core/Src/main.c **** 
 691              		.loc 1 177 3 view .LVU205
 177:Core/Src/main.c **** 
 692              		.loc 1 177 3 discriminator 2 view .LVU206
 693 0022 264B     		ldr	r3, .L45
 694 0024 DA6A     		ldr	r2, [r3, #44]
 695 0026 22F00102 		bic	r2, r2, #1
 696 002a DA62     		str	r2, [r3, #44]
 177:Core/Src/main.c **** 
 697              		.loc 1 177 3 view .LVU207
 177:Core/Src/main.c **** 
 698              		.loc 1 177 3 is_stmt 0 discriminator 2 view .LVU208
 699 002c DB6A     		ldr	r3, [r3, #44]
 700 002e 03F00103 		and	r3, r3, #1
 701 0032 0093     		str	r3, [sp]
 177:Core/Src/main.c **** 
 702              		.loc 1 177 3 is_stmt 1 view .LVU209
 177:Core/Src/main.c **** 
 703              		.loc 1 177 3 is_stmt 0 discriminator 2 view .LVU210
 704 0034 224B     		ldr	r3, .L45+4
 705 0036 9A69     		ldr	r2, [r3, #24]
 706 0038 42F44042 		orr	r2, r2, #49152
 707 003c 9A61     		str	r2, [r3, #24]
 177:Core/Src/main.c **** 
 708              		.loc 1 177 3 is_stmt 1 view .LVU211
 177:Core/Src/main.c **** 
 709              		.loc 1 177 3 is_stmt 0 discriminator 2 view .LVU212
 710 003e 9B69     		ldr	r3, [r3, #24]
 711 0040 03F44043 		and	r3, r3, #49152
 712 0044 0093     		str	r3, [sp]
 177:Core/Src/main.c **** 
 713              		.loc 1 177 3 is_stmt 1 discriminator 4 view .LVU213
 714 0046 009B     		ldr	r3, [sp]
 715              	.LBE22:
 177:Core/Src/main.c **** 
 716              		.loc 1 177 3 view .LVU214
 179:Core/Src/main.c **** 
 717              		.loc 1 179 3 view .LVU215
 718              	.L39:
 179:Core/Src/main.c **** 
 719              		.loc 1 179 48 discriminator 1 view .LVU216
 179:Core/Src/main.c **** 
 720              		.loc 1 179 9 discriminator 1 view .LVU217
 179:Core/Src/main.c **** 
 721              		.loc 1 179 10 is_stmt 0 discriminator 1 view .LVU218
 722 0048 1D4B     		ldr	r3, .L45+4
 723 004a 9B69     		ldr	r3, [r3, #24]
 179:Core/Src/main.c **** 
 724              		.loc 1 179 9 discriminator 1 view .LVU219
 725 004c 13F4005F 		tst	r3, #8192
 726 0050 FAD0     		beq	.L39
ARM GAS  /var/folders/l4/6w9kflz11csb_6qsyz46nv3c0000gp/T//cccBIjak.s 			page 27


 184:Core/Src/main.c ****   RCC_OscInitStruct.HSIState = RCC_HSI_DIV1;
 727              		.loc 1 184 3 is_stmt 1 view .LVU220
 184:Core/Src/main.c ****   RCC_OscInitStruct.HSIState = RCC_HSI_DIV1;
 728              		.loc 1 184 36 is_stmt 0 view .LVU221
 729 0052 0223     		movs	r3, #2
 730 0054 0993     		str	r3, [sp, #36]
 185:Core/Src/main.c ****   RCC_OscInitStruct.HSICalibrationValue = RCC_HSICALIBRATION_DEFAULT;
 731              		.loc 1 185 3 is_stmt 1 view .LVU222
 185:Core/Src/main.c ****   RCC_OscInitStruct.HSICalibrationValue = RCC_HSICALIBRATION_DEFAULT;
 732              		.loc 1 185 30 is_stmt 0 view .LVU223
 733 0056 0122     		movs	r2, #1
 734 0058 0C92     		str	r2, [sp, #48]
 186:Core/Src/main.c ****   RCC_OscInitStruct.PLL.PLLState = RCC_PLL_ON;
 735              		.loc 1 186 3 is_stmt 1 view .LVU224
 186:Core/Src/main.c ****   RCC_OscInitStruct.PLL.PLLState = RCC_PLL_ON;
 736              		.loc 1 186 41 is_stmt 0 view .LVU225
 737 005a 4022     		movs	r2, #64
 738 005c 0D92     		str	r2, [sp, #52]
 187:Core/Src/main.c ****   RCC_OscInitStruct.PLL.PLLSource = RCC_PLLSOURCE_HSI;
 739              		.loc 1 187 3 is_stmt 1 view .LVU226
 187:Core/Src/main.c ****   RCC_OscInitStruct.PLL.PLLSource = RCC_PLLSOURCE_HSI;
 740              		.loc 1 187 34 is_stmt 0 view .LVU227
 741 005e 1293     		str	r3, [sp, #72]
 188:Core/Src/main.c ****   RCC_OscInitStruct.PLL.PLLM = 32;
 742              		.loc 1 188 3 is_stmt 1 view .LVU228
 188:Core/Src/main.c ****   RCC_OscInitStruct.PLL.PLLM = 32;
 743              		.loc 1 188 35 is_stmt 0 view .LVU229
 744 0060 0022     		movs	r2, #0
 745 0062 1392     		str	r2, [sp, #76]
 189:Core/Src/main.c ****   RCC_OscInitStruct.PLL.PLLN = 400;
 746              		.loc 1 189 3 is_stmt 1 view .LVU230
 189:Core/Src/main.c ****   RCC_OscInitStruct.PLL.PLLN = 400;
 747              		.loc 1 189 30 is_stmt 0 view .LVU231
 748 0064 2021     		movs	r1, #32
 749 0066 1491     		str	r1, [sp, #80]
 190:Core/Src/main.c ****   RCC_OscInitStruct.PLL.PLLP = 2;
 750              		.loc 1 190 3 is_stmt 1 view .LVU232
 190:Core/Src/main.c ****   RCC_OscInitStruct.PLL.PLLP = 2;
 751              		.loc 1 190 30 is_stmt 0 view .LVU233
 752 0068 4FF4C871 		mov	r1, #400
 753 006c 1591     		str	r1, [sp, #84]
 191:Core/Src/main.c ****   RCC_OscInitStruct.PLL.PLLQ = 2;
 754              		.loc 1 191 3 is_stmt 1 view .LVU234
 191:Core/Src/main.c ****   RCC_OscInitStruct.PLL.PLLQ = 2;
 755              		.loc 1 191 30 is_stmt 0 view .LVU235
 756 006e 1693     		str	r3, [sp, #88]
 192:Core/Src/main.c ****   RCC_OscInitStruct.PLL.PLLR = 2;
 757              		.loc 1 192 3 is_stmt 1 view .LVU236
 192:Core/Src/main.c ****   RCC_OscInitStruct.PLL.PLLR = 2;
 758              		.loc 1 192 30 is_stmt 0 view .LVU237
 759 0070 1793     		str	r3, [sp, #92]
 193:Core/Src/main.c ****   RCC_OscInitStruct.PLL.PLLRGE = RCC_PLL1VCIRANGE_1;
 760              		.loc 1 193 3 is_stmt 1 view .LVU238
 193:Core/Src/main.c ****   RCC_OscInitStruct.PLL.PLLRGE = RCC_PLL1VCIRANGE_1;
 761              		.loc 1 193 30 is_stmt 0 view .LVU239
 762 0072 1893     		str	r3, [sp, #96]
 194:Core/Src/main.c ****   RCC_OscInitStruct.PLL.PLLVCOSEL = RCC_PLL1VCOWIDE;
ARM GAS  /var/folders/l4/6w9kflz11csb_6qsyz46nv3c0000gp/T//cccBIjak.s 			page 28


 763              		.loc 1 194 3 is_stmt 1 view .LVU240
 194:Core/Src/main.c ****   RCC_OscInitStruct.PLL.PLLVCOSEL = RCC_PLL1VCOWIDE;
 764              		.loc 1 194 32 is_stmt 0 view .LVU241
 765 0074 0423     		movs	r3, #4
 766 0076 1993     		str	r3, [sp, #100]
 195:Core/Src/main.c ****   RCC_OscInitStruct.PLL.PLLFRACN = 0;
 767              		.loc 1 195 3 is_stmt 1 view .LVU242
 195:Core/Src/main.c ****   RCC_OscInitStruct.PLL.PLLFRACN = 0;
 768              		.loc 1 195 35 is_stmt 0 view .LVU243
 769 0078 1A92     		str	r2, [sp, #104]
 196:Core/Src/main.c ****   if (HAL_RCC_OscConfig(&RCC_OscInitStruct) != HAL_OK)
 770              		.loc 1 196 3 is_stmt 1 view .LVU244
 196:Core/Src/main.c ****   if (HAL_RCC_OscConfig(&RCC_OscInitStruct) != HAL_OK)
 771              		.loc 1 196 34 is_stmt 0 view .LVU245
 772 007a 1B92     		str	r2, [sp, #108]
 197:Core/Src/main.c ****   {
 773              		.loc 1 197 3 is_stmt 1 view .LVU246
 197:Core/Src/main.c ****   {
 774              		.loc 1 197 7 is_stmt 0 view .LVU247
 775 007c 09A8     		add	r0, sp, #36
 776 007e FFF7FEFF 		bl	HAL_RCC_OscConfig
 777              	.LVL30:
 197:Core/Src/main.c ****   {
 778              		.loc 1 197 6 discriminator 1 view .LVU248
 779 0082 B0B9     		cbnz	r0, .L43
 204:Core/Src/main.c ****                               |RCC_CLOCKTYPE_PCLK1|RCC_CLOCKTYPE_PCLK2
 780              		.loc 1 204 3 is_stmt 1 view .LVU249
 204:Core/Src/main.c ****                               |RCC_CLOCKTYPE_PCLK1|RCC_CLOCKTYPE_PCLK2
 781              		.loc 1 204 31 is_stmt 0 view .LVU250
 782 0084 3F23     		movs	r3, #63
 783 0086 0193     		str	r3, [sp, #4]
 207:Core/Src/main.c ****   RCC_ClkInitStruct.SYSCLKDivider = RCC_SYSCLK_DIV1;
 784              		.loc 1 207 3 is_stmt 1 view .LVU251
 207:Core/Src/main.c ****   RCC_ClkInitStruct.SYSCLKDivider = RCC_SYSCLK_DIV1;
 785              		.loc 1 207 34 is_stmt 0 view .LVU252
 786 0088 0323     		movs	r3, #3
 787 008a 0293     		str	r3, [sp, #8]
 208:Core/Src/main.c ****   RCC_ClkInitStruct.AHBCLKDivider = RCC_HCLK_DIV4;
 788              		.loc 1 208 3 is_stmt 1 view .LVU253
 208:Core/Src/main.c ****   RCC_ClkInitStruct.AHBCLKDivider = RCC_HCLK_DIV4;
 789              		.loc 1 208 35 is_stmt 0 view .LVU254
 790 008c 0023     		movs	r3, #0
 791 008e 0393     		str	r3, [sp, #12]
 209:Core/Src/main.c ****   RCC_ClkInitStruct.APB3CLKDivider = RCC_APB3_DIV2;
 792              		.loc 1 209 3 is_stmt 1 view .LVU255
 209:Core/Src/main.c ****   RCC_ClkInitStruct.APB3CLKDivider = RCC_APB3_DIV2;
 793              		.loc 1 209 35 is_stmt 0 view .LVU256
 794 0090 0923     		movs	r3, #9
 795 0092 0493     		str	r3, [sp, #16]
 210:Core/Src/main.c ****   RCC_ClkInitStruct.APB1CLKDivider = RCC_APB1_DIV2;
 796              		.loc 1 210 3 is_stmt 1 view .LVU257
 210:Core/Src/main.c ****   RCC_ClkInitStruct.APB1CLKDivider = RCC_APB1_DIV2;
 797              		.loc 1 210 36 is_stmt 0 view .LVU258
 798 0094 4023     		movs	r3, #64
 799 0096 0593     		str	r3, [sp, #20]
 211:Core/Src/main.c ****   RCC_ClkInitStruct.APB2CLKDivider = RCC_APB2_DIV2;
 800              		.loc 1 211 3 is_stmt 1 view .LVU259
ARM GAS  /var/folders/l4/6w9kflz11csb_6qsyz46nv3c0000gp/T//cccBIjak.s 			page 29


 211:Core/Src/main.c ****   RCC_ClkInitStruct.APB2CLKDivider = RCC_APB2_DIV2;
 801              		.loc 1 211 36 is_stmt 0 view .LVU260
 802 0098 0693     		str	r3, [sp, #24]
 212:Core/Src/main.c ****   RCC_ClkInitStruct.APB4CLKDivider = RCC_APB4_DIV2;
 803              		.loc 1 212 3 is_stmt 1 view .LVU261
 212:Core/Src/main.c ****   RCC_ClkInitStruct.APB4CLKDivider = RCC_APB4_DIV2;
 804              		.loc 1 212 36 is_stmt 0 view .LVU262
 805 009a 4FF48062 		mov	r2, #1024
 806 009e 0792     		str	r2, [sp, #28]
 213:Core/Src/main.c **** 
 807              		.loc 1 213 3 is_stmt 1 view .LVU263
 213:Core/Src/main.c **** 
 808              		.loc 1 213 36 is_stmt 0 view .LVU264
 809 00a0 0893     		str	r3, [sp, #32]
 215:Core/Src/main.c ****   {
 810              		.loc 1 215 3 is_stmt 1 view .LVU265
 215:Core/Src/main.c ****   {
 811              		.loc 1 215 7 is_stmt 0 view .LVU266
 812 00a2 0121     		movs	r1, #1
 813 00a4 01A8     		add	r0, sp, #4
 814 00a6 FFF7FEFF 		bl	HAL_RCC_ClockConfig
 815              	.LVL31:
 215:Core/Src/main.c ****   {
 816              		.loc 1 215 6 discriminator 1 view .LVU267
 817 00aa 20B9     		cbnz	r0, .L44
 219:Core/Src/main.c **** 
 818              		.loc 1 219 1 view .LVU268
 819 00ac 1DB0     		add	sp, sp, #116
 820              		.cfi_remember_state
 821              		.cfi_def_cfa_offset 4
 822              		@ sp needed
 823 00ae 5DF804FB 		ldr	pc, [sp], #4
 824              	.L43:
 825              		.cfi_restore_state
 199:Core/Src/main.c ****   }
 826              		.loc 1 199 5 is_stmt 1 view .LVU269
 827 00b2 FFF7FEFF 		bl	Error_Handler
 828              	.LVL32:
 829              	.L44:
 217:Core/Src/main.c ****   }
 830              		.loc 1 217 5 view .LVU270
 831 00b6 FFF7FEFF 		bl	Error_Handler
 832              	.LVL33:
 833              	.L46:
 834 00ba 00BF     		.align	2
 835              	.L45:
 836 00bc 00040058 		.word	1476396032
 837 00c0 00480258 		.word	1476544512
 838              		.cfi_endproc
 839              	.LFE145:
 841              		.section	.text.main,"ax",%progbits
 842              		.align	1
 843              		.global	main
 844              		.syntax unified
 845              		.thumb
 846              		.thumb_func
 848              	main:
ARM GAS  /var/folders/l4/6w9kflz11csb_6qsyz46nv3c0000gp/T//cccBIjak.s 			page 30


 849              	.LFB144:
  99:Core/Src/main.c **** 
 850              		.loc 1 99 1 view -0
 851              		.cfi_startproc
 852              		@ args = 0, pretend = 0, frame = 0
 853              		@ frame_needed = 0, uses_anonymous_args = 0
 854 0000 38B5     		push	{r3, r4, r5, lr}
 855              		.cfi_def_cfa_offset 16
 856              		.cfi_offset 3, -16
 857              		.cfi_offset 4, -12
 858              		.cfi_offset 5, -8
 859              		.cfi_offset 14, -4
 103:Core/Src/main.c **** __DSB();
 860              		.loc 1 103 1 view .LVU272
 861 0002 FFF7FEFF 		bl	HAL_MPU_Disable
 862              	.LVL34:
 104:Core/Src/main.c **** __ISB();
 863              		.loc 1 104 1 view .LVU273
 864              	.LBB23:
 865              	.LBI23:
 210:Drivers/CMSIS/Include/cmsis_gcc.h **** }
 211:Drivers/CMSIS/Include/cmsis_gcc.h **** 
 212:Drivers/CMSIS/Include/cmsis_gcc.h **** 
 213:Drivers/CMSIS/Include/cmsis_gcc.h **** /**
 214:Drivers/CMSIS/Include/cmsis_gcc.h ****   \brief   Get Control Register
 215:Drivers/CMSIS/Include/cmsis_gcc.h ****   \details Returns the content of the Control Register.
 216:Drivers/CMSIS/Include/cmsis_gcc.h ****   \return               Control Register value
 217:Drivers/CMSIS/Include/cmsis_gcc.h ****  */
 218:Drivers/CMSIS/Include/cmsis_gcc.h **** __STATIC_FORCEINLINE uint32_t __get_CONTROL(void)
 219:Drivers/CMSIS/Include/cmsis_gcc.h **** {
 220:Drivers/CMSIS/Include/cmsis_gcc.h ****   uint32_t result;
 221:Drivers/CMSIS/Include/cmsis_gcc.h **** 
 222:Drivers/CMSIS/Include/cmsis_gcc.h ****   __ASM volatile ("MRS %0, control" : "=r" (result) );
 223:Drivers/CMSIS/Include/cmsis_gcc.h ****   return(result);
 224:Drivers/CMSIS/Include/cmsis_gcc.h **** }
 225:Drivers/CMSIS/Include/cmsis_gcc.h **** 
 226:Drivers/CMSIS/Include/cmsis_gcc.h **** 
 227:Drivers/CMSIS/Include/cmsis_gcc.h **** #if (defined (__ARM_FEATURE_CMSE ) && (__ARM_FEATURE_CMSE == 3))
 228:Drivers/CMSIS/Include/cmsis_gcc.h **** /**
 229:Drivers/CMSIS/Include/cmsis_gcc.h ****   \brief   Get Control Register (non-secure)
 230:Drivers/CMSIS/Include/cmsis_gcc.h ****   \details Returns the content of the non-secure Control Register when in secure mode.
 231:Drivers/CMSIS/Include/cmsis_gcc.h ****   \return               non-secure Control Register value
 232:Drivers/CMSIS/Include/cmsis_gcc.h ****  */
 233:Drivers/CMSIS/Include/cmsis_gcc.h **** __STATIC_FORCEINLINE uint32_t __TZ_get_CONTROL_NS(void)
 234:Drivers/CMSIS/Include/cmsis_gcc.h **** {
 235:Drivers/CMSIS/Include/cmsis_gcc.h ****   uint32_t result;
 236:Drivers/CMSIS/Include/cmsis_gcc.h **** 
 237:Drivers/CMSIS/Include/cmsis_gcc.h ****   __ASM volatile ("MRS %0, control_ns" : "=r" (result) );
 238:Drivers/CMSIS/Include/cmsis_gcc.h ****   return(result);
 239:Drivers/CMSIS/Include/cmsis_gcc.h **** }
 240:Drivers/CMSIS/Include/cmsis_gcc.h **** #endif
 241:Drivers/CMSIS/Include/cmsis_gcc.h **** 
 242:Drivers/CMSIS/Include/cmsis_gcc.h **** 
 243:Drivers/CMSIS/Include/cmsis_gcc.h **** /**
 244:Drivers/CMSIS/Include/cmsis_gcc.h ****   \brief   Set Control Register
 245:Drivers/CMSIS/Include/cmsis_gcc.h ****   \details Writes the given value to the Control Register.
 246:Drivers/CMSIS/Include/cmsis_gcc.h ****   \param [in]    control  Control Register value to set
ARM GAS  /var/folders/l4/6w9kflz11csb_6qsyz46nv3c0000gp/T//cccBIjak.s 			page 31


 247:Drivers/CMSIS/Include/cmsis_gcc.h ****  */
 248:Drivers/CMSIS/Include/cmsis_gcc.h **** __STATIC_FORCEINLINE void __set_CONTROL(uint32_t control)
 249:Drivers/CMSIS/Include/cmsis_gcc.h **** {
 250:Drivers/CMSIS/Include/cmsis_gcc.h ****   __ASM volatile ("MSR control, %0" : : "r" (control) : "memory");
 251:Drivers/CMSIS/Include/cmsis_gcc.h **** }
 252:Drivers/CMSIS/Include/cmsis_gcc.h **** 
 253:Drivers/CMSIS/Include/cmsis_gcc.h **** 
 254:Drivers/CMSIS/Include/cmsis_gcc.h **** #if (defined (__ARM_FEATURE_CMSE ) && (__ARM_FEATURE_CMSE == 3))
 255:Drivers/CMSIS/Include/cmsis_gcc.h **** /**
 256:Drivers/CMSIS/Include/cmsis_gcc.h ****   \brief   Set Control Register (non-secure)
 257:Drivers/CMSIS/Include/cmsis_gcc.h ****   \details Writes the given value to the non-secure Control Register when in secure state.
 258:Drivers/CMSIS/Include/cmsis_gcc.h ****   \param [in]    control  Control Register value to set
 259:Drivers/CMSIS/Include/cmsis_gcc.h ****  */
 260:Drivers/CMSIS/Include/cmsis_gcc.h **** __STATIC_FORCEINLINE void __TZ_set_CONTROL_NS(uint32_t control)
 261:Drivers/CMSIS/Include/cmsis_gcc.h **** {
 262:Drivers/CMSIS/Include/cmsis_gcc.h ****   __ASM volatile ("MSR control_ns, %0" : : "r" (control) : "memory");
 263:Drivers/CMSIS/Include/cmsis_gcc.h **** }
 264:Drivers/CMSIS/Include/cmsis_gcc.h **** #endif
 265:Drivers/CMSIS/Include/cmsis_gcc.h **** 
 266:Drivers/CMSIS/Include/cmsis_gcc.h **** 
 267:Drivers/CMSIS/Include/cmsis_gcc.h **** /**
 268:Drivers/CMSIS/Include/cmsis_gcc.h ****   \brief   Get IPSR Register
 269:Drivers/CMSIS/Include/cmsis_gcc.h ****   \details Returns the content of the IPSR Register.
 270:Drivers/CMSIS/Include/cmsis_gcc.h ****   \return               IPSR Register value
 271:Drivers/CMSIS/Include/cmsis_gcc.h ****  */
 272:Drivers/CMSIS/Include/cmsis_gcc.h **** __STATIC_FORCEINLINE uint32_t __get_IPSR(void)
 273:Drivers/CMSIS/Include/cmsis_gcc.h **** {
 274:Drivers/CMSIS/Include/cmsis_gcc.h ****   uint32_t result;
 275:Drivers/CMSIS/Include/cmsis_gcc.h **** 
 276:Drivers/CMSIS/Include/cmsis_gcc.h ****   __ASM volatile ("MRS %0, ipsr" : "=r" (result) );
 277:Drivers/CMSIS/Include/cmsis_gcc.h ****   return(result);
 278:Drivers/CMSIS/Include/cmsis_gcc.h **** }
 279:Drivers/CMSIS/Include/cmsis_gcc.h **** 
 280:Drivers/CMSIS/Include/cmsis_gcc.h **** 
 281:Drivers/CMSIS/Include/cmsis_gcc.h **** /**
 282:Drivers/CMSIS/Include/cmsis_gcc.h ****   \brief   Get APSR Register
 283:Drivers/CMSIS/Include/cmsis_gcc.h ****   \details Returns the content of the APSR Register.
 284:Drivers/CMSIS/Include/cmsis_gcc.h ****   \return               APSR Register value
 285:Drivers/CMSIS/Include/cmsis_gcc.h ****  */
 286:Drivers/CMSIS/Include/cmsis_gcc.h **** __STATIC_FORCEINLINE uint32_t __get_APSR(void)
 287:Drivers/CMSIS/Include/cmsis_gcc.h **** {
 288:Drivers/CMSIS/Include/cmsis_gcc.h ****   uint32_t result;
 289:Drivers/CMSIS/Include/cmsis_gcc.h **** 
 290:Drivers/CMSIS/Include/cmsis_gcc.h ****   __ASM volatile ("MRS %0, apsr" : "=r" (result) );
 291:Drivers/CMSIS/Include/cmsis_gcc.h ****   return(result);
 292:Drivers/CMSIS/Include/cmsis_gcc.h **** }
 293:Drivers/CMSIS/Include/cmsis_gcc.h **** 
 294:Drivers/CMSIS/Include/cmsis_gcc.h **** 
 295:Drivers/CMSIS/Include/cmsis_gcc.h **** /**
 296:Drivers/CMSIS/Include/cmsis_gcc.h ****   \brief   Get xPSR Register
 297:Drivers/CMSIS/Include/cmsis_gcc.h ****   \details Returns the content of the xPSR Register.
 298:Drivers/CMSIS/Include/cmsis_gcc.h ****   \return               xPSR Register value
 299:Drivers/CMSIS/Include/cmsis_gcc.h ****  */
 300:Drivers/CMSIS/Include/cmsis_gcc.h **** __STATIC_FORCEINLINE uint32_t __get_xPSR(void)
 301:Drivers/CMSIS/Include/cmsis_gcc.h **** {
 302:Drivers/CMSIS/Include/cmsis_gcc.h ****   uint32_t result;
 303:Drivers/CMSIS/Include/cmsis_gcc.h **** 
ARM GAS  /var/folders/l4/6w9kflz11csb_6qsyz46nv3c0000gp/T//cccBIjak.s 			page 32


 304:Drivers/CMSIS/Include/cmsis_gcc.h ****   __ASM volatile ("MRS %0, xpsr" : "=r" (result) );
 305:Drivers/CMSIS/Include/cmsis_gcc.h ****   return(result);
 306:Drivers/CMSIS/Include/cmsis_gcc.h **** }
 307:Drivers/CMSIS/Include/cmsis_gcc.h **** 
 308:Drivers/CMSIS/Include/cmsis_gcc.h **** 
 309:Drivers/CMSIS/Include/cmsis_gcc.h **** /**
 310:Drivers/CMSIS/Include/cmsis_gcc.h ****   \brief   Get Process Stack Pointer
 311:Drivers/CMSIS/Include/cmsis_gcc.h ****   \details Returns the current value of the Process Stack Pointer (PSP).
 312:Drivers/CMSIS/Include/cmsis_gcc.h ****   \return               PSP Register value
 313:Drivers/CMSIS/Include/cmsis_gcc.h ****  */
 314:Drivers/CMSIS/Include/cmsis_gcc.h **** __STATIC_FORCEINLINE uint32_t __get_PSP(void)
 315:Drivers/CMSIS/Include/cmsis_gcc.h **** {
 316:Drivers/CMSIS/Include/cmsis_gcc.h ****   uint32_t result;
 317:Drivers/CMSIS/Include/cmsis_gcc.h **** 
 318:Drivers/CMSIS/Include/cmsis_gcc.h ****   __ASM volatile ("MRS %0, psp"  : "=r" (result) );
 319:Drivers/CMSIS/Include/cmsis_gcc.h ****   return(result);
 320:Drivers/CMSIS/Include/cmsis_gcc.h **** }
 321:Drivers/CMSIS/Include/cmsis_gcc.h **** 
 322:Drivers/CMSIS/Include/cmsis_gcc.h **** 
 323:Drivers/CMSIS/Include/cmsis_gcc.h **** #if (defined (__ARM_FEATURE_CMSE ) && (__ARM_FEATURE_CMSE == 3))
 324:Drivers/CMSIS/Include/cmsis_gcc.h **** /**
 325:Drivers/CMSIS/Include/cmsis_gcc.h ****   \brief   Get Process Stack Pointer (non-secure)
 326:Drivers/CMSIS/Include/cmsis_gcc.h ****   \details Returns the current value of the non-secure Process Stack Pointer (PSP) when in secure s
 327:Drivers/CMSIS/Include/cmsis_gcc.h ****   \return               PSP Register value
 328:Drivers/CMSIS/Include/cmsis_gcc.h ****  */
 329:Drivers/CMSIS/Include/cmsis_gcc.h **** __STATIC_FORCEINLINE uint32_t __TZ_get_PSP_NS(void)
 330:Drivers/CMSIS/Include/cmsis_gcc.h **** {
 331:Drivers/CMSIS/Include/cmsis_gcc.h ****   uint32_t result;
 332:Drivers/CMSIS/Include/cmsis_gcc.h **** 
 333:Drivers/CMSIS/Include/cmsis_gcc.h ****   __ASM volatile ("MRS %0, psp_ns"  : "=r" (result) );
 334:Drivers/CMSIS/Include/cmsis_gcc.h ****   return(result);
 335:Drivers/CMSIS/Include/cmsis_gcc.h **** }
 336:Drivers/CMSIS/Include/cmsis_gcc.h **** #endif
 337:Drivers/CMSIS/Include/cmsis_gcc.h **** 
 338:Drivers/CMSIS/Include/cmsis_gcc.h **** 
 339:Drivers/CMSIS/Include/cmsis_gcc.h **** /**
 340:Drivers/CMSIS/Include/cmsis_gcc.h ****   \brief   Set Process Stack Pointer
 341:Drivers/CMSIS/Include/cmsis_gcc.h ****   \details Assigns the given value to the Process Stack Pointer (PSP).
 342:Drivers/CMSIS/Include/cmsis_gcc.h ****   \param [in]    topOfProcStack  Process Stack Pointer value to set
 343:Drivers/CMSIS/Include/cmsis_gcc.h ****  */
 344:Drivers/CMSIS/Include/cmsis_gcc.h **** __STATIC_FORCEINLINE void __set_PSP(uint32_t topOfProcStack)
 345:Drivers/CMSIS/Include/cmsis_gcc.h **** {
 346:Drivers/CMSIS/Include/cmsis_gcc.h ****   __ASM volatile ("MSR psp, %0" : : "r" (topOfProcStack) : );
 347:Drivers/CMSIS/Include/cmsis_gcc.h **** }
 348:Drivers/CMSIS/Include/cmsis_gcc.h **** 
 349:Drivers/CMSIS/Include/cmsis_gcc.h **** 
 350:Drivers/CMSIS/Include/cmsis_gcc.h **** #if (defined (__ARM_FEATURE_CMSE ) && (__ARM_FEATURE_CMSE == 3))
 351:Drivers/CMSIS/Include/cmsis_gcc.h **** /**
 352:Drivers/CMSIS/Include/cmsis_gcc.h ****   \brief   Set Process Stack Pointer (non-secure)
 353:Drivers/CMSIS/Include/cmsis_gcc.h ****   \details Assigns the given value to the non-secure Process Stack Pointer (PSP) when in secure sta
 354:Drivers/CMSIS/Include/cmsis_gcc.h ****   \param [in]    topOfProcStack  Process Stack Pointer value to set
 355:Drivers/CMSIS/Include/cmsis_gcc.h ****  */
 356:Drivers/CMSIS/Include/cmsis_gcc.h **** __STATIC_FORCEINLINE void __TZ_set_PSP_NS(uint32_t topOfProcStack)
 357:Drivers/CMSIS/Include/cmsis_gcc.h **** {
 358:Drivers/CMSIS/Include/cmsis_gcc.h ****   __ASM volatile ("MSR psp_ns, %0" : : "r" (topOfProcStack) : );
 359:Drivers/CMSIS/Include/cmsis_gcc.h **** }
 360:Drivers/CMSIS/Include/cmsis_gcc.h **** #endif
ARM GAS  /var/folders/l4/6w9kflz11csb_6qsyz46nv3c0000gp/T//cccBIjak.s 			page 33


 361:Drivers/CMSIS/Include/cmsis_gcc.h **** 
 362:Drivers/CMSIS/Include/cmsis_gcc.h **** 
 363:Drivers/CMSIS/Include/cmsis_gcc.h **** /**
 364:Drivers/CMSIS/Include/cmsis_gcc.h ****   \brief   Get Main Stack Pointer
 365:Drivers/CMSIS/Include/cmsis_gcc.h ****   \details Returns the current value of the Main Stack Pointer (MSP).
 366:Drivers/CMSIS/Include/cmsis_gcc.h ****   \return               MSP Register value
 367:Drivers/CMSIS/Include/cmsis_gcc.h ****  */
 368:Drivers/CMSIS/Include/cmsis_gcc.h **** __STATIC_FORCEINLINE uint32_t __get_MSP(void)
 369:Drivers/CMSIS/Include/cmsis_gcc.h **** {
 370:Drivers/CMSIS/Include/cmsis_gcc.h ****   uint32_t result;
 371:Drivers/CMSIS/Include/cmsis_gcc.h **** 
 372:Drivers/CMSIS/Include/cmsis_gcc.h ****   __ASM volatile ("MRS %0, msp" : "=r" (result) );
 373:Drivers/CMSIS/Include/cmsis_gcc.h ****   return(result);
 374:Drivers/CMSIS/Include/cmsis_gcc.h **** }
 375:Drivers/CMSIS/Include/cmsis_gcc.h **** 
 376:Drivers/CMSIS/Include/cmsis_gcc.h **** 
 377:Drivers/CMSIS/Include/cmsis_gcc.h **** #if (defined (__ARM_FEATURE_CMSE ) && (__ARM_FEATURE_CMSE == 3))
 378:Drivers/CMSIS/Include/cmsis_gcc.h **** /**
 379:Drivers/CMSIS/Include/cmsis_gcc.h ****   \brief   Get Main Stack Pointer (non-secure)
 380:Drivers/CMSIS/Include/cmsis_gcc.h ****   \details Returns the current value of the non-secure Main Stack Pointer (MSP) when in secure stat
 381:Drivers/CMSIS/Include/cmsis_gcc.h ****   \return               MSP Register value
 382:Drivers/CMSIS/Include/cmsis_gcc.h ****  */
 383:Drivers/CMSIS/Include/cmsis_gcc.h **** __STATIC_FORCEINLINE uint32_t __TZ_get_MSP_NS(void)
 384:Drivers/CMSIS/Include/cmsis_gcc.h **** {
 385:Drivers/CMSIS/Include/cmsis_gcc.h ****   uint32_t result;
 386:Drivers/CMSIS/Include/cmsis_gcc.h **** 
 387:Drivers/CMSIS/Include/cmsis_gcc.h ****   __ASM volatile ("MRS %0, msp_ns" : "=r" (result) );
 388:Drivers/CMSIS/Include/cmsis_gcc.h ****   return(result);
 389:Drivers/CMSIS/Include/cmsis_gcc.h **** }
 390:Drivers/CMSIS/Include/cmsis_gcc.h **** #endif
 391:Drivers/CMSIS/Include/cmsis_gcc.h **** 
 392:Drivers/CMSIS/Include/cmsis_gcc.h **** 
 393:Drivers/CMSIS/Include/cmsis_gcc.h **** /**
 394:Drivers/CMSIS/Include/cmsis_gcc.h ****   \brief   Set Main Stack Pointer
 395:Drivers/CMSIS/Include/cmsis_gcc.h ****   \details Assigns the given value to the Main Stack Pointer (MSP).
 396:Drivers/CMSIS/Include/cmsis_gcc.h ****   \param [in]    topOfMainStack  Main Stack Pointer value to set
 397:Drivers/CMSIS/Include/cmsis_gcc.h ****  */
 398:Drivers/CMSIS/Include/cmsis_gcc.h **** __STATIC_FORCEINLINE void __set_MSP(uint32_t topOfMainStack)
 399:Drivers/CMSIS/Include/cmsis_gcc.h **** {
 400:Drivers/CMSIS/Include/cmsis_gcc.h ****   __ASM volatile ("MSR msp, %0" : : "r" (topOfMainStack) : );
 401:Drivers/CMSIS/Include/cmsis_gcc.h **** }
 402:Drivers/CMSIS/Include/cmsis_gcc.h **** 
 403:Drivers/CMSIS/Include/cmsis_gcc.h **** 
 404:Drivers/CMSIS/Include/cmsis_gcc.h **** #if (defined (__ARM_FEATURE_CMSE ) && (__ARM_FEATURE_CMSE == 3))
 405:Drivers/CMSIS/Include/cmsis_gcc.h **** /**
 406:Drivers/CMSIS/Include/cmsis_gcc.h ****   \brief   Set Main Stack Pointer (non-secure)
 407:Drivers/CMSIS/Include/cmsis_gcc.h ****   \details Assigns the given value to the non-secure Main Stack Pointer (MSP) when in secure state.
 408:Drivers/CMSIS/Include/cmsis_gcc.h ****   \param [in]    topOfMainStack  Main Stack Pointer value to set
 409:Drivers/CMSIS/Include/cmsis_gcc.h ****  */
 410:Drivers/CMSIS/Include/cmsis_gcc.h **** __STATIC_FORCEINLINE void __TZ_set_MSP_NS(uint32_t topOfMainStack)
 411:Drivers/CMSIS/Include/cmsis_gcc.h **** {
 412:Drivers/CMSIS/Include/cmsis_gcc.h ****   __ASM volatile ("MSR msp_ns, %0" : : "r" (topOfMainStack) : );
 413:Drivers/CMSIS/Include/cmsis_gcc.h **** }
 414:Drivers/CMSIS/Include/cmsis_gcc.h **** #endif
 415:Drivers/CMSIS/Include/cmsis_gcc.h **** 
 416:Drivers/CMSIS/Include/cmsis_gcc.h **** 
 417:Drivers/CMSIS/Include/cmsis_gcc.h **** #if (defined (__ARM_FEATURE_CMSE ) && (__ARM_FEATURE_CMSE == 3))
ARM GAS  /var/folders/l4/6w9kflz11csb_6qsyz46nv3c0000gp/T//cccBIjak.s 			page 34


 418:Drivers/CMSIS/Include/cmsis_gcc.h **** /**
 419:Drivers/CMSIS/Include/cmsis_gcc.h ****   \brief   Get Stack Pointer (non-secure)
 420:Drivers/CMSIS/Include/cmsis_gcc.h ****   \details Returns the current value of the non-secure Stack Pointer (SP) when in secure state.
 421:Drivers/CMSIS/Include/cmsis_gcc.h ****   \return               SP Register value
 422:Drivers/CMSIS/Include/cmsis_gcc.h ****  */
 423:Drivers/CMSIS/Include/cmsis_gcc.h **** __STATIC_FORCEINLINE uint32_t __TZ_get_SP_NS(void)
 424:Drivers/CMSIS/Include/cmsis_gcc.h **** {
 425:Drivers/CMSIS/Include/cmsis_gcc.h ****   uint32_t result;
 426:Drivers/CMSIS/Include/cmsis_gcc.h **** 
 427:Drivers/CMSIS/Include/cmsis_gcc.h ****   __ASM volatile ("MRS %0, sp_ns" : "=r" (result) );
 428:Drivers/CMSIS/Include/cmsis_gcc.h ****   return(result);
 429:Drivers/CMSIS/Include/cmsis_gcc.h **** }
 430:Drivers/CMSIS/Include/cmsis_gcc.h **** 
 431:Drivers/CMSIS/Include/cmsis_gcc.h **** 
 432:Drivers/CMSIS/Include/cmsis_gcc.h **** /**
 433:Drivers/CMSIS/Include/cmsis_gcc.h ****   \brief   Set Stack Pointer (non-secure)
 434:Drivers/CMSIS/Include/cmsis_gcc.h ****   \details Assigns the given value to the non-secure Stack Pointer (SP) when in secure state.
 435:Drivers/CMSIS/Include/cmsis_gcc.h ****   \param [in]    topOfStack  Stack Pointer value to set
 436:Drivers/CMSIS/Include/cmsis_gcc.h ****  */
 437:Drivers/CMSIS/Include/cmsis_gcc.h **** __STATIC_FORCEINLINE void __TZ_set_SP_NS(uint32_t topOfStack)
 438:Drivers/CMSIS/Include/cmsis_gcc.h **** {
 439:Drivers/CMSIS/Include/cmsis_gcc.h ****   __ASM volatile ("MSR sp_ns, %0" : : "r" (topOfStack) : );
 440:Drivers/CMSIS/Include/cmsis_gcc.h **** }
 441:Drivers/CMSIS/Include/cmsis_gcc.h **** #endif
 442:Drivers/CMSIS/Include/cmsis_gcc.h **** 
 443:Drivers/CMSIS/Include/cmsis_gcc.h **** 
 444:Drivers/CMSIS/Include/cmsis_gcc.h **** /**
 445:Drivers/CMSIS/Include/cmsis_gcc.h ****   \brief   Get Priority Mask
 446:Drivers/CMSIS/Include/cmsis_gcc.h ****   \details Returns the current state of the priority mask bit from the Priority Mask Register.
 447:Drivers/CMSIS/Include/cmsis_gcc.h ****   \return               Priority Mask value
 448:Drivers/CMSIS/Include/cmsis_gcc.h ****  */
 449:Drivers/CMSIS/Include/cmsis_gcc.h **** __STATIC_FORCEINLINE uint32_t __get_PRIMASK(void)
 450:Drivers/CMSIS/Include/cmsis_gcc.h **** {
 451:Drivers/CMSIS/Include/cmsis_gcc.h ****   uint32_t result;
 452:Drivers/CMSIS/Include/cmsis_gcc.h **** 
 453:Drivers/CMSIS/Include/cmsis_gcc.h ****   __ASM volatile ("MRS %0, primask" : "=r" (result) :: "memory");
 454:Drivers/CMSIS/Include/cmsis_gcc.h ****   return(result);
 455:Drivers/CMSIS/Include/cmsis_gcc.h **** }
 456:Drivers/CMSIS/Include/cmsis_gcc.h **** 
 457:Drivers/CMSIS/Include/cmsis_gcc.h **** 
 458:Drivers/CMSIS/Include/cmsis_gcc.h **** #if (defined (__ARM_FEATURE_CMSE ) && (__ARM_FEATURE_CMSE == 3))
 459:Drivers/CMSIS/Include/cmsis_gcc.h **** /**
 460:Drivers/CMSIS/Include/cmsis_gcc.h ****   \brief   Get Priority Mask (non-secure)
 461:Drivers/CMSIS/Include/cmsis_gcc.h ****   \details Returns the current state of the non-secure priority mask bit from the Priority Mask Reg
 462:Drivers/CMSIS/Include/cmsis_gcc.h ****   \return               Priority Mask value
 463:Drivers/CMSIS/Include/cmsis_gcc.h ****  */
 464:Drivers/CMSIS/Include/cmsis_gcc.h **** __STATIC_FORCEINLINE uint32_t __TZ_get_PRIMASK_NS(void)
 465:Drivers/CMSIS/Include/cmsis_gcc.h **** {
 466:Drivers/CMSIS/Include/cmsis_gcc.h ****   uint32_t result;
 467:Drivers/CMSIS/Include/cmsis_gcc.h **** 
 468:Drivers/CMSIS/Include/cmsis_gcc.h ****   __ASM volatile ("MRS %0, primask_ns" : "=r" (result) :: "memory");
 469:Drivers/CMSIS/Include/cmsis_gcc.h ****   return(result);
 470:Drivers/CMSIS/Include/cmsis_gcc.h **** }
 471:Drivers/CMSIS/Include/cmsis_gcc.h **** #endif
 472:Drivers/CMSIS/Include/cmsis_gcc.h **** 
 473:Drivers/CMSIS/Include/cmsis_gcc.h **** 
 474:Drivers/CMSIS/Include/cmsis_gcc.h **** /**
ARM GAS  /var/folders/l4/6w9kflz11csb_6qsyz46nv3c0000gp/T//cccBIjak.s 			page 35


 475:Drivers/CMSIS/Include/cmsis_gcc.h ****   \brief   Set Priority Mask
 476:Drivers/CMSIS/Include/cmsis_gcc.h ****   \details Assigns the given value to the Priority Mask Register.
 477:Drivers/CMSIS/Include/cmsis_gcc.h ****   \param [in]    priMask  Priority Mask
 478:Drivers/CMSIS/Include/cmsis_gcc.h ****  */
 479:Drivers/CMSIS/Include/cmsis_gcc.h **** __STATIC_FORCEINLINE void __set_PRIMASK(uint32_t priMask)
 480:Drivers/CMSIS/Include/cmsis_gcc.h **** {
 481:Drivers/CMSIS/Include/cmsis_gcc.h ****   __ASM volatile ("MSR primask, %0" : : "r" (priMask) : "memory");
 482:Drivers/CMSIS/Include/cmsis_gcc.h **** }
 483:Drivers/CMSIS/Include/cmsis_gcc.h **** 
 484:Drivers/CMSIS/Include/cmsis_gcc.h **** 
 485:Drivers/CMSIS/Include/cmsis_gcc.h **** #if (defined (__ARM_FEATURE_CMSE ) && (__ARM_FEATURE_CMSE == 3))
 486:Drivers/CMSIS/Include/cmsis_gcc.h **** /**
 487:Drivers/CMSIS/Include/cmsis_gcc.h ****   \brief   Set Priority Mask (non-secure)
 488:Drivers/CMSIS/Include/cmsis_gcc.h ****   \details Assigns the given value to the non-secure Priority Mask Register when in secure state.
 489:Drivers/CMSIS/Include/cmsis_gcc.h ****   \param [in]    priMask  Priority Mask
 490:Drivers/CMSIS/Include/cmsis_gcc.h ****  */
 491:Drivers/CMSIS/Include/cmsis_gcc.h **** __STATIC_FORCEINLINE void __TZ_set_PRIMASK_NS(uint32_t priMask)
 492:Drivers/CMSIS/Include/cmsis_gcc.h **** {
 493:Drivers/CMSIS/Include/cmsis_gcc.h ****   __ASM volatile ("MSR primask_ns, %0" : : "r" (priMask) : "memory");
 494:Drivers/CMSIS/Include/cmsis_gcc.h **** }
 495:Drivers/CMSIS/Include/cmsis_gcc.h **** #endif
 496:Drivers/CMSIS/Include/cmsis_gcc.h **** 
 497:Drivers/CMSIS/Include/cmsis_gcc.h **** 
 498:Drivers/CMSIS/Include/cmsis_gcc.h **** #if ((defined (__ARM_ARCH_7M__      ) && (__ARM_ARCH_7M__      == 1)) || \
 499:Drivers/CMSIS/Include/cmsis_gcc.h ****      (defined (__ARM_ARCH_7EM__     ) && (__ARM_ARCH_7EM__     == 1)) || \
 500:Drivers/CMSIS/Include/cmsis_gcc.h ****      (defined (__ARM_ARCH_8M_MAIN__ ) && (__ARM_ARCH_8M_MAIN__ == 1))    )
 501:Drivers/CMSIS/Include/cmsis_gcc.h **** /**
 502:Drivers/CMSIS/Include/cmsis_gcc.h ****   \brief   Enable FIQ
 503:Drivers/CMSIS/Include/cmsis_gcc.h ****   \details Enables FIQ interrupts by clearing the F-bit in the CPSR.
 504:Drivers/CMSIS/Include/cmsis_gcc.h ****            Can only be executed in Privileged modes.
 505:Drivers/CMSIS/Include/cmsis_gcc.h ****  */
 506:Drivers/CMSIS/Include/cmsis_gcc.h **** __STATIC_FORCEINLINE void __enable_fault_irq(void)
 507:Drivers/CMSIS/Include/cmsis_gcc.h **** {
 508:Drivers/CMSIS/Include/cmsis_gcc.h ****   __ASM volatile ("cpsie f" : : : "memory");
 509:Drivers/CMSIS/Include/cmsis_gcc.h **** }
 510:Drivers/CMSIS/Include/cmsis_gcc.h **** 
 511:Drivers/CMSIS/Include/cmsis_gcc.h **** 
 512:Drivers/CMSIS/Include/cmsis_gcc.h **** /**
 513:Drivers/CMSIS/Include/cmsis_gcc.h ****   \brief   Disable FIQ
 514:Drivers/CMSIS/Include/cmsis_gcc.h ****   \details Disables FIQ interrupts by setting the F-bit in the CPSR.
 515:Drivers/CMSIS/Include/cmsis_gcc.h ****            Can only be executed in Privileged modes.
 516:Drivers/CMSIS/Include/cmsis_gcc.h ****  */
 517:Drivers/CMSIS/Include/cmsis_gcc.h **** __STATIC_FORCEINLINE void __disable_fault_irq(void)
 518:Drivers/CMSIS/Include/cmsis_gcc.h **** {
 519:Drivers/CMSIS/Include/cmsis_gcc.h ****   __ASM volatile ("cpsid f" : : : "memory");
 520:Drivers/CMSIS/Include/cmsis_gcc.h **** }
 521:Drivers/CMSIS/Include/cmsis_gcc.h **** 
 522:Drivers/CMSIS/Include/cmsis_gcc.h **** 
 523:Drivers/CMSIS/Include/cmsis_gcc.h **** /**
 524:Drivers/CMSIS/Include/cmsis_gcc.h ****   \brief   Get Base Priority
 525:Drivers/CMSIS/Include/cmsis_gcc.h ****   \details Returns the current value of the Base Priority register.
 526:Drivers/CMSIS/Include/cmsis_gcc.h ****   \return               Base Priority register value
 527:Drivers/CMSIS/Include/cmsis_gcc.h ****  */
 528:Drivers/CMSIS/Include/cmsis_gcc.h **** __STATIC_FORCEINLINE uint32_t __get_BASEPRI(void)
 529:Drivers/CMSIS/Include/cmsis_gcc.h **** {
 530:Drivers/CMSIS/Include/cmsis_gcc.h ****   uint32_t result;
 531:Drivers/CMSIS/Include/cmsis_gcc.h **** 
ARM GAS  /var/folders/l4/6w9kflz11csb_6qsyz46nv3c0000gp/T//cccBIjak.s 			page 36


 532:Drivers/CMSIS/Include/cmsis_gcc.h ****   __ASM volatile ("MRS %0, basepri" : "=r" (result) );
 533:Drivers/CMSIS/Include/cmsis_gcc.h ****   return(result);
 534:Drivers/CMSIS/Include/cmsis_gcc.h **** }
 535:Drivers/CMSIS/Include/cmsis_gcc.h **** 
 536:Drivers/CMSIS/Include/cmsis_gcc.h **** 
 537:Drivers/CMSIS/Include/cmsis_gcc.h **** #if (defined (__ARM_FEATURE_CMSE ) && (__ARM_FEATURE_CMSE == 3))
 538:Drivers/CMSIS/Include/cmsis_gcc.h **** /**
 539:Drivers/CMSIS/Include/cmsis_gcc.h ****   \brief   Get Base Priority (non-secure)
 540:Drivers/CMSIS/Include/cmsis_gcc.h ****   \details Returns the current value of the non-secure Base Priority register when in secure state.
 541:Drivers/CMSIS/Include/cmsis_gcc.h ****   \return               Base Priority register value
 542:Drivers/CMSIS/Include/cmsis_gcc.h ****  */
 543:Drivers/CMSIS/Include/cmsis_gcc.h **** __STATIC_FORCEINLINE uint32_t __TZ_get_BASEPRI_NS(void)
 544:Drivers/CMSIS/Include/cmsis_gcc.h **** {
 545:Drivers/CMSIS/Include/cmsis_gcc.h ****   uint32_t result;
 546:Drivers/CMSIS/Include/cmsis_gcc.h **** 
 547:Drivers/CMSIS/Include/cmsis_gcc.h ****   __ASM volatile ("MRS %0, basepri_ns" : "=r" (result) );
 548:Drivers/CMSIS/Include/cmsis_gcc.h ****   return(result);
 549:Drivers/CMSIS/Include/cmsis_gcc.h **** }
 550:Drivers/CMSIS/Include/cmsis_gcc.h **** #endif
 551:Drivers/CMSIS/Include/cmsis_gcc.h **** 
 552:Drivers/CMSIS/Include/cmsis_gcc.h **** 
 553:Drivers/CMSIS/Include/cmsis_gcc.h **** /**
 554:Drivers/CMSIS/Include/cmsis_gcc.h ****   \brief   Set Base Priority
 555:Drivers/CMSIS/Include/cmsis_gcc.h ****   \details Assigns the given value to the Base Priority register.
 556:Drivers/CMSIS/Include/cmsis_gcc.h ****   \param [in]    basePri  Base Priority value to set
 557:Drivers/CMSIS/Include/cmsis_gcc.h ****  */
 558:Drivers/CMSIS/Include/cmsis_gcc.h **** __STATIC_FORCEINLINE void __set_BASEPRI(uint32_t basePri)
 559:Drivers/CMSIS/Include/cmsis_gcc.h **** {
 560:Drivers/CMSIS/Include/cmsis_gcc.h ****   __ASM volatile ("MSR basepri, %0" : : "r" (basePri) : "memory");
 561:Drivers/CMSIS/Include/cmsis_gcc.h **** }
 562:Drivers/CMSIS/Include/cmsis_gcc.h **** 
 563:Drivers/CMSIS/Include/cmsis_gcc.h **** 
 564:Drivers/CMSIS/Include/cmsis_gcc.h **** #if (defined (__ARM_FEATURE_CMSE ) && (__ARM_FEATURE_CMSE == 3))
 565:Drivers/CMSIS/Include/cmsis_gcc.h **** /**
 566:Drivers/CMSIS/Include/cmsis_gcc.h ****   \brief   Set Base Priority (non-secure)
 567:Drivers/CMSIS/Include/cmsis_gcc.h ****   \details Assigns the given value to the non-secure Base Priority register when in secure state.
 568:Drivers/CMSIS/Include/cmsis_gcc.h ****   \param [in]    basePri  Base Priority value to set
 569:Drivers/CMSIS/Include/cmsis_gcc.h ****  */
 570:Drivers/CMSIS/Include/cmsis_gcc.h **** __STATIC_FORCEINLINE void __TZ_set_BASEPRI_NS(uint32_t basePri)
 571:Drivers/CMSIS/Include/cmsis_gcc.h **** {
 572:Drivers/CMSIS/Include/cmsis_gcc.h ****   __ASM volatile ("MSR basepri_ns, %0" : : "r" (basePri) : "memory");
 573:Drivers/CMSIS/Include/cmsis_gcc.h **** }
 574:Drivers/CMSIS/Include/cmsis_gcc.h **** #endif
 575:Drivers/CMSIS/Include/cmsis_gcc.h **** 
 576:Drivers/CMSIS/Include/cmsis_gcc.h **** 
 577:Drivers/CMSIS/Include/cmsis_gcc.h **** /**
 578:Drivers/CMSIS/Include/cmsis_gcc.h ****   \brief   Set Base Priority with condition
 579:Drivers/CMSIS/Include/cmsis_gcc.h ****   \details Assigns the given value to the Base Priority register only if BASEPRI masking is disable
 580:Drivers/CMSIS/Include/cmsis_gcc.h ****            or the new value increases the BASEPRI priority level.
 581:Drivers/CMSIS/Include/cmsis_gcc.h ****   \param [in]    basePri  Base Priority value to set
 582:Drivers/CMSIS/Include/cmsis_gcc.h ****  */
 583:Drivers/CMSIS/Include/cmsis_gcc.h **** __STATIC_FORCEINLINE void __set_BASEPRI_MAX(uint32_t basePri)
 584:Drivers/CMSIS/Include/cmsis_gcc.h **** {
 585:Drivers/CMSIS/Include/cmsis_gcc.h ****   __ASM volatile ("MSR basepri_max, %0" : : "r" (basePri) : "memory");
 586:Drivers/CMSIS/Include/cmsis_gcc.h **** }
 587:Drivers/CMSIS/Include/cmsis_gcc.h **** 
 588:Drivers/CMSIS/Include/cmsis_gcc.h **** 
ARM GAS  /var/folders/l4/6w9kflz11csb_6qsyz46nv3c0000gp/T//cccBIjak.s 			page 37


 589:Drivers/CMSIS/Include/cmsis_gcc.h **** /**
 590:Drivers/CMSIS/Include/cmsis_gcc.h ****   \brief   Get Fault Mask
 591:Drivers/CMSIS/Include/cmsis_gcc.h ****   \details Returns the current value of the Fault Mask register.
 592:Drivers/CMSIS/Include/cmsis_gcc.h ****   \return               Fault Mask register value
 593:Drivers/CMSIS/Include/cmsis_gcc.h ****  */
 594:Drivers/CMSIS/Include/cmsis_gcc.h **** __STATIC_FORCEINLINE uint32_t __get_FAULTMASK(void)
 595:Drivers/CMSIS/Include/cmsis_gcc.h **** {
 596:Drivers/CMSIS/Include/cmsis_gcc.h ****   uint32_t result;
 597:Drivers/CMSIS/Include/cmsis_gcc.h **** 
 598:Drivers/CMSIS/Include/cmsis_gcc.h ****   __ASM volatile ("MRS %0, faultmask" : "=r" (result) );
 599:Drivers/CMSIS/Include/cmsis_gcc.h ****   return(result);
 600:Drivers/CMSIS/Include/cmsis_gcc.h **** }
 601:Drivers/CMSIS/Include/cmsis_gcc.h **** 
 602:Drivers/CMSIS/Include/cmsis_gcc.h **** 
 603:Drivers/CMSIS/Include/cmsis_gcc.h **** #if (defined (__ARM_FEATURE_CMSE ) && (__ARM_FEATURE_CMSE == 3))
 604:Drivers/CMSIS/Include/cmsis_gcc.h **** /**
 605:Drivers/CMSIS/Include/cmsis_gcc.h ****   \brief   Get Fault Mask (non-secure)
 606:Drivers/CMSIS/Include/cmsis_gcc.h ****   \details Returns the current value of the non-secure Fault Mask register when in secure state.
 607:Drivers/CMSIS/Include/cmsis_gcc.h ****   \return               Fault Mask register value
 608:Drivers/CMSIS/Include/cmsis_gcc.h ****  */
 609:Drivers/CMSIS/Include/cmsis_gcc.h **** __STATIC_FORCEINLINE uint32_t __TZ_get_FAULTMASK_NS(void)
 610:Drivers/CMSIS/Include/cmsis_gcc.h **** {
 611:Drivers/CMSIS/Include/cmsis_gcc.h ****   uint32_t result;
 612:Drivers/CMSIS/Include/cmsis_gcc.h **** 
 613:Drivers/CMSIS/Include/cmsis_gcc.h ****   __ASM volatile ("MRS %0, faultmask_ns" : "=r" (result) );
 614:Drivers/CMSIS/Include/cmsis_gcc.h ****   return(result);
 615:Drivers/CMSIS/Include/cmsis_gcc.h **** }
 616:Drivers/CMSIS/Include/cmsis_gcc.h **** #endif
 617:Drivers/CMSIS/Include/cmsis_gcc.h **** 
 618:Drivers/CMSIS/Include/cmsis_gcc.h **** 
 619:Drivers/CMSIS/Include/cmsis_gcc.h **** /**
 620:Drivers/CMSIS/Include/cmsis_gcc.h ****   \brief   Set Fault Mask
 621:Drivers/CMSIS/Include/cmsis_gcc.h ****   \details Assigns the given value to the Fault Mask register.
 622:Drivers/CMSIS/Include/cmsis_gcc.h ****   \param [in]    faultMask  Fault Mask value to set
 623:Drivers/CMSIS/Include/cmsis_gcc.h ****  */
 624:Drivers/CMSIS/Include/cmsis_gcc.h **** __STATIC_FORCEINLINE void __set_FAULTMASK(uint32_t faultMask)
 625:Drivers/CMSIS/Include/cmsis_gcc.h **** {
 626:Drivers/CMSIS/Include/cmsis_gcc.h ****   __ASM volatile ("MSR faultmask, %0" : : "r" (faultMask) : "memory");
 627:Drivers/CMSIS/Include/cmsis_gcc.h **** }
 628:Drivers/CMSIS/Include/cmsis_gcc.h **** 
 629:Drivers/CMSIS/Include/cmsis_gcc.h **** 
 630:Drivers/CMSIS/Include/cmsis_gcc.h **** #if (defined (__ARM_FEATURE_CMSE ) && (__ARM_FEATURE_CMSE == 3))
 631:Drivers/CMSIS/Include/cmsis_gcc.h **** /**
 632:Drivers/CMSIS/Include/cmsis_gcc.h ****   \brief   Set Fault Mask (non-secure)
 633:Drivers/CMSIS/Include/cmsis_gcc.h ****   \details Assigns the given value to the non-secure Fault Mask register when in secure state.
 634:Drivers/CMSIS/Include/cmsis_gcc.h ****   \param [in]    faultMask  Fault Mask value to set
 635:Drivers/CMSIS/Include/cmsis_gcc.h ****  */
 636:Drivers/CMSIS/Include/cmsis_gcc.h **** __STATIC_FORCEINLINE void __TZ_set_FAULTMASK_NS(uint32_t faultMask)
 637:Drivers/CMSIS/Include/cmsis_gcc.h **** {
 638:Drivers/CMSIS/Include/cmsis_gcc.h ****   __ASM volatile ("MSR faultmask_ns, %0" : : "r" (faultMask) : "memory");
 639:Drivers/CMSIS/Include/cmsis_gcc.h **** }
 640:Drivers/CMSIS/Include/cmsis_gcc.h **** #endif
 641:Drivers/CMSIS/Include/cmsis_gcc.h **** 
 642:Drivers/CMSIS/Include/cmsis_gcc.h **** #endif /* ((defined (__ARM_ARCH_7M__      ) && (__ARM_ARCH_7M__      == 1)) || \
 643:Drivers/CMSIS/Include/cmsis_gcc.h ****            (defined (__ARM_ARCH_7EM__     ) && (__ARM_ARCH_7EM__     == 1)) || \
 644:Drivers/CMSIS/Include/cmsis_gcc.h ****            (defined (__ARM_ARCH_8M_MAIN__ ) && (__ARM_ARCH_8M_MAIN__ == 1))    ) */
 645:Drivers/CMSIS/Include/cmsis_gcc.h **** 
ARM GAS  /var/folders/l4/6w9kflz11csb_6qsyz46nv3c0000gp/T//cccBIjak.s 			page 38


 646:Drivers/CMSIS/Include/cmsis_gcc.h **** 
 647:Drivers/CMSIS/Include/cmsis_gcc.h **** #if ((defined (__ARM_ARCH_8M_MAIN__ ) && (__ARM_ARCH_8M_MAIN__ == 1)) || \
 648:Drivers/CMSIS/Include/cmsis_gcc.h ****      (defined (__ARM_ARCH_8M_BASE__ ) && (__ARM_ARCH_8M_BASE__ == 1))    )
 649:Drivers/CMSIS/Include/cmsis_gcc.h **** 
 650:Drivers/CMSIS/Include/cmsis_gcc.h **** /**
 651:Drivers/CMSIS/Include/cmsis_gcc.h ****   \brief   Get Process Stack Pointer Limit
 652:Drivers/CMSIS/Include/cmsis_gcc.h ****   Devices without ARMv8-M Main Extensions (i.e. Cortex-M23) lack the non-secure
 653:Drivers/CMSIS/Include/cmsis_gcc.h ****   Stack Pointer Limit register hence zero is returned always in non-secure
 654:Drivers/CMSIS/Include/cmsis_gcc.h ****   mode.
 655:Drivers/CMSIS/Include/cmsis_gcc.h ****   
 656:Drivers/CMSIS/Include/cmsis_gcc.h ****   \details Returns the current value of the Process Stack Pointer Limit (PSPLIM).
 657:Drivers/CMSIS/Include/cmsis_gcc.h ****   \return               PSPLIM Register value
 658:Drivers/CMSIS/Include/cmsis_gcc.h ****  */
 659:Drivers/CMSIS/Include/cmsis_gcc.h **** __STATIC_FORCEINLINE uint32_t __get_PSPLIM(void)
 660:Drivers/CMSIS/Include/cmsis_gcc.h **** {
 661:Drivers/CMSIS/Include/cmsis_gcc.h **** #if (!(defined (__ARM_ARCH_8M_MAIN__ ) && (__ARM_ARCH_8M_MAIN__ == 1)) && \
 662:Drivers/CMSIS/Include/cmsis_gcc.h ****     (!defined (__ARM_FEATURE_CMSE) || (__ARM_FEATURE_CMSE < 3)))
 663:Drivers/CMSIS/Include/cmsis_gcc.h ****     // without main extensions, the non-secure PSPLIM is RAZ/WI
 664:Drivers/CMSIS/Include/cmsis_gcc.h ****   return 0U;
 665:Drivers/CMSIS/Include/cmsis_gcc.h **** #else
 666:Drivers/CMSIS/Include/cmsis_gcc.h ****   uint32_t result;
 667:Drivers/CMSIS/Include/cmsis_gcc.h ****   __ASM volatile ("MRS %0, psplim"  : "=r" (result) );
 668:Drivers/CMSIS/Include/cmsis_gcc.h ****   return result;
 669:Drivers/CMSIS/Include/cmsis_gcc.h **** #endif
 670:Drivers/CMSIS/Include/cmsis_gcc.h **** }
 671:Drivers/CMSIS/Include/cmsis_gcc.h **** 
 672:Drivers/CMSIS/Include/cmsis_gcc.h **** #if (defined (__ARM_FEATURE_CMSE) && (__ARM_FEATURE_CMSE == 3))
 673:Drivers/CMSIS/Include/cmsis_gcc.h **** /**
 674:Drivers/CMSIS/Include/cmsis_gcc.h ****   \brief   Get Process Stack Pointer Limit (non-secure)
 675:Drivers/CMSIS/Include/cmsis_gcc.h ****   Devices without ARMv8-M Main Extensions (i.e. Cortex-M23) lack the non-secure
 676:Drivers/CMSIS/Include/cmsis_gcc.h ****   Stack Pointer Limit register hence zero is returned always.
 677:Drivers/CMSIS/Include/cmsis_gcc.h **** 
 678:Drivers/CMSIS/Include/cmsis_gcc.h ****   \details Returns the current value of the non-secure Process Stack Pointer Limit (PSPLIM) when in
 679:Drivers/CMSIS/Include/cmsis_gcc.h ****   \return               PSPLIM Register value
 680:Drivers/CMSIS/Include/cmsis_gcc.h ****  */
 681:Drivers/CMSIS/Include/cmsis_gcc.h **** __STATIC_FORCEINLINE uint32_t __TZ_get_PSPLIM_NS(void)
 682:Drivers/CMSIS/Include/cmsis_gcc.h **** {
 683:Drivers/CMSIS/Include/cmsis_gcc.h **** #if (!(defined (__ARM_ARCH_8M_MAIN__ ) && (__ARM_ARCH_8M_MAIN__ == 1)))
 684:Drivers/CMSIS/Include/cmsis_gcc.h ****   // without main extensions, the non-secure PSPLIM is RAZ/WI
 685:Drivers/CMSIS/Include/cmsis_gcc.h ****   return 0U;
 686:Drivers/CMSIS/Include/cmsis_gcc.h **** #else
 687:Drivers/CMSIS/Include/cmsis_gcc.h ****   uint32_t result;
 688:Drivers/CMSIS/Include/cmsis_gcc.h ****   __ASM volatile ("MRS %0, psplim_ns"  : "=r" (result) );
 689:Drivers/CMSIS/Include/cmsis_gcc.h ****   return result;
 690:Drivers/CMSIS/Include/cmsis_gcc.h **** #endif
 691:Drivers/CMSIS/Include/cmsis_gcc.h **** }
 692:Drivers/CMSIS/Include/cmsis_gcc.h **** #endif
 693:Drivers/CMSIS/Include/cmsis_gcc.h **** 
 694:Drivers/CMSIS/Include/cmsis_gcc.h **** 
 695:Drivers/CMSIS/Include/cmsis_gcc.h **** /**
 696:Drivers/CMSIS/Include/cmsis_gcc.h ****   \brief   Set Process Stack Pointer Limit
 697:Drivers/CMSIS/Include/cmsis_gcc.h ****   Devices without ARMv8-M Main Extensions (i.e. Cortex-M23) lack the non-secure
 698:Drivers/CMSIS/Include/cmsis_gcc.h ****   Stack Pointer Limit register hence the write is silently ignored in non-secure
 699:Drivers/CMSIS/Include/cmsis_gcc.h ****   mode.
 700:Drivers/CMSIS/Include/cmsis_gcc.h ****   
 701:Drivers/CMSIS/Include/cmsis_gcc.h ****   \details Assigns the given value to the Process Stack Pointer Limit (PSPLIM).
 702:Drivers/CMSIS/Include/cmsis_gcc.h ****   \param [in]    ProcStackPtrLimit  Process Stack Pointer Limit value to set
ARM GAS  /var/folders/l4/6w9kflz11csb_6qsyz46nv3c0000gp/T//cccBIjak.s 			page 39


 703:Drivers/CMSIS/Include/cmsis_gcc.h ****  */
 704:Drivers/CMSIS/Include/cmsis_gcc.h **** __STATIC_FORCEINLINE void __set_PSPLIM(uint32_t ProcStackPtrLimit)
 705:Drivers/CMSIS/Include/cmsis_gcc.h **** {
 706:Drivers/CMSIS/Include/cmsis_gcc.h **** #if (!(defined (__ARM_ARCH_8M_MAIN__ ) && (__ARM_ARCH_8M_MAIN__ == 1)) && \
 707:Drivers/CMSIS/Include/cmsis_gcc.h ****     (!defined (__ARM_FEATURE_CMSE) || (__ARM_FEATURE_CMSE < 3)))
 708:Drivers/CMSIS/Include/cmsis_gcc.h ****   // without main extensions, the non-secure PSPLIM is RAZ/WI
 709:Drivers/CMSIS/Include/cmsis_gcc.h ****   (void)ProcStackPtrLimit;
 710:Drivers/CMSIS/Include/cmsis_gcc.h **** #else
 711:Drivers/CMSIS/Include/cmsis_gcc.h ****   __ASM volatile ("MSR psplim, %0" : : "r" (ProcStackPtrLimit));
 712:Drivers/CMSIS/Include/cmsis_gcc.h **** #endif
 713:Drivers/CMSIS/Include/cmsis_gcc.h **** }
 714:Drivers/CMSIS/Include/cmsis_gcc.h **** 
 715:Drivers/CMSIS/Include/cmsis_gcc.h **** 
 716:Drivers/CMSIS/Include/cmsis_gcc.h **** #if (defined (__ARM_FEATURE_CMSE  ) && (__ARM_FEATURE_CMSE   == 3))
 717:Drivers/CMSIS/Include/cmsis_gcc.h **** /**
 718:Drivers/CMSIS/Include/cmsis_gcc.h ****   \brief   Set Process Stack Pointer (non-secure)
 719:Drivers/CMSIS/Include/cmsis_gcc.h ****   Devices without ARMv8-M Main Extensions (i.e. Cortex-M23) lack the non-secure
 720:Drivers/CMSIS/Include/cmsis_gcc.h ****   Stack Pointer Limit register hence the write is silently ignored.
 721:Drivers/CMSIS/Include/cmsis_gcc.h **** 
 722:Drivers/CMSIS/Include/cmsis_gcc.h ****   \details Assigns the given value to the non-secure Process Stack Pointer Limit (PSPLIM) when in s
 723:Drivers/CMSIS/Include/cmsis_gcc.h ****   \param [in]    ProcStackPtrLimit  Process Stack Pointer Limit value to set
 724:Drivers/CMSIS/Include/cmsis_gcc.h ****  */
 725:Drivers/CMSIS/Include/cmsis_gcc.h **** __STATIC_FORCEINLINE void __TZ_set_PSPLIM_NS(uint32_t ProcStackPtrLimit)
 726:Drivers/CMSIS/Include/cmsis_gcc.h **** {
 727:Drivers/CMSIS/Include/cmsis_gcc.h **** #if (!(defined (__ARM_ARCH_8M_MAIN__ ) && (__ARM_ARCH_8M_MAIN__ == 1)))
 728:Drivers/CMSIS/Include/cmsis_gcc.h ****   // without main extensions, the non-secure PSPLIM is RAZ/WI
 729:Drivers/CMSIS/Include/cmsis_gcc.h ****   (void)ProcStackPtrLimit;
 730:Drivers/CMSIS/Include/cmsis_gcc.h **** #else
 731:Drivers/CMSIS/Include/cmsis_gcc.h ****   __ASM volatile ("MSR psplim_ns, %0\n" : : "r" (ProcStackPtrLimit));
 732:Drivers/CMSIS/Include/cmsis_gcc.h **** #endif
 733:Drivers/CMSIS/Include/cmsis_gcc.h **** }
 734:Drivers/CMSIS/Include/cmsis_gcc.h **** #endif
 735:Drivers/CMSIS/Include/cmsis_gcc.h **** 
 736:Drivers/CMSIS/Include/cmsis_gcc.h **** 
 737:Drivers/CMSIS/Include/cmsis_gcc.h **** /**
 738:Drivers/CMSIS/Include/cmsis_gcc.h ****   \brief   Get Main Stack Pointer Limit
 739:Drivers/CMSIS/Include/cmsis_gcc.h ****   Devices without ARMv8-M Main Extensions (i.e. Cortex-M23) lack the non-secure
 740:Drivers/CMSIS/Include/cmsis_gcc.h ****   Stack Pointer Limit register hence zero is returned always in non-secure
 741:Drivers/CMSIS/Include/cmsis_gcc.h ****   mode.
 742:Drivers/CMSIS/Include/cmsis_gcc.h **** 
 743:Drivers/CMSIS/Include/cmsis_gcc.h ****   \details Returns the current value of the Main Stack Pointer Limit (MSPLIM).
 744:Drivers/CMSIS/Include/cmsis_gcc.h ****   \return               MSPLIM Register value
 745:Drivers/CMSIS/Include/cmsis_gcc.h ****  */
 746:Drivers/CMSIS/Include/cmsis_gcc.h **** __STATIC_FORCEINLINE uint32_t __get_MSPLIM(void)
 747:Drivers/CMSIS/Include/cmsis_gcc.h **** {
 748:Drivers/CMSIS/Include/cmsis_gcc.h **** #if (!(defined (__ARM_ARCH_8M_MAIN__ ) && (__ARM_ARCH_8M_MAIN__ == 1)) && \
 749:Drivers/CMSIS/Include/cmsis_gcc.h ****     (!defined (__ARM_FEATURE_CMSE) || (__ARM_FEATURE_CMSE < 3)))
 750:Drivers/CMSIS/Include/cmsis_gcc.h ****   // without main extensions, the non-secure MSPLIM is RAZ/WI
 751:Drivers/CMSIS/Include/cmsis_gcc.h ****   return 0U;
 752:Drivers/CMSIS/Include/cmsis_gcc.h **** #else
 753:Drivers/CMSIS/Include/cmsis_gcc.h ****   uint32_t result;
 754:Drivers/CMSIS/Include/cmsis_gcc.h ****   __ASM volatile ("MRS %0, msplim" : "=r" (result) );
 755:Drivers/CMSIS/Include/cmsis_gcc.h ****   return result;
 756:Drivers/CMSIS/Include/cmsis_gcc.h **** #endif
 757:Drivers/CMSIS/Include/cmsis_gcc.h **** }
 758:Drivers/CMSIS/Include/cmsis_gcc.h **** 
 759:Drivers/CMSIS/Include/cmsis_gcc.h **** 
ARM GAS  /var/folders/l4/6w9kflz11csb_6qsyz46nv3c0000gp/T//cccBIjak.s 			page 40


 760:Drivers/CMSIS/Include/cmsis_gcc.h **** #if (defined (__ARM_FEATURE_CMSE  ) && (__ARM_FEATURE_CMSE   == 3))
 761:Drivers/CMSIS/Include/cmsis_gcc.h **** /**
 762:Drivers/CMSIS/Include/cmsis_gcc.h ****   \brief   Get Main Stack Pointer Limit (non-secure)
 763:Drivers/CMSIS/Include/cmsis_gcc.h ****   Devices without ARMv8-M Main Extensions (i.e. Cortex-M23) lack the non-secure
 764:Drivers/CMSIS/Include/cmsis_gcc.h ****   Stack Pointer Limit register hence zero is returned always.
 765:Drivers/CMSIS/Include/cmsis_gcc.h **** 
 766:Drivers/CMSIS/Include/cmsis_gcc.h ****   \details Returns the current value of the non-secure Main Stack Pointer Limit(MSPLIM) when in sec
 767:Drivers/CMSIS/Include/cmsis_gcc.h ****   \return               MSPLIM Register value
 768:Drivers/CMSIS/Include/cmsis_gcc.h ****  */
 769:Drivers/CMSIS/Include/cmsis_gcc.h **** __STATIC_FORCEINLINE uint32_t __TZ_get_MSPLIM_NS(void)
 770:Drivers/CMSIS/Include/cmsis_gcc.h **** {
 771:Drivers/CMSIS/Include/cmsis_gcc.h **** #if (!(defined (__ARM_ARCH_8M_MAIN__ ) && (__ARM_ARCH_8M_MAIN__ == 1)))
 772:Drivers/CMSIS/Include/cmsis_gcc.h ****   // without main extensions, the non-secure MSPLIM is RAZ/WI
 773:Drivers/CMSIS/Include/cmsis_gcc.h ****   return 0U;
 774:Drivers/CMSIS/Include/cmsis_gcc.h **** #else
 775:Drivers/CMSIS/Include/cmsis_gcc.h ****   uint32_t result;
 776:Drivers/CMSIS/Include/cmsis_gcc.h ****   __ASM volatile ("MRS %0, msplim_ns" : "=r" (result) );
 777:Drivers/CMSIS/Include/cmsis_gcc.h ****   return result;
 778:Drivers/CMSIS/Include/cmsis_gcc.h **** #endif
 779:Drivers/CMSIS/Include/cmsis_gcc.h **** }
 780:Drivers/CMSIS/Include/cmsis_gcc.h **** #endif
 781:Drivers/CMSIS/Include/cmsis_gcc.h **** 
 782:Drivers/CMSIS/Include/cmsis_gcc.h **** 
 783:Drivers/CMSIS/Include/cmsis_gcc.h **** /**
 784:Drivers/CMSIS/Include/cmsis_gcc.h ****   \brief   Set Main Stack Pointer Limit
 785:Drivers/CMSIS/Include/cmsis_gcc.h ****   Devices without ARMv8-M Main Extensions (i.e. Cortex-M23) lack the non-secure
 786:Drivers/CMSIS/Include/cmsis_gcc.h ****   Stack Pointer Limit register hence the write is silently ignored in non-secure
 787:Drivers/CMSIS/Include/cmsis_gcc.h ****   mode.
 788:Drivers/CMSIS/Include/cmsis_gcc.h **** 
 789:Drivers/CMSIS/Include/cmsis_gcc.h ****   \details Assigns the given value to the Main Stack Pointer Limit (MSPLIM).
 790:Drivers/CMSIS/Include/cmsis_gcc.h ****   \param [in]    MainStackPtrLimit  Main Stack Pointer Limit value to set
 791:Drivers/CMSIS/Include/cmsis_gcc.h ****  */
 792:Drivers/CMSIS/Include/cmsis_gcc.h **** __STATIC_FORCEINLINE void __set_MSPLIM(uint32_t MainStackPtrLimit)
 793:Drivers/CMSIS/Include/cmsis_gcc.h **** {
 794:Drivers/CMSIS/Include/cmsis_gcc.h **** #if (!(defined (__ARM_ARCH_8M_MAIN__ ) && (__ARM_ARCH_8M_MAIN__ == 1)) && \
 795:Drivers/CMSIS/Include/cmsis_gcc.h ****     (!defined (__ARM_FEATURE_CMSE) || (__ARM_FEATURE_CMSE < 3)))
 796:Drivers/CMSIS/Include/cmsis_gcc.h ****   // without main extensions, the non-secure MSPLIM is RAZ/WI
 797:Drivers/CMSIS/Include/cmsis_gcc.h ****   (void)MainStackPtrLimit;
 798:Drivers/CMSIS/Include/cmsis_gcc.h **** #else
 799:Drivers/CMSIS/Include/cmsis_gcc.h ****   __ASM volatile ("MSR msplim, %0" : : "r" (MainStackPtrLimit));
 800:Drivers/CMSIS/Include/cmsis_gcc.h **** #endif
 801:Drivers/CMSIS/Include/cmsis_gcc.h **** }
 802:Drivers/CMSIS/Include/cmsis_gcc.h **** 
 803:Drivers/CMSIS/Include/cmsis_gcc.h **** 
 804:Drivers/CMSIS/Include/cmsis_gcc.h **** #if (defined (__ARM_FEATURE_CMSE  ) && (__ARM_FEATURE_CMSE   == 3))
 805:Drivers/CMSIS/Include/cmsis_gcc.h **** /**
 806:Drivers/CMSIS/Include/cmsis_gcc.h ****   \brief   Set Main Stack Pointer Limit (non-secure)
 807:Drivers/CMSIS/Include/cmsis_gcc.h ****   Devices without ARMv8-M Main Extensions (i.e. Cortex-M23) lack the non-secure
 808:Drivers/CMSIS/Include/cmsis_gcc.h ****   Stack Pointer Limit register hence the write is silently ignored.
 809:Drivers/CMSIS/Include/cmsis_gcc.h **** 
 810:Drivers/CMSIS/Include/cmsis_gcc.h ****   \details Assigns the given value to the non-secure Main Stack Pointer Limit (MSPLIM) when in secu
 811:Drivers/CMSIS/Include/cmsis_gcc.h ****   \param [in]    MainStackPtrLimit  Main Stack Pointer value to set
 812:Drivers/CMSIS/Include/cmsis_gcc.h ****  */
 813:Drivers/CMSIS/Include/cmsis_gcc.h **** __STATIC_FORCEINLINE void __TZ_set_MSPLIM_NS(uint32_t MainStackPtrLimit)
 814:Drivers/CMSIS/Include/cmsis_gcc.h **** {
 815:Drivers/CMSIS/Include/cmsis_gcc.h **** #if (!(defined (__ARM_ARCH_8M_MAIN__ ) && (__ARM_ARCH_8M_MAIN__ == 1)))
 816:Drivers/CMSIS/Include/cmsis_gcc.h ****   // without main extensions, the non-secure MSPLIM is RAZ/WI
ARM GAS  /var/folders/l4/6w9kflz11csb_6qsyz46nv3c0000gp/T//cccBIjak.s 			page 41


 817:Drivers/CMSIS/Include/cmsis_gcc.h ****   (void)MainStackPtrLimit;
 818:Drivers/CMSIS/Include/cmsis_gcc.h **** #else
 819:Drivers/CMSIS/Include/cmsis_gcc.h ****   __ASM volatile ("MSR msplim_ns, %0" : : "r" (MainStackPtrLimit));
 820:Drivers/CMSIS/Include/cmsis_gcc.h **** #endif
 821:Drivers/CMSIS/Include/cmsis_gcc.h **** }
 822:Drivers/CMSIS/Include/cmsis_gcc.h **** #endif
 823:Drivers/CMSIS/Include/cmsis_gcc.h **** 
 824:Drivers/CMSIS/Include/cmsis_gcc.h **** #endif /* ((defined (__ARM_ARCH_8M_MAIN__ ) && (__ARM_ARCH_8M_MAIN__ == 1)) || \
 825:Drivers/CMSIS/Include/cmsis_gcc.h ****            (defined (__ARM_ARCH_8M_BASE__ ) && (__ARM_ARCH_8M_BASE__ == 1))    ) */
 826:Drivers/CMSIS/Include/cmsis_gcc.h **** 
 827:Drivers/CMSIS/Include/cmsis_gcc.h **** 
 828:Drivers/CMSIS/Include/cmsis_gcc.h **** /**
 829:Drivers/CMSIS/Include/cmsis_gcc.h ****   \brief   Get FPSCR
 830:Drivers/CMSIS/Include/cmsis_gcc.h ****   \details Returns the current value of the Floating Point Status/Control register.
 831:Drivers/CMSIS/Include/cmsis_gcc.h ****   \return               Floating Point Status/Control register value
 832:Drivers/CMSIS/Include/cmsis_gcc.h ****  */
 833:Drivers/CMSIS/Include/cmsis_gcc.h **** __STATIC_FORCEINLINE uint32_t __get_FPSCR(void)
 834:Drivers/CMSIS/Include/cmsis_gcc.h **** {
 835:Drivers/CMSIS/Include/cmsis_gcc.h **** #if ((defined (__FPU_PRESENT) && (__FPU_PRESENT == 1U)) && \
 836:Drivers/CMSIS/Include/cmsis_gcc.h ****      (defined (__FPU_USED   ) && (__FPU_USED    == 1U))     )
 837:Drivers/CMSIS/Include/cmsis_gcc.h **** #if __has_builtin(__builtin_arm_get_fpscr) 
 838:Drivers/CMSIS/Include/cmsis_gcc.h **** // Re-enable using built-in when GCC has been fixed
 839:Drivers/CMSIS/Include/cmsis_gcc.h **** // || (__GNUC__ > 7) || (__GNUC__ == 7 && __GNUC_MINOR__ >= 2)
 840:Drivers/CMSIS/Include/cmsis_gcc.h ****   /* see https://gcc.gnu.org/ml/gcc-patches/2017-04/msg00443.html */
 841:Drivers/CMSIS/Include/cmsis_gcc.h ****   return __builtin_arm_get_fpscr();
 842:Drivers/CMSIS/Include/cmsis_gcc.h **** #else
 843:Drivers/CMSIS/Include/cmsis_gcc.h ****   uint32_t result;
 844:Drivers/CMSIS/Include/cmsis_gcc.h **** 
 845:Drivers/CMSIS/Include/cmsis_gcc.h ****   __ASM volatile ("VMRS %0, fpscr" : "=r" (result) );
 846:Drivers/CMSIS/Include/cmsis_gcc.h ****   return(result);
 847:Drivers/CMSIS/Include/cmsis_gcc.h **** #endif
 848:Drivers/CMSIS/Include/cmsis_gcc.h **** #else
 849:Drivers/CMSIS/Include/cmsis_gcc.h ****   return(0U);
 850:Drivers/CMSIS/Include/cmsis_gcc.h **** #endif
 851:Drivers/CMSIS/Include/cmsis_gcc.h **** }
 852:Drivers/CMSIS/Include/cmsis_gcc.h **** 
 853:Drivers/CMSIS/Include/cmsis_gcc.h **** 
 854:Drivers/CMSIS/Include/cmsis_gcc.h **** /**
 855:Drivers/CMSIS/Include/cmsis_gcc.h ****   \brief   Set FPSCR
 856:Drivers/CMSIS/Include/cmsis_gcc.h ****   \details Assigns the given value to the Floating Point Status/Control register.
 857:Drivers/CMSIS/Include/cmsis_gcc.h ****   \param [in]    fpscr  Floating Point Status/Control value to set
 858:Drivers/CMSIS/Include/cmsis_gcc.h ****  */
 859:Drivers/CMSIS/Include/cmsis_gcc.h **** __STATIC_FORCEINLINE void __set_FPSCR(uint32_t fpscr)
 860:Drivers/CMSIS/Include/cmsis_gcc.h **** {
 861:Drivers/CMSIS/Include/cmsis_gcc.h **** #if ((defined (__FPU_PRESENT) && (__FPU_PRESENT == 1U)) && \
 862:Drivers/CMSIS/Include/cmsis_gcc.h ****      (defined (__FPU_USED   ) && (__FPU_USED    == 1U))     )
 863:Drivers/CMSIS/Include/cmsis_gcc.h **** #if __has_builtin(__builtin_arm_set_fpscr)
 864:Drivers/CMSIS/Include/cmsis_gcc.h **** // Re-enable using built-in when GCC has been fixed
 865:Drivers/CMSIS/Include/cmsis_gcc.h **** // || (__GNUC__ > 7) || (__GNUC__ == 7 && __GNUC_MINOR__ >= 2)
 866:Drivers/CMSIS/Include/cmsis_gcc.h ****   /* see https://gcc.gnu.org/ml/gcc-patches/2017-04/msg00443.html */
 867:Drivers/CMSIS/Include/cmsis_gcc.h ****   __builtin_arm_set_fpscr(fpscr);
 868:Drivers/CMSIS/Include/cmsis_gcc.h **** #else
 869:Drivers/CMSIS/Include/cmsis_gcc.h ****   __ASM volatile ("VMSR fpscr, %0" : : "r" (fpscr) : "vfpcc", "memory");
 870:Drivers/CMSIS/Include/cmsis_gcc.h **** #endif
 871:Drivers/CMSIS/Include/cmsis_gcc.h **** #else
 872:Drivers/CMSIS/Include/cmsis_gcc.h ****   (void)fpscr;
 873:Drivers/CMSIS/Include/cmsis_gcc.h **** #endif
ARM GAS  /var/folders/l4/6w9kflz11csb_6qsyz46nv3c0000gp/T//cccBIjak.s 			page 42


 874:Drivers/CMSIS/Include/cmsis_gcc.h **** }
 875:Drivers/CMSIS/Include/cmsis_gcc.h **** 
 876:Drivers/CMSIS/Include/cmsis_gcc.h **** 
 877:Drivers/CMSIS/Include/cmsis_gcc.h **** /*@} end of CMSIS_Core_RegAccFunctions */
 878:Drivers/CMSIS/Include/cmsis_gcc.h **** 
 879:Drivers/CMSIS/Include/cmsis_gcc.h **** 
 880:Drivers/CMSIS/Include/cmsis_gcc.h **** /* ##########################  Core Instruction Access  ######################### */
 881:Drivers/CMSIS/Include/cmsis_gcc.h **** /** \defgroup CMSIS_Core_InstructionInterface CMSIS Core Instruction Interface
 882:Drivers/CMSIS/Include/cmsis_gcc.h ****   Access to dedicated instructions
 883:Drivers/CMSIS/Include/cmsis_gcc.h ****   @{
 884:Drivers/CMSIS/Include/cmsis_gcc.h **** */
 885:Drivers/CMSIS/Include/cmsis_gcc.h **** 
 886:Drivers/CMSIS/Include/cmsis_gcc.h **** /* Define macros for porting to both thumb1 and thumb2.
 887:Drivers/CMSIS/Include/cmsis_gcc.h ****  * For thumb1, use low register (r0-r7), specified by constraint "l"
 888:Drivers/CMSIS/Include/cmsis_gcc.h ****  * Otherwise, use general registers, specified by constraint "r" */
 889:Drivers/CMSIS/Include/cmsis_gcc.h **** #if defined (__thumb__) && !defined (__thumb2__)
 890:Drivers/CMSIS/Include/cmsis_gcc.h **** #define __CMSIS_GCC_OUT_REG(r) "=l" (r)
 891:Drivers/CMSIS/Include/cmsis_gcc.h **** #define __CMSIS_GCC_RW_REG(r) "+l" (r)
 892:Drivers/CMSIS/Include/cmsis_gcc.h **** #define __CMSIS_GCC_USE_REG(r) "l" (r)
 893:Drivers/CMSIS/Include/cmsis_gcc.h **** #else
 894:Drivers/CMSIS/Include/cmsis_gcc.h **** #define __CMSIS_GCC_OUT_REG(r) "=r" (r)
 895:Drivers/CMSIS/Include/cmsis_gcc.h **** #define __CMSIS_GCC_RW_REG(r) "+r" (r)
 896:Drivers/CMSIS/Include/cmsis_gcc.h **** #define __CMSIS_GCC_USE_REG(r) "r" (r)
 897:Drivers/CMSIS/Include/cmsis_gcc.h **** #endif
 898:Drivers/CMSIS/Include/cmsis_gcc.h **** 
 899:Drivers/CMSIS/Include/cmsis_gcc.h **** /**
 900:Drivers/CMSIS/Include/cmsis_gcc.h ****   \brief   No Operation
 901:Drivers/CMSIS/Include/cmsis_gcc.h ****   \details No Operation does nothing. This instruction can be used for code alignment purposes.
 902:Drivers/CMSIS/Include/cmsis_gcc.h ****  */
 903:Drivers/CMSIS/Include/cmsis_gcc.h **** #define __NOP()                             __ASM volatile ("nop")
 904:Drivers/CMSIS/Include/cmsis_gcc.h **** 
 905:Drivers/CMSIS/Include/cmsis_gcc.h **** /**
 906:Drivers/CMSIS/Include/cmsis_gcc.h ****   \brief   Wait For Interrupt
 907:Drivers/CMSIS/Include/cmsis_gcc.h ****   \details Wait For Interrupt is a hint instruction that suspends execution until one of a number o
 908:Drivers/CMSIS/Include/cmsis_gcc.h ****  */
 909:Drivers/CMSIS/Include/cmsis_gcc.h **** #define __WFI()                             __ASM volatile ("wfi")
 910:Drivers/CMSIS/Include/cmsis_gcc.h **** 
 911:Drivers/CMSIS/Include/cmsis_gcc.h **** 
 912:Drivers/CMSIS/Include/cmsis_gcc.h **** /**
 913:Drivers/CMSIS/Include/cmsis_gcc.h ****   \brief   Wait For Event
 914:Drivers/CMSIS/Include/cmsis_gcc.h ****   \details Wait For Event is a hint instruction that permits the processor to enter
 915:Drivers/CMSIS/Include/cmsis_gcc.h ****            a low-power state until one of a number of events occurs.
 916:Drivers/CMSIS/Include/cmsis_gcc.h ****  */
 917:Drivers/CMSIS/Include/cmsis_gcc.h **** #define __WFE()                             __ASM volatile ("wfe")
 918:Drivers/CMSIS/Include/cmsis_gcc.h **** 
 919:Drivers/CMSIS/Include/cmsis_gcc.h **** 
 920:Drivers/CMSIS/Include/cmsis_gcc.h **** /**
 921:Drivers/CMSIS/Include/cmsis_gcc.h ****   \brief   Send Event
 922:Drivers/CMSIS/Include/cmsis_gcc.h ****   \details Send Event is a hint instruction. It causes an event to be signaled to the CPU.
 923:Drivers/CMSIS/Include/cmsis_gcc.h ****  */
 924:Drivers/CMSIS/Include/cmsis_gcc.h **** #define __SEV()                             __ASM volatile ("sev")
 925:Drivers/CMSIS/Include/cmsis_gcc.h **** 
 926:Drivers/CMSIS/Include/cmsis_gcc.h **** 
 927:Drivers/CMSIS/Include/cmsis_gcc.h **** /**
 928:Drivers/CMSIS/Include/cmsis_gcc.h ****   \brief   Instruction Synchronization Barrier
 929:Drivers/CMSIS/Include/cmsis_gcc.h ****   \details Instruction Synchronization Barrier flushes the pipeline in the processor,
 930:Drivers/CMSIS/Include/cmsis_gcc.h ****            so that all instructions following the ISB are fetched from cache or memory,
ARM GAS  /var/folders/l4/6w9kflz11csb_6qsyz46nv3c0000gp/T//cccBIjak.s 			page 43


 931:Drivers/CMSIS/Include/cmsis_gcc.h ****            after the instruction has been completed.
 932:Drivers/CMSIS/Include/cmsis_gcc.h ****  */
 933:Drivers/CMSIS/Include/cmsis_gcc.h **** __STATIC_FORCEINLINE void __ISB(void)
 934:Drivers/CMSIS/Include/cmsis_gcc.h **** {
 935:Drivers/CMSIS/Include/cmsis_gcc.h ****   __ASM volatile ("isb 0xF":::"memory");
 936:Drivers/CMSIS/Include/cmsis_gcc.h **** }
 937:Drivers/CMSIS/Include/cmsis_gcc.h **** 
 938:Drivers/CMSIS/Include/cmsis_gcc.h **** 
 939:Drivers/CMSIS/Include/cmsis_gcc.h **** /**
 940:Drivers/CMSIS/Include/cmsis_gcc.h ****   \brief   Data Synchronization Barrier
 941:Drivers/CMSIS/Include/cmsis_gcc.h ****   \details Acts as a special kind of Data Memory Barrier.
 942:Drivers/CMSIS/Include/cmsis_gcc.h ****            It completes when all explicit memory accesses before this instruction complete.
 943:Drivers/CMSIS/Include/cmsis_gcc.h ****  */
 944:Drivers/CMSIS/Include/cmsis_gcc.h **** __STATIC_FORCEINLINE void __DSB(void)
 866              		.loc 2 944 27 view .LVU274
 867              	.LBB24:
 945:Drivers/CMSIS/Include/cmsis_gcc.h **** {
 946:Drivers/CMSIS/Include/cmsis_gcc.h ****   __ASM volatile ("dsb 0xF":::"memory");
 868              		.loc 2 946 3 view .LVU275
 869              		.syntax unified
 870              	@ 946 "Drivers/CMSIS/Include/cmsis_gcc.h" 1
 871 0006 BFF34F8F 		dsb 0xF
 872              	@ 0 "" 2
 873              		.thumb
 874              		.syntax unified
 875              	.LBE24:
 876              	.LBE23:
 105:Core/Src/main.c ****   /* USER CODE END 1 */
 877              		.loc 1 105 1 view .LVU276
 878              	.LBB25:
 879              	.LBI25:
 933:Drivers/CMSIS/Include/cmsis_gcc.h **** {
 880              		.loc 2 933 27 view .LVU277
 881              	.LBB26:
 935:Drivers/CMSIS/Include/cmsis_gcc.h **** }
 882              		.loc 2 935 3 view .LVU278
 883              		.syntax unified
 884              	@ 935 "Drivers/CMSIS/Include/cmsis_gcc.h" 1
 885 000a BFF36F8F 		isb 0xF
 886              	@ 0 "" 2
 887              		.thumb
 888              		.syntax unified
 889              	.LBE26:
 890              	.LBE25:
 114:Core/Src/main.c **** 
 891              		.loc 1 114 3 view .LVU279
 892 000e FFF7FEFF 		bl	HAL_Init
 893              	.LVL35:
 121:Core/Src/main.c **** 
 894              		.loc 1 121 3 view .LVU280
 895 0012 FFF7FEFF 		bl	SystemClock_Config
 896              	.LVL36:
 128:Core/Src/main.c ****   MX_LTDC_Init();
 897              		.loc 1 128 3 view .LVU281
 898 0016 FFF7FEFF 		bl	MX_GPIO_Init
 899              	.LVL37:
 129:Core/Src/main.c ****   /* USER CODE BEGIN 2 */
ARM GAS  /var/folders/l4/6w9kflz11csb_6qsyz46nv3c0000gp/T//cccBIjak.s 			page 44


 900              		.loc 1 129 3 view .LVU282
 901 001a FFF7FEFF 		bl	MX_LTDC_Init
 902              	.LVL38:
 132:Core/Src/main.c **** 
 903              		.loc 1 132 5 view .LVU283
 904 001e 0F4D     		ldr	r5, .L50
 905 0020 2846     		mov	r0, r5
 906 0022 FFF7FEFF 		bl	FillStrip
 907              	.LVL39:
 135:Core/Src/main.c ****     active_buffer = 0;
 908              		.loc 1 135 5 view .LVU284
 909 0026 0E4C     		ldr	r4, .L50+4
 910 0028 0022     		movs	r2, #0
 911 002a 2946     		mov	r1, r5
 912 002c 2046     		mov	r0, r4
 913 002e FFF7FEFF 		bl	HAL_LTDC_SetAddress
 914              	.LVL40:
 136:Core/Src/main.c **** 
 915              		.loc 1 136 5 view .LVU285
 136:Core/Src/main.c **** 
 916              		.loc 1 136 19 is_stmt 0 view .LVU286
 917 0032 0C4B     		ldr	r3, .L50+8
 918 0034 0022     		movs	r2, #0
 919 0036 1A70     		strb	r2, [r3]
 139:Core/Src/main.c **** 
 920              		.loc 1 139 5 is_stmt 1 view .LVU287
 921 0038 C821     		movs	r1, #200
 922 003a 2046     		mov	r0, r4
 923 003c FFF7FEFF 		bl	HAL_LTDC_ProgramLineEvent
 924              	.LVL41:
 142:Core/Src/main.c **** 
 925              		.loc 1 142 5 view .LVU288
 926 0040 5820     		movs	r0, #88
 927 0042 FFF7FEFF 		bl	HAL_NVIC_EnableIRQ
 928              	.LVL42:
 145:Core/Src/main.c ****     __HAL_LTDC_ENABLE(&hltdc);
 929              		.loc 1 145 5 view .LVU289
 930 0046 0121     		movs	r1, #1
 931 0048 2046     		mov	r0, r4
 932 004a FFF7FEFF 		bl	HAL_LTDC_Reload
 933              	.LVL43:
 146:Core/Src/main.c **** 
 934              		.loc 1 146 5 view .LVU290
 935 004e 2268     		ldr	r2, [r4]
 936 0050 9369     		ldr	r3, [r2, #24]
 937 0052 43F00103 		orr	r3, r3, #1
 938 0056 9361     		str	r3, [r2, #24]
 152:Core/Src/main.c ****   while (1)
 939              		.loc 1 152 3 view .LVU291
 940              	.LVL44:
 941              	.L48:
 153:Core/Src/main.c ****   {
 942              		.loc 1 153 3 view .LVU292
 156:Core/Src/main.c ****     /* USER CODE BEGIN 3 */
 943              		.loc 1 156 5 discriminator 1 view .LVU293
 944              		.syntax unified
 945              	@ 156 "Core/Src/main.c" 1
ARM GAS  /var/folders/l4/6w9kflz11csb_6qsyz46nv3c0000gp/T//cccBIjak.s 			page 45


 946 0058 30BF     		wfi
 947              	@ 0 "" 2
 153:Core/Src/main.c ****   {
 948              		.loc 1 153 9 view .LVU294
 949              		.thumb
 950              		.syntax unified
 951 005a FDE7     		b	.L48
 952              	.L51:
 953              		.align	2
 954              	.L50:
 955 005c 00E80300 		.word	buffer0
 956 0060 00000000 		.word	hltdc
 957 0064 00000000 		.word	active_buffer
 958              		.cfi_endproc
 959              	.LFE144:
 961              		.global	active_buffer
 962              		.section	.bss.active_buffer,"aw",%nobits
 965              	active_buffer:
 966 0000 00       		.space	1
 967              		.global	need_fill
 968              		.section	.bss.need_fill,"aw",%nobits
 971              	need_fill:
 972 0000 00       		.space	1
 973              		.global	current_strip
 974              		.section	.bss.current_strip,"aw",%nobits
 975              		.align	2
 978              	current_strip:
 979 0000 00000000 		.space	4
 980              		.section	.video_buffers,"aw"
 981              		.align	5
 984              	buffer1:
 985 0000 00000000 		.space	256000
 985      00000000 
 985      00000000 
 985      00000000 
 985      00000000 
 986              		.align	5
 989              	buffer0:
 990 3e800 00000000 		.space	256000
 990      00000000 
 990      00000000 
 990      00000000 
 990      00000000 
 991              		.global	clut
 992              		.section	.bss.clut,"aw",%nobits
 993              		.align	2
 996              	clut:
 997 0000 00000000 		.space	1024
 997      00000000 
 997      00000000 
 997      00000000 
 997      00000000 
 998              		.global	hltdc
 999              		.section	.bss.hltdc,"aw",%nobits
 1000              		.align	2
 1003              	hltdc:
 1004 0000 00000000 		.space	168
ARM GAS  /var/folders/l4/6w9kflz11csb_6qsyz46nv3c0000gp/T//cccBIjak.s 			page 46


 1004      00000000 
 1004      00000000 
 1004      00000000 
 1004      00000000 
 1005              		.text
 1006              	.Letext0:
 1007              		.file 3 "Drivers/CMSIS/Device/ST/STM32H7xx/Include/stm32h743xx.h"
 1008              		.file 4 "/Users/rasil/Library/Application Support/Code/User/globalStorage/bmd.stm32-for-vscode/@xp
 1009              		.file 5 "/Users/rasil/Library/Application Support/Code/User/globalStorage/bmd.stm32-for-vscode/@xp
 1010              		.file 6 "Drivers/STM32H7xx_HAL_Driver/Inc/stm32h7xx_hal_def.h"
 1011              		.file 7 "Drivers/STM32H7xx_HAL_Driver/Inc/stm32h7xx_hal_rcc.h"
 1012              		.file 8 "Drivers/STM32H7xx_HAL_Driver/Inc/stm32h7xx_hal_ltdc.h"
 1013              		.file 9 "Drivers/STM32H7xx_HAL_Driver/Inc/stm32h7xx_hal_pwr_ex.h"
 1014              		.file 10 "Drivers/STM32H7xx_HAL_Driver/Inc/stm32h7xx_hal_cortex.h"
 1015              		.file 11 "Drivers/STM32H7xx_HAL_Driver/Inc/stm32h7xx_hal.h"
 1016              		.file 12 "<built-in>"
ARM GAS  /var/folders/l4/6w9kflz11csb_6qsyz46nv3c0000gp/T//cccBIjak.s 			page 47


DEFINED SYMBOLS
                            *ABS*:00000000 main.c
/var/folders/l4/6w9kflz11csb_6qsyz46nv3c0000gp/T//cccBIjak.s:20     .text.MX_GPIO_Init:00000000 $t
/var/folders/l4/6w9kflz11csb_6qsyz46nv3c0000gp/T//cccBIjak.s:25     .text.MX_GPIO_Init:00000000 MX_GPIO_Init
/var/folders/l4/6w9kflz11csb_6qsyz46nv3c0000gp/T//cccBIjak.s:148    .text.MX_GPIO_Init:000000b0 $d
/var/folders/l4/6w9kflz11csb_6qsyz46nv3c0000gp/T//cccBIjak.s:153    .text.FillStrip:00000000 $t
/var/folders/l4/6w9kflz11csb_6qsyz46nv3c0000gp/T//cccBIjak.s:159    .text.FillStrip:00000000 FillStrip
/var/folders/l4/6w9kflz11csb_6qsyz46nv3c0000gp/T//cccBIjak.s:216    .text.LTDC_IRQHandler:00000000 $t
/var/folders/l4/6w9kflz11csb_6qsyz46nv3c0000gp/T//cccBIjak.s:222    .text.LTDC_IRQHandler:00000000 LTDC_IRQHandler
/var/folders/l4/6w9kflz11csb_6qsyz46nv3c0000gp/T//cccBIjak.s:395    .text.LTDC_IRQHandler:000000dc $d
/var/folders/l4/6w9kflz11csb_6qsyz46nv3c0000gp/T//cccBIjak.s:1003   .bss.hltdc:00000000 hltdc
/var/folders/l4/6w9kflz11csb_6qsyz46nv3c0000gp/T//cccBIjak.s:978    .bss.current_strip:00000000 current_strip
/var/folders/l4/6w9kflz11csb_6qsyz46nv3c0000gp/T//cccBIjak.s:965    .bss.active_buffer:00000000 active_buffer
/var/folders/l4/6w9kflz11csb_6qsyz46nv3c0000gp/T//cccBIjak.s:984    .video_buffers:00000000 buffer1
/var/folders/l4/6w9kflz11csb_6qsyz46nv3c0000gp/T//cccBIjak.s:989    .video_buffers:0003e800 buffer0
/var/folders/l4/6w9kflz11csb_6qsyz46nv3c0000gp/T//cccBIjak.s:404    .text.Error_Handler:00000000 $t
/var/folders/l4/6w9kflz11csb_6qsyz46nv3c0000gp/T//cccBIjak.s:410    .text.Error_Handler:00000000 Error_Handler
/var/folders/l4/6w9kflz11csb_6qsyz46nv3c0000gp/T//cccBIjak.s:442    .text.MX_LTDC_Init:00000000 $t
/var/folders/l4/6w9kflz11csb_6qsyz46nv3c0000gp/T//cccBIjak.s:447    .text.MX_LTDC_Init:00000000 MX_LTDC_Init
/var/folders/l4/6w9kflz11csb_6qsyz46nv3c0000gp/T//cccBIjak.s:643    .text.MX_LTDC_Init:000000d8 $d
/var/folders/l4/6w9kflz11csb_6qsyz46nv3c0000gp/T//cccBIjak.s:996    .bss.clut:00000000 clut
/var/folders/l4/6w9kflz11csb_6qsyz46nv3c0000gp/T//cccBIjak.s:651    .text.SystemClock_Config:00000000 $t
/var/folders/l4/6w9kflz11csb_6qsyz46nv3c0000gp/T//cccBIjak.s:657    .text.SystemClock_Config:00000000 SystemClock_Config
/var/folders/l4/6w9kflz11csb_6qsyz46nv3c0000gp/T//cccBIjak.s:836    .text.SystemClock_Config:000000bc $d
/var/folders/l4/6w9kflz11csb_6qsyz46nv3c0000gp/T//cccBIjak.s:842    .text.main:00000000 $t
/var/folders/l4/6w9kflz11csb_6qsyz46nv3c0000gp/T//cccBIjak.s:848    .text.main:00000000 main
/var/folders/l4/6w9kflz11csb_6qsyz46nv3c0000gp/T//cccBIjak.s:955    .text.main:0000005c $d
/var/folders/l4/6w9kflz11csb_6qsyz46nv3c0000gp/T//cccBIjak.s:966    .bss.active_buffer:00000000 $d
/var/folders/l4/6w9kflz11csb_6qsyz46nv3c0000gp/T//cccBIjak.s:971    .bss.need_fill:00000000 need_fill
/var/folders/l4/6w9kflz11csb_6qsyz46nv3c0000gp/T//cccBIjak.s:972    .bss.need_fill:00000000 $d
/var/folders/l4/6w9kflz11csb_6qsyz46nv3c0000gp/T//cccBIjak.s:975    .bss.current_strip:00000000 $d
/var/folders/l4/6w9kflz11csb_6qsyz46nv3c0000gp/T//cccBIjak.s:981    .video_buffers:00000000 $d
/var/folders/l4/6w9kflz11csb_6qsyz46nv3c0000gp/T//cccBIjak.s:993    .bss.clut:00000000 $d
/var/folders/l4/6w9kflz11csb_6qsyz46nv3c0000gp/T//cccBIjak.s:1000   .bss.hltdc:00000000 $d

UNDEFINED SYMBOLS
HAL_LTDC_SetAddress
HAL_LTDC_Reload
HAL_LTDC_ProgramLineEvent
memset
HAL_LTDC_Init
HAL_LTDC_ConfigLayer
HAL_LTDC_ConfigCLUT
HAL_PWREx_ConfigSupply
HAL_RCC_OscConfig
HAL_RCC_ClockConfig
HAL_MPU_Disable
HAL_Init
HAL_NVIC_EnableIRQ
