ARM GAS  /var/folders/l4/6w9kflz11csb_6qsyz46nv3c0000gp/T//ccVHZXsV.s 			page 1


   1              		.cpu cortex-m7
   2              		.arch armv7e-m
   3              		.fpu fpv5-d16
   4              		.eabi_attribute 28, 1
   5              		.eabi_attribute 20, 1
   6              		.eabi_attribute 21, 1
   7              		.eabi_attribute 23, 3
   8              		.eabi_attribute 24, 1
   9              		.eabi_attribute 25, 1
  10              		.eabi_attribute 26, 1
  11              		.eabi_attribute 30, 1
  12              		.eabi_attribute 34, 1
  13              		.eabi_attribute 18, 4
  14              		.file	"main.c"
  15              		.text
  16              	.Ltext0:
  17              		.cfi_sections	.debug_frame
  18              		.file 1 "Core/Src/main.c"
  19              		.section	.text.MX_GPIO_Init,"ax",%progbits
  20              		.align	1
  21              		.syntax unified
  22              		.thumb
  23              		.thumb_func
  25              	MX_GPIO_Init:
  26              	.LFB147:
   1:Core/Src/main.c **** /* USER CODE BEGIN Header */
   2:Core/Src/main.c **** /**
   3:Core/Src/main.c ****   ******************************************************************************
   4:Core/Src/main.c ****   * @file           : main.c
   5:Core/Src/main.c ****   * @brief          : Main program body
   6:Core/Src/main.c ****   ******************************************************************************
   7:Core/Src/main.c ****   * @attention
   8:Core/Src/main.c ****   *
   9:Core/Src/main.c ****   * Copyright (c) 2026 STMicroelectronics.
  10:Core/Src/main.c ****   * All rights reserved.
  11:Core/Src/main.c ****   *
  12:Core/Src/main.c ****   * This software is licensed under terms that can be found in the LICENSE file
  13:Core/Src/main.c ****   * in the root directory of this software component.
  14:Core/Src/main.c ****   * If no LICENSE file comes with this software, it is provided AS-IS.
  15:Core/Src/main.c ****   *
  16:Core/Src/main.c ****   ******************************************************************************
  17:Core/Src/main.c ****   */
  18:Core/Src/main.c **** /* USER CODE END Header */
  19:Core/Src/main.c **** /* Includes ------------------------------------------------------------------*/
  20:Core/Src/main.c **** #include "main.h"
  21:Core/Src/main.c **** 
  22:Core/Src/main.c **** /* Private includes ----------------------------------------------------------*/
  23:Core/Src/main.c **** /* USER CODE BEGIN Includes */
  24:Core/Src/main.c **** 
  25:Core/Src/main.c **** /* USER CODE END Includes */
  26:Core/Src/main.c **** 
  27:Core/Src/main.c **** /* Private typedef -----------------------------------------------------------*/
  28:Core/Src/main.c **** /* USER CODE BEGIN PTD */
  29:Core/Src/main.c **** 
  30:Core/Src/main.c **** /* USER CODE END PTD */
  31:Core/Src/main.c **** 
  32:Core/Src/main.c **** /* Private define ------------------------------------------------------------*/
ARM GAS  /var/folders/l4/6w9kflz11csb_6qsyz46nv3c0000gp/T//ccVHZXsV.s 			page 2


  33:Core/Src/main.c **** /* USER CODE BEGIN PD */
  34:Core/Src/main.c **** #define LCD_ACTIVE_WIDTH  1280
  35:Core/Src/main.c **** #define  LCD_ACTIVE_HEIGHT 2400
  36:Core/Src/main.c **** 
  37:Core/Src/main.c **** 
  38:Core/Src/main.c **** #define H_SYNC_WIDTH  50
  39:Core/Src/main.c **** #define H_BACK_PORCH  50
  40:Core/Src/main.c **** #define H_FRONT_PORCH 50
  41:Core/Src/main.c **** 
  42:Core/Src/main.c **** #define V_SYNC_WIDTH  50
  43:Core/Src/main.c **** #define V_BACK_PORCH  50
  44:Core/Src/main.c **** #define V_FRONT_PORCH 50
  45:Core/Src/main.c **** 
  46:Core/Src/main.c **** #define H_TOTAL     (H_SYNC_WIDTH + H_FRONT_PORCH + LCD_ACTIVE_WIDTH + H_BACK_PORCH)
  47:Core/Src/main.c **** #define V_TOTAL     (V_SYNC_WIDTH + V_FRONT_PORCH + LCD_ACTIVE_HEIGHT + V_BACK_PORCH)
  48:Core/Src/main.c **** #define TOTAL_STRIPS  6
  49:Core/Src/main.c **** 
  50:Core/Src/main.c **** #define BYTES_PER_PIXEL 1
  51:Core/Src/main.c **** #define STRIP_HEIGHT 200
  52:Core/Src/main.c **** #define STRIP_SIZE_BYTES (LCD_ACTIVE_WIDTH * STRIP_HEIGHT)
  53:Core/Src/main.c **** #define TOTAL_STRIPS (LCD_ACTIVE_HEIGHT / STRIP_HEIGHT)
  54:Core/Src/main.c **** #define FRAME_RATE 1 /*Hz*/
  55:Core/Src/main.c **** #define ROW_TIME_US (1000000 / (FRAME_RATE * LCD_ACTIVE_HEIGHT))
  56:Core/Src/main.c **** 
  57:Core/Src/main.c **** 
  58:Core/Src/main.c **** 
  59:Core/Src/main.c **** 
  60:Core/Src/main.c **** /* USER CODE END PD */
  61:Core/Src/main.c **** 
  62:Core/Src/main.c **** /* Private macro -------------------------------------------------------------*/
  63:Core/Src/main.c **** /* USER CODE BEGIN PM */
  64:Core/Src/main.c **** 
  65:Core/Src/main.c **** /* USER CODE END PM */
  66:Core/Src/main.c **** 
  67:Core/Src/main.c **** /* Private variables ---------------------------------------------------------*/
  68:Core/Src/main.c **** 
  69:Core/Src/main.c **** LTDC_HandleTypeDef hltdc;
  70:Core/Src/main.c **** 
  71:Core/Src/main.c **** /* USER CODE BEGIN PV */
  72:Core/Src/main.c **** uint32_t clut[256];
  73:Core/Src/main.c **** static uint8_t buffer0[STRIP_SIZE_BYTES] __attribute__((section(".video_buffers"), aligned(32)));
  74:Core/Src/main.c **** static uint8_t buffer1[STRIP_SIZE_BYTES] __attribute__((section(".video_buffers"), aligned(32)));
  75:Core/Src/main.c **** volatile uint32_t current_strip = 0 ;
  76:Core/Src/main.c **** volatile uint8_t need_fill = 0;
  77:Core/Src/main.c **** volatile uint8_t active_buffer = 0;
  78:Core/Src/main.c **** /* USER CODE END PV */
  79:Core/Src/main.c **** 
  80:Core/Src/main.c **** /* Private function prototypes -----------------------------------------------*/
  81:Core/Src/main.c **** void SystemClock_Config(void);
  82:Core/Src/main.c **** static void MPU_Config(void);
  83:Core/Src/main.c **** static void MX_GPIO_Init(void);
  84:Core/Src/main.c **** static void MX_LTDC_Init(void);
  85:Core/Src/main.c **** /* USER CODE BEGIN PFP */
  86:Core/Src/main.c **** void FillStrip(uint8_t* buffer);
  87:Core/Src/main.c **** void GenerateTestPattern(uint8_t *buffer, uint32_t strip_idx);
  88:Core/Src/main.c **** /* USER CODE END PFP */
  89:Core/Src/main.c **** 
ARM GAS  /var/folders/l4/6w9kflz11csb_6qsyz46nv3c0000gp/T//ccVHZXsV.s 			page 3


  90:Core/Src/main.c **** /* Private user code ---------------------------------------------------------*/
  91:Core/Src/main.c **** /* USER CODE BEGIN 0 */
  92:Core/Src/main.c **** 
  93:Core/Src/main.c **** /* USER CODE END 0 */
  94:Core/Src/main.c **** 
  95:Core/Src/main.c **** /**
  96:Core/Src/main.c ****   * @brief  The application entry point.
  97:Core/Src/main.c ****   * @retval int
  98:Core/Src/main.c ****   */
  99:Core/Src/main.c **** int main(void)
 100:Core/Src/main.c **** {
 101:Core/Src/main.c **** 
 102:Core/Src/main.c ****   /* USER CODE BEGIN 1 */
 103:Core/Src/main.c **** 
 104:Core/Src/main.c ****   /* USER CODE END 1 */
 105:Core/Src/main.c **** 
 106:Core/Src/main.c ****   /* MPU Configuration--------------------------------------------------------*/
 107:Core/Src/main.c ****   MPU_Config();
 108:Core/Src/main.c **** 
 109:Core/Src/main.c ****   /* MCU Configuration--------------------------------------------------------*/
 110:Core/Src/main.c **** 
 111:Core/Src/main.c ****   /* Reset of all peripherals, Initializes the Flash interface and the Systick. */
 112:Core/Src/main.c ****   HAL_Init();
 113:Core/Src/main.c **** 
 114:Core/Src/main.c ****   /* USER CODE BEGIN Init */
 115:Core/Src/main.c **** 
 116:Core/Src/main.c ****   /* USER CODE END Init */
 117:Core/Src/main.c **** 
 118:Core/Src/main.c ****   /* Configure the system clock */
 119:Core/Src/main.c ****   SystemClock_Config();
 120:Core/Src/main.c **** 
 121:Core/Src/main.c ****   /* USER CODE BEGIN SysInit */
 122:Core/Src/main.c **** 
 123:Core/Src/main.c ****   /* USER CODE END SysInit */
 124:Core/Src/main.c **** 
 125:Core/Src/main.c ****   /* Initialize all configured peripherals */
 126:Core/Src/main.c ****   MX_GPIO_Init();
 127:Core/Src/main.c ****   MX_LTDC_Init();
 128:Core/Src/main.c ****   /* USER CODE BEGIN 2 */
 129:Core/Src/main.c ****   // 1. –Ч–∞–њ–Њ–ї–љ—П–µ–Љ –њ–µ—А–≤—Л–є –±—Г—Д–µ—А –і–∞–љ–љ—Л–Љ–Є –і–ї—П –њ–Њ–ї–Њ—Б—Л 0
 130:Core/Src/main.c ****     FillStrip(buffer0);    // —Д—Г–љ–Ї—Ж–Є—П FillStrip –Ј–∞–њ–Њ–ї–љ—П–µ—В –±—Г—Д–µ—А 256 –Ъ–С
 131:Core/Src/main.c **** 
 132:Core/Src/main.c ****     // 2. –£–Ї–∞–Ј—Л–≤–∞–µ–Љ LTDC –∞–і—А–µ—Б –њ–µ—А–≤–Њ–≥–Њ –±—Г—Д–µ—А–∞
 133:Core/Src/main.c ****     HAL_LTDC_SetAddress(&hltdc, (uint32_t)buffer0, LTDC_LAYER_1);
 134:Core/Src/main.c ****     active_buffer = 0;
 135:Core/Src/main.c **** 
 136:Core/Src/main.c ****     // 3. –Я—А–Њ–≥—А–∞–Љ–Љ–Є—А—Г–µ–Љ –њ—А–µ—А—Л–≤–∞–љ–Є–µ –љ–∞ –Ї–Њ–љ–µ—Ж –њ–µ—А–≤–Њ–є –њ–Њ–ї–Њ—Б—Л
 137:Core/Src/main.c ****     HAL_LTDC_ProgramLineEvent(&hltdc, STRIP_HEIGHT);
 138:Core/Src/main.c **** 
 139:Core/Src/main.c ****     // 4. –Т–Ї–ї—О—З–∞–µ–Љ –њ—А–µ—А—Л–≤–∞–љ–Є–µ –≤ NVIC
 140:Core/Src/main.c ****     HAL_NVIC_EnableIRQ(LTDC_IRQn);
 141:Core/Src/main.c **** 
 142:Core/Src/main.c ****     // 5. –Ч–∞–њ—Г—Б–Ї–∞–µ–Љ LTDC
 143:Core/Src/main.c ****     HAL_LTDC_Reload(&hltdc, LTDC_RELOAD_IMMEDIATE);
 144:Core/Src/main.c **** 
 145:Core/Src/main.c ****   /* USER CODE END 2 */
 146:Core/Src/main.c **** 
ARM GAS  /var/folders/l4/6w9kflz11csb_6qsyz46nv3c0000gp/T//ccVHZXsV.s 			page 4


 147:Core/Src/main.c ****   /* Infinite loop */
 148:Core/Src/main.c ****   /* USER CODE BEGIN WHILE */
 149:Core/Src/main.c ****   while (1)
 150:Core/Src/main.c ****   {
 151:Core/Src/main.c ****     /* USER CODE END WHILE */
 152:Core/Src/main.c ****     __WFI();
 153:Core/Src/main.c ****     /* USER CODE BEGIN 3 */
 154:Core/Src/main.c ****   }
 155:Core/Src/main.c ****   /* USER CODE END 3 */
 156:Core/Src/main.c **** }
 157:Core/Src/main.c **** 
 158:Core/Src/main.c **** /**
 159:Core/Src/main.c ****   * @brief System Clock Configuration
 160:Core/Src/main.c ****   * @retval None
 161:Core/Src/main.c ****   */
 162:Core/Src/main.c **** void SystemClock_Config(void)
 163:Core/Src/main.c **** {
 164:Core/Src/main.c ****   RCC_OscInitTypeDef RCC_OscInitStruct = {0};
 165:Core/Src/main.c ****   RCC_ClkInitTypeDef RCC_ClkInitStruct = {0};
 166:Core/Src/main.c **** 
 167:Core/Src/main.c ****   /** Supply configuration update enable
 168:Core/Src/main.c ****   */
 169:Core/Src/main.c ****   HAL_PWREx_ConfigSupply(PWR_LDO_SUPPLY);
 170:Core/Src/main.c **** 
 171:Core/Src/main.c ****   /** Configure the main internal regulator output voltage
 172:Core/Src/main.c ****   */
 173:Core/Src/main.c ****   __HAL_PWR_VOLTAGESCALING_CONFIG(PWR_REGULATOR_VOLTAGE_SCALE1);
 174:Core/Src/main.c **** 
 175:Core/Src/main.c ****   while(!__HAL_PWR_GET_FLAG(PWR_FLAG_VOSRDY)) {}
 176:Core/Src/main.c **** 
 177:Core/Src/main.c ****   /** Initializes the RCC Oscillators according to the specified parameters
 178:Core/Src/main.c ****   * in the RCC_OscInitTypeDef structure.
 179:Core/Src/main.c ****   */
 180:Core/Src/main.c ****   RCC_OscInitStruct.OscillatorType = RCC_OSCILLATORTYPE_HSI;
 181:Core/Src/main.c ****   RCC_OscInitStruct.HSIState = RCC_HSI_DIV1;
 182:Core/Src/main.c ****   RCC_OscInitStruct.HSICalibrationValue = RCC_HSICALIBRATION_DEFAULT;
 183:Core/Src/main.c ****   RCC_OscInitStruct.PLL.PLLState = RCC_PLL_ON;
 184:Core/Src/main.c ****   RCC_OscInitStruct.PLL.PLLSource = RCC_PLLSOURCE_HSI;
 185:Core/Src/main.c ****   RCC_OscInitStruct.PLL.PLLM = 32;
 186:Core/Src/main.c ****   RCC_OscInitStruct.PLL.PLLN = 400;
 187:Core/Src/main.c ****   RCC_OscInitStruct.PLL.PLLP = 2;
 188:Core/Src/main.c ****   RCC_OscInitStruct.PLL.PLLQ = 2;
 189:Core/Src/main.c ****   RCC_OscInitStruct.PLL.PLLR = 2;
 190:Core/Src/main.c ****   RCC_OscInitStruct.PLL.PLLRGE = RCC_PLL1VCIRANGE_1;
 191:Core/Src/main.c ****   RCC_OscInitStruct.PLL.PLLVCOSEL = RCC_PLL1VCOWIDE;
 192:Core/Src/main.c ****   RCC_OscInitStruct.PLL.PLLFRACN = 0;
 193:Core/Src/main.c ****   if (HAL_RCC_OscConfig(&RCC_OscInitStruct) != HAL_OK)
 194:Core/Src/main.c ****   {
 195:Core/Src/main.c ****     Error_Handler();
 196:Core/Src/main.c ****   }
 197:Core/Src/main.c **** 
 198:Core/Src/main.c ****   /** Initializes the CPU, AHB and APB buses clocks
 199:Core/Src/main.c ****   */
 200:Core/Src/main.c ****   RCC_ClkInitStruct.ClockType = RCC_CLOCKTYPE_HCLK|RCC_CLOCKTYPE_SYSCLK
 201:Core/Src/main.c ****                               |RCC_CLOCKTYPE_PCLK1|RCC_CLOCKTYPE_PCLK2
 202:Core/Src/main.c ****                               |RCC_CLOCKTYPE_D3PCLK1|RCC_CLOCKTYPE_D1PCLK1;
 203:Core/Src/main.c ****   RCC_ClkInitStruct.SYSCLKSource = RCC_SYSCLKSOURCE_PLLCLK;
ARM GAS  /var/folders/l4/6w9kflz11csb_6qsyz46nv3c0000gp/T//ccVHZXsV.s 			page 5


 204:Core/Src/main.c ****   RCC_ClkInitStruct.SYSCLKDivider = RCC_SYSCLK_DIV1;
 205:Core/Src/main.c ****   RCC_ClkInitStruct.AHBCLKDivider = RCC_HCLK_DIV4;
 206:Core/Src/main.c ****   RCC_ClkInitStruct.APB3CLKDivider = RCC_APB3_DIV2;
 207:Core/Src/main.c ****   RCC_ClkInitStruct.APB1CLKDivider = RCC_APB1_DIV2;
 208:Core/Src/main.c ****   RCC_ClkInitStruct.APB2CLKDivider = RCC_APB2_DIV2;
 209:Core/Src/main.c ****   RCC_ClkInitStruct.APB4CLKDivider = RCC_APB4_DIV2;
 210:Core/Src/main.c **** 
 211:Core/Src/main.c ****   if (HAL_RCC_ClockConfig(&RCC_ClkInitStruct, FLASH_LATENCY_1) != HAL_OK)
 212:Core/Src/main.c ****   {
 213:Core/Src/main.c ****     Error_Handler();
 214:Core/Src/main.c ****   }
 215:Core/Src/main.c **** }
 216:Core/Src/main.c **** 
 217:Core/Src/main.c **** /**
 218:Core/Src/main.c ****   * @brief LTDC Initialization Function
 219:Core/Src/main.c ****   * @param None
 220:Core/Src/main.c ****   * @retval None
 221:Core/Src/main.c ****   */
 222:Core/Src/main.c **** static void MX_LTDC_Init(void)
 223:Core/Src/main.c **** {
 224:Core/Src/main.c **** 
 225:Core/Src/main.c ****   /* USER CODE BEGIN LTDC_Init 0 */
 226:Core/Src/main.c **** 
 227:Core/Src/main.c ****   /* USER CODE END LTDC_Init 0 */
 228:Core/Src/main.c **** 
 229:Core/Src/main.c ****   LTDC_LayerCfgTypeDef pLayerCfg = {0};
 230:Core/Src/main.c **** 
 231:Core/Src/main.c **** 
 232:Core/Src/main.c ****   /* USER CODE BEGIN LTDC_Init 1 */
 233:Core/Src/main.c **** 
 234:Core/Src/main.c ****   /* USER CODE END LTDC_Init 1 */
 235:Core/Src/main.c ****   hltdc.Instance = LTDC;
 236:Core/Src/main.c ****   hltdc.Init.HSPolarity = LTDC_HSPOLARITY_AL;
 237:Core/Src/main.c ****   hltdc.Init.VSPolarity = LTDC_VSPOLARITY_AL;
 238:Core/Src/main.c ****   hltdc.Init.DEPolarity = LTDC_DEPOLARITY_AL;
 239:Core/Src/main.c ****   hltdc.Init.PCPolarity = LTDC_PCPOLARITY_IPC;
 240:Core/Src/main.c ****   hltdc.Init.HorizontalSync = H_SYNC_WIDTH - 1;
 241:Core/Src/main.c ****   hltdc.Init.VerticalSync = V_SYNC_WIDTH - 1;
 242:Core/Src/main.c ****   hltdc.Init.AccumulatedHBP = H_SYNC_WIDTH + H_BACK_PORCH - 1;
 243:Core/Src/main.c ****   hltdc.Init.AccumulatedVBP = V_SYNC_WIDTH + V_BACK_PORCH - 1;
 244:Core/Src/main.c ****   hltdc.Init.AccumulatedActiveW = H_SYNC_WIDTH + H_BACK_PORCH + LCD_ACTIVE_WIDTH - 1;
 245:Core/Src/main.c ****   hltdc.Init.AccumulatedActiveH = V_SYNC_WIDTH + V_BACK_PORCH + LCD_ACTIVE_HEIGHT - 1;
 246:Core/Src/main.c ****   hltdc.Init.TotalWidth = H_TOTAL - 1;
 247:Core/Src/main.c ****   hltdc.Init.TotalHeigh = V_TOTAL - 1;
 248:Core/Src/main.c ****   hltdc.Init.Backcolor.Blue = 0;
 249:Core/Src/main.c ****   hltdc.Init.Backcolor.Green = 0;
 250:Core/Src/main.c ****   hltdc.Init.Backcolor.Red = 0;
 251:Core/Src/main.c ****   if (HAL_LTDC_Init(&hltdc) != HAL_OK)
 252:Core/Src/main.c ****   {
 253:Core/Src/main.c ****     Error_Handler();
 254:Core/Src/main.c ****   }
 255:Core/Src/main.c ****   pLayerCfg.WindowX0 = 0;
 256:Core/Src/main.c ****   pLayerCfg.WindowX1 = LCD_ACTIVE_WIDTH;
 257:Core/Src/main.c ****   pLayerCfg.WindowY0 = 0;
 258:Core/Src/main.c ****   pLayerCfg.WindowY1 = LCD_ACTIVE_HEIGHT;
 259:Core/Src/main.c ****   pLayerCfg.PixelFormat = LTDC_PIXEL_FORMAT_L8;
 260:Core/Src/main.c ****   pLayerCfg.Alpha = 255;
ARM GAS  /var/folders/l4/6w9kflz11csb_6qsyz46nv3c0000gp/T//ccVHZXsV.s 			page 6


 261:Core/Src/main.c ****   pLayerCfg.Alpha0 = 0;
 262:Core/Src/main.c ****   pLayerCfg.BlendingFactor1 = LTDC_BLENDING_FACTOR1_PAxCA;
 263:Core/Src/main.c ****   pLayerCfg.BlendingFactor2 = LTDC_BLENDING_FACTOR2_PAxCA;
 264:Core/Src/main.c ****   pLayerCfg.FBStartAdress = (uint32_t)buffer0;
 265:Core/Src/main.c ****   pLayerCfg.ImageWidth = LCD_ACTIVE_WIDTH;
 266:Core/Src/main.c ****   pLayerCfg.ImageHeight = LCD_ACTIVE_HEIGHT;
 267:Core/Src/main.c ****   pLayerCfg.Backcolor.Blue = 0;
 268:Core/Src/main.c ****   pLayerCfg.Backcolor.Green = 0;
 269:Core/Src/main.c ****   pLayerCfg.Backcolor.Red = 0;
 270:Core/Src/main.c ****   if (HAL_LTDC_ConfigLayer(&hltdc, &pLayerCfg, 1) != HAL_OK)
 271:Core/Src/main.c ****   {
 272:Core/Src/main.c ****     Error_Handler();
 273:Core/Src/main.c ****   }
 274:Core/Src/main.c ****   /* USER CODE BEGIN LTDC_Init 2 */
 275:Core/Src/main.c ****   for(int i = 0 ; i < 256; i++){
 276:Core/Src/main.c ****     clut[i] = i << 16 | i << 8 | i; 
 277:Core/Src/main.c ****   }
 278:Core/Src/main.c ****   HAL_LTDC_ConfigCLUT(&hltdc, clut, 256, LTDC_LAYER_1);
 279:Core/Src/main.c ****   /* USER CODE END LTDC_Init 2 */
 280:Core/Src/main.c **** 
 281:Core/Src/main.c **** }
 282:Core/Src/main.c **** 
 283:Core/Src/main.c **** /**
 284:Core/Src/main.c ****   * @brief GPIO Initialization Function
 285:Core/Src/main.c ****   * @param None
 286:Core/Src/main.c ****   * @retval None
 287:Core/Src/main.c ****   */
 288:Core/Src/main.c **** static void MX_GPIO_Init(void)
 289:Core/Src/main.c **** {
  27              		.loc 1 289 1 view -0
  28              		.cfi_startproc
  29              		@ args = 0, pretend = 0, frame = 32
  30              		@ frame_needed = 0, uses_anonymous_args = 0
  31              		@ link register save eliminated.
  32 0000 88B0     		sub	sp, sp, #32
  33              		.cfi_def_cfa_offset 32
 290:Core/Src/main.c ****   /* USER CODE BEGIN MX_GPIO_Init_1 */
 291:Core/Src/main.c **** 
 292:Core/Src/main.c ****   /* USER CODE END MX_GPIO_Init_1 */
 293:Core/Src/main.c **** 
 294:Core/Src/main.c ****   /* GPIO Ports Clock Enable */
 295:Core/Src/main.c ****   __HAL_RCC_GPIOE_CLK_ENABLE();
  34              		.loc 1 295 3 view .LVU1
  35              	.LBB4:
  36              		.loc 1 295 3 view .LVU2
  37              		.loc 1 295 3 view .LVU3
  38 0002 2B4B     		ldr	r3, .L3
  39 0004 D3F8E020 		ldr	r2, [r3, #224]
  40 0008 42F01002 		orr	r2, r2, #16
  41 000c C3F8E020 		str	r2, [r3, #224]
  42              		.loc 1 295 3 view .LVU4
  43 0010 D3F8E020 		ldr	r2, [r3, #224]
  44 0014 02F01002 		and	r2, r2, #16
  45 0018 0192     		str	r2, [sp, #4]
  46              		.loc 1 295 3 view .LVU5
  47 001a 019A     		ldr	r2, [sp, #4]
  48              	.LBE4:
ARM GAS  /var/folders/l4/6w9kflz11csb_6qsyz46nv3c0000gp/T//ccVHZXsV.s 			page 7


  49              		.loc 1 295 3 view .LVU6
 296:Core/Src/main.c ****   __HAL_RCC_GPIOF_CLK_ENABLE();
  50              		.loc 1 296 3 view .LVU7
  51              	.LBB5:
  52              		.loc 1 296 3 view .LVU8
  53              		.loc 1 296 3 view .LVU9
  54 001c D3F8E020 		ldr	r2, [r3, #224]
  55 0020 42F02002 		orr	r2, r2, #32
  56 0024 C3F8E020 		str	r2, [r3, #224]
  57              		.loc 1 296 3 view .LVU10
  58 0028 D3F8E020 		ldr	r2, [r3, #224]
  59 002c 02F02002 		and	r2, r2, #32
  60 0030 0292     		str	r2, [sp, #8]
  61              		.loc 1 296 3 view .LVU11
  62 0032 029A     		ldr	r2, [sp, #8]
  63              	.LBE5:
  64              		.loc 1 296 3 view .LVU12
 297:Core/Src/main.c ****   __HAL_RCC_GPIOC_CLK_ENABLE();
  65              		.loc 1 297 3 view .LVU13
  66              	.LBB6:
  67              		.loc 1 297 3 view .LVU14
  68              		.loc 1 297 3 view .LVU15
  69 0034 D3F8E020 		ldr	r2, [r3, #224]
  70 0038 42F00402 		orr	r2, r2, #4
  71 003c C3F8E020 		str	r2, [r3, #224]
  72              		.loc 1 297 3 view .LVU16
  73 0040 D3F8E020 		ldr	r2, [r3, #224]
  74 0044 02F00402 		and	r2, r2, #4
  75 0048 0392     		str	r2, [sp, #12]
  76              		.loc 1 297 3 view .LVU17
  77 004a 039A     		ldr	r2, [sp, #12]
  78              	.LBE6:
  79              		.loc 1 297 3 view .LVU18
 298:Core/Src/main.c ****   __HAL_RCC_GPIOA_CLK_ENABLE();
  80              		.loc 1 298 3 view .LVU19
  81              	.LBB7:
  82              		.loc 1 298 3 view .LVU20
  83              		.loc 1 298 3 view .LVU21
  84 004c D3F8E020 		ldr	r2, [r3, #224]
  85 0050 42F00102 		orr	r2, r2, #1
  86 0054 C3F8E020 		str	r2, [r3, #224]
  87              		.loc 1 298 3 view .LVU22
  88 0058 D3F8E020 		ldr	r2, [r3, #224]
  89 005c 02F00102 		and	r2, r2, #1
  90 0060 0492     		str	r2, [sp, #16]
  91              		.loc 1 298 3 view .LVU23
  92 0062 049A     		ldr	r2, [sp, #16]
  93              	.LBE7:
  94              		.loc 1 298 3 view .LVU24
 299:Core/Src/main.c ****   __HAL_RCC_GPIOB_CLK_ENABLE();
  95              		.loc 1 299 3 view .LVU25
  96              	.LBB8:
  97              		.loc 1 299 3 view .LVU26
  98              		.loc 1 299 3 view .LVU27
  99 0064 D3F8E020 		ldr	r2, [r3, #224]
 100 0068 42F00202 		orr	r2, r2, #2
 101 006c C3F8E020 		str	r2, [r3, #224]
ARM GAS  /var/folders/l4/6w9kflz11csb_6qsyz46nv3c0000gp/T//ccVHZXsV.s 			page 8


 102              		.loc 1 299 3 view .LVU28
 103 0070 D3F8E020 		ldr	r2, [r3, #224]
 104 0074 02F00202 		and	r2, r2, #2
 105 0078 0592     		str	r2, [sp, #20]
 106              		.loc 1 299 3 view .LVU29
 107 007a 059A     		ldr	r2, [sp, #20]
 108              	.LBE8:
 109              		.loc 1 299 3 view .LVU30
 300:Core/Src/main.c ****   __HAL_RCC_GPIOD_CLK_ENABLE();
 110              		.loc 1 300 3 view .LVU31
 111              	.LBB9:
 112              		.loc 1 300 3 view .LVU32
 113              		.loc 1 300 3 view .LVU33
 114 007c D3F8E020 		ldr	r2, [r3, #224]
 115 0080 42F00802 		orr	r2, r2, #8
 116 0084 C3F8E020 		str	r2, [r3, #224]
 117              		.loc 1 300 3 view .LVU34
 118 0088 D3F8E020 		ldr	r2, [r3, #224]
 119 008c 02F00802 		and	r2, r2, #8
 120 0090 0692     		str	r2, [sp, #24]
 121              		.loc 1 300 3 view .LVU35
 122 0092 069A     		ldr	r2, [sp, #24]
 123              	.LBE9:
 124              		.loc 1 300 3 view .LVU36
 301:Core/Src/main.c ****   __HAL_RCC_GPIOG_CLK_ENABLE();
 125              		.loc 1 301 3 view .LVU37
 126              	.LBB10:
 127              		.loc 1 301 3 view .LVU38
 128              		.loc 1 301 3 view .LVU39
 129 0094 D3F8E020 		ldr	r2, [r3, #224]
 130 0098 42F04002 		orr	r2, r2, #64
 131 009c C3F8E020 		str	r2, [r3, #224]
 132              		.loc 1 301 3 view .LVU40
 133 00a0 D3F8E030 		ldr	r3, [r3, #224]
 134 00a4 03F04003 		and	r3, r3, #64
 135 00a8 0793     		str	r3, [sp, #28]
 136              		.loc 1 301 3 view .LVU41
 137 00aa 079B     		ldr	r3, [sp, #28]
 138              	.LBE10:
 139              		.loc 1 301 3 view .LVU42
 302:Core/Src/main.c **** 
 303:Core/Src/main.c ****   /* USER CODE BEGIN MX_GPIO_Init_2 */
 304:Core/Src/main.c **** 
 305:Core/Src/main.c ****   /* USER CODE END MX_GPIO_Init_2 */
 306:Core/Src/main.c **** }
 140              		.loc 1 306 1 is_stmt 0 view .LVU43
 141 00ac 08B0     		add	sp, sp, #32
 142              		.cfi_def_cfa_offset 0
 143              		@ sp needed
 144 00ae 7047     		bx	lr
 145              	.L4:
 146              		.align	2
 147              	.L3:
 148 00b0 00440258 		.word	1476543488
 149              		.cfi_endproc
 150              	.LFE147:
 152              		.section	.text.MPU_Config,"ax",%progbits
ARM GAS  /var/folders/l4/6w9kflz11csb_6qsyz46nv3c0000gp/T//ccVHZXsV.s 			page 9


 153              		.align	1
 154              		.syntax unified
 155              		.thumb
 156              		.thumb_func
 158              	MPU_Config:
 159              	.LFB150:
 307:Core/Src/main.c **** 
 308:Core/Src/main.c **** /* USER CODE BEGIN 4 */
 309:Core/Src/main.c **** void FillStrip(uint8_t *buffer){
 310:Core/Src/main.c ****   for(uint32_t row = 0 ; row < STRIP_HEIGHT; row++){
 311:Core/Src/main.c ****     for(uint32_t column = 0; column < LCD_ACTIVE_WIDTH; column++){
 312:Core/Src/main.c ****       buffer[row*LCD_ACTIVE_WIDTH + column]= 0xFF;
 313:Core/Src/main.c ****     }
 314:Core/Src/main.c ****   }
 315:Core/Src/main.c **** }
 316:Core/Src/main.c **** 
 317:Core/Src/main.c **** void LTDC_IRQHandler(void)
 318:Core/Src/main.c **** {
 319:Core/Src/main.c ****     if (__HAL_LTDC_GET_FLAG(&hltdc, LTDC_FLAG_LI))
 320:Core/Src/main.c ****     {
 321:Core/Src/main.c ****         __HAL_LTDC_CLEAR_FLAG(&hltdc, LTDC_FLAG_LI);
 322:Core/Src/main.c **** 
 323:Core/Src/main.c ****         current_strip++;   // –њ–µ—А–µ—Е–Њ–і–Є–Љ –Ї —Б–ї–µ–і—Г—О—Й–µ–є –њ–Њ–ї–Њ—Б–µ
 324:Core/Src/main.c **** 
 325:Core/Src/main.c ****         if (current_strip < TOTAL_STRIPS)   // 0..11
 326:Core/Src/main.c ****         {
 327:Core/Src/main.c ****             // ---- 1. –Я–µ—А–µ–Ї–ї—О—З–∞–µ–Љ LTDC –љ–∞ –і—А—Г–≥–Њ–є –±—Г—Д–µ—А (—Г–ґ–µ –Ј–∞–њ–Њ–ї–
 328:Core/Src/main.c ****             if (active_buffer == 0)
 329:Core/Src/main.c ****                 HAL_LTDC_SetAddress(&hltdc, (uint32_t)buffer1, LTDC_LAYER_1);
 330:Core/Src/main.c ****             else
 331:Core/Src/main.c ****                 HAL_LTDC_SetAddress(&hltdc, (uint32_t)buffer0, LTDC_LAYER_1);
 332:Core/Src/main.c **** 
 333:Core/Src/main.c ****             // ---- 2. –Ш–љ–≤–µ—А—В–Є—А—Г–µ–Љ —Д–ї–∞–≥ –∞–Ї—В–Є–≤–љ–Њ–≥–Њ –±—Г—Д–µ—А–∞ ----
 334:Core/Src/main.c ****             active_buffer ^= 1;
 335:Core/Src/main.c **** 
 336:Core/Src/main.c ****             // ---- 3. –Я—А–Њ–≥—А–∞–Љ–Љ–Є—А—Г–µ–Љ —Б–ї–µ–і—Г—О—Й–µ–µ –њ—А–µ—А—Л–≤–∞–љ–Є–µ (–љ–∞ –Ї–
 337:Core/Src/main.c ****             HAL_LTDC_ProgramLineEvent(&hltdc, (current_strip + 1) * STRIP_HEIGHT);
 338:Core/Src/main.c **** 
 339:Core/Src/main.c ****             // ---- 4. –Ч–∞–њ–Њ–ї–љ—П–µ–Љ –Њ—Б–≤–Њ–±–Њ–і–Є–≤—И–Є–є—Б—П –±—Г—Д–µ—А –і–∞–љ–љ—Л–Љ–Є –і
 340:Core/Src/main.c ****             if (active_buffer == 0)
 341:Core/Src/main.c ****                 FillStrip(buffer0);   // current_strip —Г–ґ–µ —Г–≤–µ–ї–Є—З–µ–љ
 342:Core/Src/main.c ****             else
 343:Core/Src/main.c ****                 FillStrip(buffer1);
 344:Core/Src/main.c ****         }
 345:Core/Src/main.c ****         else
 346:Core/Src/main.c ****         {
 347:Core/Src/main.c ****             // –Ъ–Њ–љ–µ—Ж –Ї–∞–і—А–∞: —Б–±—А–∞—Б—Л–≤–∞–µ–Љ —Б—З—С—В—З–Є–Ї, –љ–∞—З–Є–љ–∞–µ–Љ –љ–Њ–≤—
 348:Core/Src/main.c ****             current_strip = 0;
 349:Core/Src/main.c **** 
 350:Core/Src/main.c ****             // –Я–µ—А–µ–Ї–ї—О—З–∞–µ–Љ LTDC –љ–∞ –і—А—Г–≥–Њ–є –±—Г—Д–µ—А (–і–ї—П –њ–µ—А–≤–Њ–є –њ–Њ–ї
 351:Core/Src/main.c ****             if (active_buffer == 0)
 352:Core/Src/main.c ****                 HAL_LTDC_SetAddress(&hltdc, (uint32_t)buffer1, LTDC_LAYER_1);
 353:Core/Src/main.c ****             else
 354:Core/Src/main.c ****                 HAL_LTDC_SetAddress(&hltdc, (uint32_t)buffer0, LTDC_LAYER_1);
 355:Core/Src/main.c ****             active_buffer ^= 1;
 356:Core/Src/main.c **** 
 357:Core/Src/main.c ****             // –Я—А–Њ–≥—А–∞–Љ–Љ–Є—А—Г–µ–Љ –њ—А–µ—А—Л–≤–∞–љ–Є–µ –љ–∞ –Ї–Њ–љ–µ—Ж –њ–µ—А–≤–Њ–є –њ–Њ–ї–
ARM GAS  /var/folders/l4/6w9kflz11csb_6qsyz46nv3c0000gp/T//ccVHZXsV.s 			page 10


 358:Core/Src/main.c ****             HAL_LTDC_ProgramLineEvent(&hltdc, STRIP_HEIGHT);
 359:Core/Src/main.c **** 
 360:Core/Src/main.c ****             // –Ч–∞–њ–Њ–ї–љ—П–µ–Љ –Њ—Б–≤–Њ–±–Њ–і–Є–≤—И–Є–є—Б—П –±—Г—Д–µ—А –і–ї—П –њ–µ—А–≤–Њ–є –њ–Њ–
 361:Core/Src/main.c ****             if (active_buffer == 0)
 362:Core/Src/main.c ****                 FillStrip(buffer0);
 363:Core/Src/main.c ****             else
 364:Core/Src/main.c ****                 FillStrip(buffer1);
 365:Core/Src/main.c ****         }
 366:Core/Src/main.c ****     }
 367:Core/Src/main.c **** }  
 368:Core/Src/main.c **** 
 369:Core/Src/main.c **** 
 370:Core/Src/main.c **** /* USER CODE END 4 */
 371:Core/Src/main.c **** 
 372:Core/Src/main.c ****  /* MPU Configuration */
 373:Core/Src/main.c **** 
 374:Core/Src/main.c **** void MPU_Config(void)
 375:Core/Src/main.c **** {
 160              		.loc 1 375 1 is_stmt 1 view -0
 161              		.cfi_startproc
 162              		@ args = 0, pretend = 0, frame = 16
 163              		@ frame_needed = 0, uses_anonymous_args = 0
 164 0000 30B5     		push	{r4, r5, lr}
 165              		.cfi_def_cfa_offset 12
 166              		.cfi_offset 4, -12
 167              		.cfi_offset 5, -8
 168              		.cfi_offset 14, -4
 169 0002 85B0     		sub	sp, sp, #20
 170              		.cfi_def_cfa_offset 32
 376:Core/Src/main.c ****   MPU_Region_InitTypeDef MPU_InitStruct = {0};
 171              		.loc 1 376 3 view .LVU45
 172              		.loc 1 376 26 is_stmt 0 view .LVU46
 173 0004 0024     		movs	r4, #0
 174 0006 0094     		str	r4, [sp]
 175 0008 0194     		str	r4, [sp, #4]
 176 000a 0294     		str	r4, [sp, #8]
 177 000c 0394     		str	r4, [sp, #12]
 377:Core/Src/main.c **** 
 378:Core/Src/main.c ****   /* Disables the MPU */
 379:Core/Src/main.c ****   HAL_MPU_Disable();
 178              		.loc 1 379 3 is_stmt 1 view .LVU47
 179 000e FFF7FEFF 		bl	HAL_MPU_Disable
 180              	.LVL0:
 380:Core/Src/main.c **** 
 381:Core/Src/main.c ****   /** Initializes and configures the Region and the memory to be protected
 382:Core/Src/main.c ****   */
 383:Core/Src/main.c ****   MPU_InitStruct.Enable = MPU_REGION_ENABLE;
 181              		.loc 1 383 3 view .LVU48
 182              		.loc 1 383 25 is_stmt 0 view .LVU49
 183 0012 0123     		movs	r3, #1
 184 0014 8DF80030 		strb	r3, [sp]
 384:Core/Src/main.c ****   MPU_InitStruct.Number = MPU_REGION_NUMBER0;
 185              		.loc 1 384 3 is_stmt 1 view .LVU50
 186              		.loc 1 384 25 is_stmt 0 view .LVU51
 187 0018 8DF80140 		strb	r4, [sp, #1]
 385:Core/Src/main.c ****   MPU_InitStruct.BaseAddress = 0x0;
 188              		.loc 1 385 3 is_stmt 1 view .LVU52
ARM GAS  /var/folders/l4/6w9kflz11csb_6qsyz46nv3c0000gp/T//ccVHZXsV.s 			page 11


 189              		.loc 1 385 30 is_stmt 0 view .LVU53
 190 001c 0194     		str	r4, [sp, #4]
 386:Core/Src/main.c ****   MPU_InitStruct.Size = MPU_REGION_SIZE_4GB;
 191              		.loc 1 386 3 is_stmt 1 view .LVU54
 192              		.loc 1 386 23 is_stmt 0 view .LVU55
 193 001e 1F22     		movs	r2, #31
 194 0020 8DF80820 		strb	r2, [sp, #8]
 387:Core/Src/main.c ****   MPU_InitStruct.SubRegionDisable = 0x87;
 195              		.loc 1 387 3 is_stmt 1 view .LVU56
 196              		.loc 1 387 35 is_stmt 0 view .LVU57
 197 0024 8722     		movs	r2, #135
 198 0026 8DF80920 		strb	r2, [sp, #9]
 388:Core/Src/main.c ****   MPU_InitStruct.TypeExtField = MPU_TEX_LEVEL0;
 199              		.loc 1 388 3 is_stmt 1 view .LVU58
 200              		.loc 1 388 31 is_stmt 0 view .LVU59
 201 002a 8DF80A40 		strb	r4, [sp, #10]
 389:Core/Src/main.c ****   MPU_InitStruct.AccessPermission = MPU_REGION_NO_ACCESS;
 202              		.loc 1 389 3 is_stmt 1 view .LVU60
 203              		.loc 1 389 35 is_stmt 0 view .LVU61
 204 002e 8DF80B40 		strb	r4, [sp, #11]
 390:Core/Src/main.c ****   MPU_InitStruct.DisableExec = MPU_INSTRUCTION_ACCESS_DISABLE;
 205              		.loc 1 390 3 is_stmt 1 view .LVU62
 206              		.loc 1 390 30 is_stmt 0 view .LVU63
 207 0032 8DF80C30 		strb	r3, [sp, #12]
 391:Core/Src/main.c ****   MPU_InitStruct.IsShareable = MPU_ACCESS_SHAREABLE;
 208              		.loc 1 391 3 is_stmt 1 view .LVU64
 209              		.loc 1 391 30 is_stmt 0 view .LVU65
 210 0036 8DF80D30 		strb	r3, [sp, #13]
 392:Core/Src/main.c ****   MPU_InitStruct.IsCacheable = MPU_ACCESS_NOT_CACHEABLE;
 211              		.loc 1 392 3 is_stmt 1 view .LVU66
 212              		.loc 1 392 30 is_stmt 0 view .LVU67
 213 003a 8DF80E40 		strb	r4, [sp, #14]
 393:Core/Src/main.c ****   MPU_InitStruct.IsBufferable = MPU_ACCESS_NOT_BUFFERABLE;
 214              		.loc 1 393 3 is_stmt 1 view .LVU68
 215              		.loc 1 393 31 is_stmt 0 view .LVU69
 216 003e 8DF80F40 		strb	r4, [sp, #15]
 394:Core/Src/main.c **** 
 395:Core/Src/main.c ****   HAL_MPU_ConfigRegion(&MPU_InitStruct);
 217              		.loc 1 395 3 is_stmt 1 view .LVU70
 218 0042 6846     		mov	r0, sp
 219 0044 FFF7FEFF 		bl	HAL_MPU_ConfigRegion
 220              	.LVL1:
 396:Core/Src/main.c ****   /* Enables the MPU */
 397:Core/Src/main.c ****   HAL_MPU_Enable(MPU_PRIVILEGED_DEFAULT);
 221              		.loc 1 397 3 view .LVU71
 222 0048 0420     		movs	r0, #4
 223 004a FFF7FEFF 		bl	HAL_MPU_Enable
 224              	.LVL2:
 398:Core/Src/main.c **** 
 399:Core/Src/main.c **** }
 225              		.loc 1 399 1 is_stmt 0 view .LVU72
 226 004e 05B0     		add	sp, sp, #20
 227              		.cfi_def_cfa_offset 12
 228              		@ sp needed
 229 0050 30BD     		pop	{r4, r5, pc}
 230              		.cfi_endproc
 231              	.LFE150:
ARM GAS  /var/folders/l4/6w9kflz11csb_6qsyz46nv3c0000gp/T//ccVHZXsV.s 			page 12


 233              		.section	.text.FillStrip,"ax",%progbits
 234              		.align	1
 235              		.global	FillStrip
 236              		.syntax unified
 237              		.thumb
 238              		.thumb_func
 240              	FillStrip:
 241              	.LVL3:
 242              	.LFB148:
 309:Core/Src/main.c ****   for(uint32_t row = 0 ; row < STRIP_HEIGHT; row++){
 243              		.loc 1 309 32 is_stmt 1 view -0
 244              		.cfi_startproc
 245              		@ args = 0, pretend = 0, frame = 0
 246              		@ frame_needed = 0, uses_anonymous_args = 0
 247              		@ link register save eliminated.
 309:Core/Src/main.c ****   for(uint32_t row = 0 ; row < STRIP_HEIGHT; row++){
 248              		.loc 1 309 32 is_stmt 0 view .LVU74
 249 0000 8446     		mov	ip, r0
 310:Core/Src/main.c ****     for(uint32_t column = 0; column < LCD_ACTIVE_WIDTH; column++){
 250              		.loc 1 310 3 is_stmt 1 view .LVU75
 251              	.LBB11:
 310:Core/Src/main.c ****     for(uint32_t column = 0; column < LCD_ACTIVE_WIDTH; column++){
 252              		.loc 1 310 7 view .LVU76
 253              	.LVL4:
 310:Core/Src/main.c ****     for(uint32_t column = 0; column < LCD_ACTIVE_WIDTH; column++){
 254              		.loc 1 310 16 is_stmt 0 view .LVU77
 255 0002 0021     		movs	r1, #0
 310:Core/Src/main.c ****     for(uint32_t column = 0; column < LCD_ACTIVE_WIDTH; column++){
 256              		.loc 1 310 3 view .LVU78
 257 0004 0BE0     		b	.L8
 258              	.LVL5:
 259              	.L9:
 260              	.LBB12:
 312:Core/Src/main.c ****     }
 261              		.loc 1 312 7 is_stmt 1 view .LVU79
 312:Core/Src/main.c ****     }
 262              		.loc 1 312 17 is_stmt 0 view .LVU80
 263 0006 01EB8102 		add	r2, r1, r1, lsl #2
 312:Core/Src/main.c ****     }
 264              		.loc 1 312 35 view .LVU81
 265 000a 03EB0222 		add	r2, r3, r2, lsl #8
 312:Core/Src/main.c ****     }
 266              		.loc 1 312 44 view .LVU82
 267 000e FF20     		movs	r0, #255
 268 0010 0CF80200 		strb	r0, [ip, r2]
 311:Core/Src/main.c ****       buffer[row*LCD_ACTIVE_WIDTH + column]= 0xFF;
 269              		.loc 1 311 63 is_stmt 1 discriminator 3 view .LVU83
 270 0014 0133     		adds	r3, r3, #1
 271              	.LVL6:
 272              	.L10:
 311:Core/Src/main.c ****       buffer[row*LCD_ACTIVE_WIDTH + column]= 0xFF;
 273              		.loc 1 311 37 discriminator 1 view .LVU84
 274 0016 B3F5A06F 		cmp	r3, #1280
 275 001a F4D3     		bcc	.L9
 276              	.LBE12:
 310:Core/Src/main.c ****     for(uint32_t column = 0; column < LCD_ACTIVE_WIDTH; column++){
 277              		.loc 1 310 49 discriminator 2 view .LVU85
ARM GAS  /var/folders/l4/6w9kflz11csb_6qsyz46nv3c0000gp/T//ccVHZXsV.s 			page 13


 278 001c 0131     		adds	r1, r1, #1
 279              	.LVL7:
 280              	.L8:
 310:Core/Src/main.c ****     for(uint32_t column = 0; column < LCD_ACTIVE_WIDTH; column++){
 281              		.loc 1 310 30 discriminator 1 view .LVU86
 282 001e C729     		cmp	r1, #199
 283 0020 01D8     		bhi	.L12
 284              	.LBB13:
 311:Core/Src/main.c ****       buffer[row*LCD_ACTIVE_WIDTH + column]= 0xFF;
 285              		.loc 1 311 18 is_stmt 0 view .LVU87
 286 0022 0023     		movs	r3, #0
 287 0024 F7E7     		b	.L10
 288              	.L12:
 289              	.LBE13:
 290              	.LBE11:
 315:Core/Src/main.c **** 
 291              		.loc 1 315 1 view .LVU88
 292 0026 7047     		bx	lr
 293              		.cfi_endproc
 294              	.LFE148:
 296              		.section	.text.LTDC_IRQHandler,"ax",%progbits
 297              		.align	1
 298              		.global	LTDC_IRQHandler
 299              		.syntax unified
 300              		.thumb
 301              		.thumb_func
 303              	LTDC_IRQHandler:
 304              	.LFB149:
 318:Core/Src/main.c ****     if (__HAL_LTDC_GET_FLAG(&hltdc, LTDC_FLAG_LI))
 305              		.loc 1 318 1 is_stmt 1 view -0
 306              		.cfi_startproc
 307              		@ args = 0, pretend = 0, frame = 0
 308              		@ frame_needed = 0, uses_anonymous_args = 0
 319:Core/Src/main.c ****     {
 309              		.loc 1 319 5 view .LVU90
 319:Core/Src/main.c ****     {
 310              		.loc 1 319 9 is_stmt 0 view .LVU91
 311 0000 2C4B     		ldr	r3, .L26
 312 0002 1B68     		ldr	r3, [r3]
 313 0004 9A6B     		ldr	r2, [r3, #56]
 319:Core/Src/main.c ****     {
 314              		.loc 1 319 8 view .LVU92
 315 0006 12F0010F 		tst	r2, #1
 316 000a 51D0     		beq	.L23
 318:Core/Src/main.c ****     if (__HAL_LTDC_GET_FLAG(&hltdc, LTDC_FLAG_LI))
 317              		.loc 1 318 1 view .LVU93
 318 000c 10B5     		push	{r4, lr}
 319              		.cfi_def_cfa_offset 8
 320              		.cfi_offset 4, -8
 321              		.cfi_offset 14, -4
 321:Core/Src/main.c **** 
 322              		.loc 1 321 9 is_stmt 1 view .LVU94
 323 000e 0122     		movs	r2, #1
 324 0010 DA63     		str	r2, [r3, #60]
 323:Core/Src/main.c **** 
 325              		.loc 1 323 9 view .LVU95
 323:Core/Src/main.c **** 
ARM GAS  /var/folders/l4/6w9kflz11csb_6qsyz46nv3c0000gp/T//ccVHZXsV.s 			page 14


 326              		.loc 1 323 22 is_stmt 0 view .LVU96
 327 0012 294B     		ldr	r3, .L26+4
 328 0014 1A68     		ldr	r2, [r3]
 329 0016 0132     		adds	r2, r2, #1
 330 0018 1A60     		str	r2, [r3]
 325:Core/Src/main.c ****         {
 331              		.loc 1 325 9 is_stmt 1 view .LVU97
 325:Core/Src/main.c ****         {
 332              		.loc 1 325 27 is_stmt 0 view .LVU98
 333 001a 1B68     		ldr	r3, [r3]
 325:Core/Src/main.c ****         {
 334              		.loc 1 325 12 view .LVU99
 335 001c 0B2B     		cmp	r3, #11
 336 001e 24D8     		bhi	.L15
 328:Core/Src/main.c ****                 HAL_LTDC_SetAddress(&hltdc, (uint32_t)buffer1, LTDC_LAYER_1);
 337              		.loc 1 328 13 is_stmt 1 view .LVU100
 328:Core/Src/main.c ****                 HAL_LTDC_SetAddress(&hltdc, (uint32_t)buffer1, LTDC_LAYER_1);
 338              		.loc 1 328 31 is_stmt 0 view .LVU101
 339 0020 264B     		ldr	r3, .L26+8
 340 0022 1B78     		ldrb	r3, [r3]	@ zero_extendqisi2
 328:Core/Src/main.c ****                 HAL_LTDC_SetAddress(&hltdc, (uint32_t)buffer1, LTDC_LAYER_1);
 341              		.loc 1 328 16 view .LVU102
 342 0024 BBB9     		cbnz	r3, .L16
 329:Core/Src/main.c ****             else
 343              		.loc 1 329 17 is_stmt 1 view .LVU103
 344 0026 0022     		movs	r2, #0
 345 0028 2549     		ldr	r1, .L26+12
 346 002a 2248     		ldr	r0, .L26
 347 002c FFF7FEFF 		bl	HAL_LTDC_SetAddress
 348              	.LVL8:
 349              	.L17:
 334:Core/Src/main.c **** 
 350              		.loc 1 334 13 view .LVU104
 334:Core/Src/main.c **** 
 351              		.loc 1 334 27 is_stmt 0 view .LVU105
 352 0030 224C     		ldr	r4, .L26+8
 353 0032 2378     		ldrb	r3, [r4]	@ zero_extendqisi2
 354 0034 83F00103 		eor	r3, r3, #1
 355 0038 2370     		strb	r3, [r4]
 337:Core/Src/main.c **** 
 356              		.loc 1 337 13 is_stmt 1 view .LVU106
 357 003a 1F4B     		ldr	r3, .L26+4
 358 003c 1B68     		ldr	r3, [r3]
 359 003e C821     		movs	r1, #200
 360 0040 03FB0111 		mla	r1, r3, r1, r1
 361 0044 1B48     		ldr	r0, .L26
 362 0046 FFF7FEFF 		bl	HAL_LTDC_ProgramLineEvent
 363              	.LVL9:
 340:Core/Src/main.c ****                 FillStrip(buffer0);   // current_strip —Г–ґ–µ —Г–≤–µ–ї–Є—З–µ–љ
 364              		.loc 1 340 13 view .LVU107
 340:Core/Src/main.c ****                 FillStrip(buffer0);   // current_strip —Г–ґ–µ —Г–≤–µ–ї–Є—З–µ–љ
 365              		.loc 1 340 31 is_stmt 0 view .LVU108
 366 004a 2378     		ldrb	r3, [r4]	@ zero_extendqisi2
 340:Core/Src/main.c ****                 FillStrip(buffer0);   // current_strip —Г–ґ–µ —Г–≤–µ–ї–Є—З–µ–љ
 367              		.loc 1 340 16 view .LVU109
 368 004c 4BB9     		cbnz	r3, .L18
 341:Core/Src/main.c ****             else
ARM GAS  /var/folders/l4/6w9kflz11csb_6qsyz46nv3c0000gp/T//ccVHZXsV.s 			page 15


 369              		.loc 1 341 17 is_stmt 1 view .LVU110
 370 004e 1D48     		ldr	r0, .L26+16
 371 0050 FFF7FEFF 		bl	FillStrip
 372              	.LVL10:
 373              	.L13:
 367:Core/Src/main.c **** 
 374              		.loc 1 367 1 is_stmt 0 view .LVU111
 375 0054 10BD     		pop	{r4, pc}
 376              	.L16:
 331:Core/Src/main.c **** 
 377              		.loc 1 331 17 is_stmt 1 view .LVU112
 378 0056 0022     		movs	r2, #0
 379 0058 1A49     		ldr	r1, .L26+16
 380 005a 1648     		ldr	r0, .L26
 381 005c FFF7FEFF 		bl	HAL_LTDC_SetAddress
 382              	.LVL11:
 383 0060 E6E7     		b	.L17
 384              	.L18:
 343:Core/Src/main.c ****         }
 385              		.loc 1 343 17 view .LVU113
 386 0062 1748     		ldr	r0, .L26+12
 387 0064 FFF7FEFF 		bl	FillStrip
 388              	.LVL12:
 389 0068 F4E7     		b	.L13
 390              	.L15:
 348:Core/Src/main.c **** 
 391              		.loc 1 348 13 view .LVU114
 348:Core/Src/main.c **** 
 392              		.loc 1 348 27 is_stmt 0 view .LVU115
 393 006a 134B     		ldr	r3, .L26+4
 394 006c 0022     		movs	r2, #0
 395 006e 1A60     		str	r2, [r3]
 351:Core/Src/main.c ****                 HAL_LTDC_SetAddress(&hltdc, (uint32_t)buffer1, LTDC_LAYER_1);
 396              		.loc 1 351 13 is_stmt 1 view .LVU116
 351:Core/Src/main.c ****                 HAL_LTDC_SetAddress(&hltdc, (uint32_t)buffer1, LTDC_LAYER_1);
 397              		.loc 1 351 31 is_stmt 0 view .LVU117
 398 0070 124B     		ldr	r3, .L26+8
 399 0072 1B78     		ldrb	r3, [r3]	@ zero_extendqisi2
 351:Core/Src/main.c ****                 HAL_LTDC_SetAddress(&hltdc, (uint32_t)buffer1, LTDC_LAYER_1);
 400              		.loc 1 351 16 view .LVU118
 401 0074 93B9     		cbnz	r3, .L19
 352:Core/Src/main.c ****             else
 402              		.loc 1 352 17 is_stmt 1 view .LVU119
 403 0076 1249     		ldr	r1, .L26+12
 404 0078 0E48     		ldr	r0, .L26
 405 007a FFF7FEFF 		bl	HAL_LTDC_SetAddress
 406              	.LVL13:
 407              	.L20:
 355:Core/Src/main.c **** 
 408              		.loc 1 355 13 view .LVU120
 355:Core/Src/main.c **** 
 409              		.loc 1 355 27 is_stmt 0 view .LVU121
 410 007e 0F4C     		ldr	r4, .L26+8
 411 0080 2378     		ldrb	r3, [r4]	@ zero_extendqisi2
 412 0082 83F00103 		eor	r3, r3, #1
 413 0086 2370     		strb	r3, [r4]
 358:Core/Src/main.c **** 
ARM GAS  /var/folders/l4/6w9kflz11csb_6qsyz46nv3c0000gp/T//ccVHZXsV.s 			page 16


 414              		.loc 1 358 13 is_stmt 1 view .LVU122
 415 0088 C821     		movs	r1, #200
 416 008a 0A48     		ldr	r0, .L26
 417 008c FFF7FEFF 		bl	HAL_LTDC_ProgramLineEvent
 418              	.LVL14:
 361:Core/Src/main.c ****                 FillStrip(buffer0);
 419              		.loc 1 361 13 view .LVU123
 361:Core/Src/main.c ****                 FillStrip(buffer0);
 420              		.loc 1 361 31 is_stmt 0 view .LVU124
 421 0090 2378     		ldrb	r3, [r4]	@ zero_extendqisi2
 361:Core/Src/main.c ****                 FillStrip(buffer0);
 422              		.loc 1 361 16 view .LVU125
 423 0092 4BB9     		cbnz	r3, .L21
 362:Core/Src/main.c ****             else
 424              		.loc 1 362 17 is_stmt 1 view .LVU126
 425 0094 0B48     		ldr	r0, .L26+16
 426 0096 FFF7FEFF 		bl	FillStrip
 427              	.LVL15:
 428 009a DBE7     		b	.L13
 429              	.L19:
 354:Core/Src/main.c ****             active_buffer ^= 1;
 430              		.loc 1 354 17 view .LVU127
 431 009c 0022     		movs	r2, #0
 432 009e 0949     		ldr	r1, .L26+16
 433 00a0 0448     		ldr	r0, .L26
 434 00a2 FFF7FEFF 		bl	HAL_LTDC_SetAddress
 435              	.LVL16:
 436 00a6 EAE7     		b	.L20
 437              	.L21:
 364:Core/Src/main.c ****         }
 438              		.loc 1 364 17 view .LVU128
 439 00a8 0548     		ldr	r0, .L26+12
 440 00aa FFF7FEFF 		bl	FillStrip
 441              	.LVL17:
 367:Core/Src/main.c **** 
 442              		.loc 1 367 1 is_stmt 0 view .LVU129
 443 00ae D1E7     		b	.L13
 444              	.L23:
 445              		.cfi_def_cfa_offset 0
 446              		.cfi_restore 4
 447              		.cfi_restore 14
 448 00b0 7047     		bx	lr
 449              	.L27:
 450 00b2 00BF     		.align	2
 451              	.L26:
 452 00b4 00000000 		.word	hltdc
 453 00b8 00000000 		.word	current_strip
 454 00bc 00000000 		.word	active_buffer
 455 00c0 00000000 		.word	buffer1
 456 00c4 00E80300 		.word	buffer0
 457              		.cfi_endproc
 458              	.LFE149:
 460              		.section	.text.Error_Handler,"ax",%progbits
 461              		.align	1
 462              		.global	Error_Handler
 463              		.syntax unified
 464              		.thumb
ARM GAS  /var/folders/l4/6w9kflz11csb_6qsyz46nv3c0000gp/T//ccVHZXsV.s 			page 17


 465              		.thumb_func
 467              	Error_Handler:
 468              	.LFB151:
 400:Core/Src/main.c **** 
 401:Core/Src/main.c **** /**
 402:Core/Src/main.c ****   * @brief  This function is executed in case of error occurrence.
 403:Core/Src/main.c ****   * @retval None
 404:Core/Src/main.c ****   */
 405:Core/Src/main.c **** void Error_Handler(void)
 406:Core/Src/main.c **** {
 469              		.loc 1 406 1 is_stmt 1 view -0
 470              		.cfi_startproc
 471              		@ Volatile: function does not return.
 472              		@ args = 0, pretend = 0, frame = 0
 473              		@ frame_needed = 0, uses_anonymous_args = 0
 474              		@ link register save eliminated.
 407:Core/Src/main.c ****   /* USER CODE BEGIN Error_Handler_Debug */
 408:Core/Src/main.c ****   /* User can add his own implementation to report the HAL error return state */
 409:Core/Src/main.c ****   __disable_irq();
 475              		.loc 1 409 3 view .LVU131
 476              	.LBB14:
 477              	.LBI14:
 478              		.file 2 "Drivers/CMSIS/Include/cmsis_gcc.h"
   1:Drivers/CMSIS/Include/cmsis_gcc.h **** /**************************************************************************//**
   2:Drivers/CMSIS/Include/cmsis_gcc.h ****  * @file     cmsis_gcc.h
   3:Drivers/CMSIS/Include/cmsis_gcc.h ****  * @brief    CMSIS compiler GCC header file
   4:Drivers/CMSIS/Include/cmsis_gcc.h ****  * @version  V5.2.0
   5:Drivers/CMSIS/Include/cmsis_gcc.h ****  * @date     08. May 2019
   6:Drivers/CMSIS/Include/cmsis_gcc.h ****  ******************************************************************************/
   7:Drivers/CMSIS/Include/cmsis_gcc.h **** /*
   8:Drivers/CMSIS/Include/cmsis_gcc.h ****  * Copyright (c) 2009-2019 Arm Limited. All rights reserved.
   9:Drivers/CMSIS/Include/cmsis_gcc.h ****  *
  10:Drivers/CMSIS/Include/cmsis_gcc.h ****  * SPDX-License-Identifier: Apache-2.0
  11:Drivers/CMSIS/Include/cmsis_gcc.h ****  *
  12:Drivers/CMSIS/Include/cmsis_gcc.h ****  * Licensed under the Apache License, Version 2.0 (the License); you may
  13:Drivers/CMSIS/Include/cmsis_gcc.h ****  * not use this file except in compliance with the License.
  14:Drivers/CMSIS/Include/cmsis_gcc.h ****  * You may obtain a copy of the License at
  15:Drivers/CMSIS/Include/cmsis_gcc.h ****  *
  16:Drivers/CMSIS/Include/cmsis_gcc.h ****  * www.apache.org/licenses/LICENSE-2.0
  17:Drivers/CMSIS/Include/cmsis_gcc.h ****  *
  18:Drivers/CMSIS/Include/cmsis_gcc.h ****  * Unless required by applicable law or agreed to in writing, software
  19:Drivers/CMSIS/Include/cmsis_gcc.h ****  * distributed under the License is distributed on an AS IS BASIS, WITHOUT
  20:Drivers/CMSIS/Include/cmsis_gcc.h ****  * WARRANTIES OR CONDITIONS OF ANY KIND, either express or implied.
  21:Drivers/CMSIS/Include/cmsis_gcc.h ****  * See the License for the specific language governing permissions and
  22:Drivers/CMSIS/Include/cmsis_gcc.h ****  * limitations under the License.
  23:Drivers/CMSIS/Include/cmsis_gcc.h ****  */
  24:Drivers/CMSIS/Include/cmsis_gcc.h **** 
  25:Drivers/CMSIS/Include/cmsis_gcc.h **** #ifndef __CMSIS_GCC_H
  26:Drivers/CMSIS/Include/cmsis_gcc.h **** #define __CMSIS_GCC_H
  27:Drivers/CMSIS/Include/cmsis_gcc.h **** 
  28:Drivers/CMSIS/Include/cmsis_gcc.h **** /* ignore some GCC warnings */
  29:Drivers/CMSIS/Include/cmsis_gcc.h **** #pragma GCC diagnostic push
  30:Drivers/CMSIS/Include/cmsis_gcc.h **** #pragma GCC diagnostic ignored "-Wsign-conversion"
  31:Drivers/CMSIS/Include/cmsis_gcc.h **** #pragma GCC diagnostic ignored "-Wconversion"
  32:Drivers/CMSIS/Include/cmsis_gcc.h **** #pragma GCC diagnostic ignored "-Wunused-parameter"
  33:Drivers/CMSIS/Include/cmsis_gcc.h **** 
  34:Drivers/CMSIS/Include/cmsis_gcc.h **** /* Fallback for __has_builtin */
ARM GAS  /var/folders/l4/6w9kflz11csb_6qsyz46nv3c0000gp/T//ccVHZXsV.s 			page 18


  35:Drivers/CMSIS/Include/cmsis_gcc.h **** #ifndef __has_builtin
  36:Drivers/CMSIS/Include/cmsis_gcc.h ****   #define __has_builtin(x) (0)
  37:Drivers/CMSIS/Include/cmsis_gcc.h **** #endif
  38:Drivers/CMSIS/Include/cmsis_gcc.h **** 
  39:Drivers/CMSIS/Include/cmsis_gcc.h **** /* CMSIS compiler specific defines */
  40:Drivers/CMSIS/Include/cmsis_gcc.h **** #ifndef   __ASM
  41:Drivers/CMSIS/Include/cmsis_gcc.h ****   #define __ASM                                  __asm
  42:Drivers/CMSIS/Include/cmsis_gcc.h **** #endif
  43:Drivers/CMSIS/Include/cmsis_gcc.h **** #ifndef   __INLINE
  44:Drivers/CMSIS/Include/cmsis_gcc.h ****   #define __INLINE                               inline
  45:Drivers/CMSIS/Include/cmsis_gcc.h **** #endif
  46:Drivers/CMSIS/Include/cmsis_gcc.h **** #ifndef   __STATIC_INLINE
  47:Drivers/CMSIS/Include/cmsis_gcc.h ****   #define __STATIC_INLINE                        static inline
  48:Drivers/CMSIS/Include/cmsis_gcc.h **** #endif
  49:Drivers/CMSIS/Include/cmsis_gcc.h **** #ifndef   __STATIC_FORCEINLINE                 
  50:Drivers/CMSIS/Include/cmsis_gcc.h ****   #define __STATIC_FORCEINLINE                   __attribute__((always_inline)) static inline
  51:Drivers/CMSIS/Include/cmsis_gcc.h **** #endif                                           
  52:Drivers/CMSIS/Include/cmsis_gcc.h **** #ifndef   __NO_RETURN
  53:Drivers/CMSIS/Include/cmsis_gcc.h ****   #define __NO_RETURN                            __attribute__((__noreturn__))
  54:Drivers/CMSIS/Include/cmsis_gcc.h **** #endif
  55:Drivers/CMSIS/Include/cmsis_gcc.h **** #ifndef   __USED
  56:Drivers/CMSIS/Include/cmsis_gcc.h ****   #define __USED                                 __attribute__((used))
  57:Drivers/CMSIS/Include/cmsis_gcc.h **** #endif
  58:Drivers/CMSIS/Include/cmsis_gcc.h **** #ifndef   __WEAK
  59:Drivers/CMSIS/Include/cmsis_gcc.h ****   #define __WEAK                                 __attribute__((weak))
  60:Drivers/CMSIS/Include/cmsis_gcc.h **** #endif
  61:Drivers/CMSIS/Include/cmsis_gcc.h **** #ifndef   __PACKED
  62:Drivers/CMSIS/Include/cmsis_gcc.h ****   #define __PACKED                               __attribute__((packed, aligned(1)))
  63:Drivers/CMSIS/Include/cmsis_gcc.h **** #endif
  64:Drivers/CMSIS/Include/cmsis_gcc.h **** #ifndef   __PACKED_STRUCT
  65:Drivers/CMSIS/Include/cmsis_gcc.h ****   #define __PACKED_STRUCT                        struct __attribute__((packed, aligned(1)))
  66:Drivers/CMSIS/Include/cmsis_gcc.h **** #endif
  67:Drivers/CMSIS/Include/cmsis_gcc.h **** #ifndef   __PACKED_UNION
  68:Drivers/CMSIS/Include/cmsis_gcc.h ****   #define __PACKED_UNION                         union __attribute__((packed, aligned(1)))
  69:Drivers/CMSIS/Include/cmsis_gcc.h **** #endif
  70:Drivers/CMSIS/Include/cmsis_gcc.h **** #ifndef   __UNALIGNED_UINT32        /* deprecated */
  71:Drivers/CMSIS/Include/cmsis_gcc.h ****   #pragma GCC diagnostic push
  72:Drivers/CMSIS/Include/cmsis_gcc.h ****   #pragma GCC diagnostic ignored "-Wpacked"
  73:Drivers/CMSIS/Include/cmsis_gcc.h ****   #pragma GCC diagnostic ignored "-Wattributes"
  74:Drivers/CMSIS/Include/cmsis_gcc.h ****   struct __attribute__((packed)) T_UINT32 { uint32_t v; };
  75:Drivers/CMSIS/Include/cmsis_gcc.h ****   #pragma GCC diagnostic pop
  76:Drivers/CMSIS/Include/cmsis_gcc.h ****   #define __UNALIGNED_UINT32(x)                  (((struct T_UINT32 *)(x))->v)
  77:Drivers/CMSIS/Include/cmsis_gcc.h **** #endif
  78:Drivers/CMSIS/Include/cmsis_gcc.h **** #ifndef   __UNALIGNED_UINT16_WRITE
  79:Drivers/CMSIS/Include/cmsis_gcc.h ****   #pragma GCC diagnostic push
  80:Drivers/CMSIS/Include/cmsis_gcc.h ****   #pragma GCC diagnostic ignored "-Wpacked"
  81:Drivers/CMSIS/Include/cmsis_gcc.h ****   #pragma GCC diagnostic ignored "-Wattributes"
  82:Drivers/CMSIS/Include/cmsis_gcc.h ****   __PACKED_STRUCT T_UINT16_WRITE { uint16_t v; };
  83:Drivers/CMSIS/Include/cmsis_gcc.h ****   #pragma GCC diagnostic pop
  84:Drivers/CMSIS/Include/cmsis_gcc.h ****   #define __UNALIGNED_UINT16_WRITE(addr, val)    (void)((((struct T_UINT16_WRITE *)(void *)(addr))-
  85:Drivers/CMSIS/Include/cmsis_gcc.h **** #endif
  86:Drivers/CMSIS/Include/cmsis_gcc.h **** #ifndef   __UNALIGNED_UINT16_READ
  87:Drivers/CMSIS/Include/cmsis_gcc.h ****   #pragma GCC diagnostic push
  88:Drivers/CMSIS/Include/cmsis_gcc.h ****   #pragma GCC diagnostic ignored "-Wpacked"
  89:Drivers/CMSIS/Include/cmsis_gcc.h ****   #pragma GCC diagnostic ignored "-Wattributes"
  90:Drivers/CMSIS/Include/cmsis_gcc.h ****   __PACKED_STRUCT T_UINT16_READ { uint16_t v; };
  91:Drivers/CMSIS/Include/cmsis_gcc.h ****   #pragma GCC diagnostic pop
ARM GAS  /var/folders/l4/6w9kflz11csb_6qsyz46nv3c0000gp/T//ccVHZXsV.s 			page 19


  92:Drivers/CMSIS/Include/cmsis_gcc.h ****   #define __UNALIGNED_UINT16_READ(addr)          (((const struct T_UINT16_READ *)(const void *)(add
  93:Drivers/CMSIS/Include/cmsis_gcc.h **** #endif
  94:Drivers/CMSIS/Include/cmsis_gcc.h **** #ifndef   __UNALIGNED_UINT32_WRITE
  95:Drivers/CMSIS/Include/cmsis_gcc.h ****   #pragma GCC diagnostic push
  96:Drivers/CMSIS/Include/cmsis_gcc.h ****   #pragma GCC diagnostic ignored "-Wpacked"
  97:Drivers/CMSIS/Include/cmsis_gcc.h ****   #pragma GCC diagnostic ignored "-Wattributes"
  98:Drivers/CMSIS/Include/cmsis_gcc.h ****   __PACKED_STRUCT T_UINT32_WRITE { uint32_t v; };
  99:Drivers/CMSIS/Include/cmsis_gcc.h ****   #pragma GCC diagnostic pop
 100:Drivers/CMSIS/Include/cmsis_gcc.h ****   #define __UNALIGNED_UINT32_WRITE(addr, val)    (void)((((struct T_UINT32_WRITE *)(void *)(addr))-
 101:Drivers/CMSIS/Include/cmsis_gcc.h **** #endif
 102:Drivers/CMSIS/Include/cmsis_gcc.h **** #ifndef   __UNALIGNED_UINT32_READ
 103:Drivers/CMSIS/Include/cmsis_gcc.h ****   #pragma GCC diagnostic push
 104:Drivers/CMSIS/Include/cmsis_gcc.h ****   #pragma GCC diagnostic ignored "-Wpacked"
 105:Drivers/CMSIS/Include/cmsis_gcc.h ****   #pragma GCC diagnostic ignored "-Wattributes"
 106:Drivers/CMSIS/Include/cmsis_gcc.h ****   __PACKED_STRUCT T_UINT32_READ { uint32_t v; };
 107:Drivers/CMSIS/Include/cmsis_gcc.h ****   #pragma GCC diagnostic pop
 108:Drivers/CMSIS/Include/cmsis_gcc.h ****   #define __UNALIGNED_UINT32_READ(addr)          (((const struct T_UINT32_READ *)(const void *)(add
 109:Drivers/CMSIS/Include/cmsis_gcc.h **** #endif
 110:Drivers/CMSIS/Include/cmsis_gcc.h **** #ifndef   __ALIGNED
 111:Drivers/CMSIS/Include/cmsis_gcc.h ****   #define __ALIGNED(x)                           __attribute__((aligned(x)))
 112:Drivers/CMSIS/Include/cmsis_gcc.h **** #endif
 113:Drivers/CMSIS/Include/cmsis_gcc.h **** #ifndef   __RESTRICT
 114:Drivers/CMSIS/Include/cmsis_gcc.h ****   #define __RESTRICT                             __restrict
 115:Drivers/CMSIS/Include/cmsis_gcc.h **** #endif
 116:Drivers/CMSIS/Include/cmsis_gcc.h **** #ifndef   __COMPILER_BARRIER
 117:Drivers/CMSIS/Include/cmsis_gcc.h ****   #define __COMPILER_BARRIER()                   __ASM volatile("":::"memory")
 118:Drivers/CMSIS/Include/cmsis_gcc.h **** #endif
 119:Drivers/CMSIS/Include/cmsis_gcc.h **** 
 120:Drivers/CMSIS/Include/cmsis_gcc.h **** /* #########################  Startup and Lowlevel Init  ######################## */
 121:Drivers/CMSIS/Include/cmsis_gcc.h **** 
 122:Drivers/CMSIS/Include/cmsis_gcc.h **** #ifndef __PROGRAM_START
 123:Drivers/CMSIS/Include/cmsis_gcc.h **** 
 124:Drivers/CMSIS/Include/cmsis_gcc.h **** /**
 125:Drivers/CMSIS/Include/cmsis_gcc.h ****   \brief   Initializes data and bss sections
 126:Drivers/CMSIS/Include/cmsis_gcc.h ****   \details This default implementations initialized all data and additional bss
 127:Drivers/CMSIS/Include/cmsis_gcc.h ****            sections relying on .copy.table and .zero.table specified properly
 128:Drivers/CMSIS/Include/cmsis_gcc.h ****            in the used linker script.
 129:Drivers/CMSIS/Include/cmsis_gcc.h ****   
 130:Drivers/CMSIS/Include/cmsis_gcc.h ****  */
 131:Drivers/CMSIS/Include/cmsis_gcc.h **** __STATIC_FORCEINLINE __NO_RETURN void __cmsis_start(void)
 132:Drivers/CMSIS/Include/cmsis_gcc.h **** {
 133:Drivers/CMSIS/Include/cmsis_gcc.h ****   extern void _start(void) __NO_RETURN;
 134:Drivers/CMSIS/Include/cmsis_gcc.h ****   
 135:Drivers/CMSIS/Include/cmsis_gcc.h ****   typedef struct {
 136:Drivers/CMSIS/Include/cmsis_gcc.h ****     uint32_t const* src;
 137:Drivers/CMSIS/Include/cmsis_gcc.h ****     uint32_t* dest;
 138:Drivers/CMSIS/Include/cmsis_gcc.h ****     uint32_t  wlen;
 139:Drivers/CMSIS/Include/cmsis_gcc.h ****   } __copy_table_t;
 140:Drivers/CMSIS/Include/cmsis_gcc.h ****   
 141:Drivers/CMSIS/Include/cmsis_gcc.h ****   typedef struct {
 142:Drivers/CMSIS/Include/cmsis_gcc.h ****     uint32_t* dest;
 143:Drivers/CMSIS/Include/cmsis_gcc.h ****     uint32_t  wlen;
 144:Drivers/CMSIS/Include/cmsis_gcc.h ****   } __zero_table_t;
 145:Drivers/CMSIS/Include/cmsis_gcc.h ****   
 146:Drivers/CMSIS/Include/cmsis_gcc.h ****   extern const __copy_table_t __copy_table_start__;
 147:Drivers/CMSIS/Include/cmsis_gcc.h ****   extern const __copy_table_t __copy_table_end__;
 148:Drivers/CMSIS/Include/cmsis_gcc.h ****   extern const __zero_table_t __zero_table_start__;
ARM GAS  /var/folders/l4/6w9kflz11csb_6qsyz46nv3c0000gp/T//ccVHZXsV.s 			page 20


 149:Drivers/CMSIS/Include/cmsis_gcc.h ****   extern const __zero_table_t __zero_table_end__;
 150:Drivers/CMSIS/Include/cmsis_gcc.h **** 
 151:Drivers/CMSIS/Include/cmsis_gcc.h ****   for (__copy_table_t const* pTable = &__copy_table_start__; pTable < &__copy_table_end__; ++pTable
 152:Drivers/CMSIS/Include/cmsis_gcc.h ****     for(uint32_t i=0u; i<pTable->wlen; ++i) {
 153:Drivers/CMSIS/Include/cmsis_gcc.h ****       pTable->dest[i] = pTable->src[i];
 154:Drivers/CMSIS/Include/cmsis_gcc.h ****     }
 155:Drivers/CMSIS/Include/cmsis_gcc.h ****   }
 156:Drivers/CMSIS/Include/cmsis_gcc.h ****  
 157:Drivers/CMSIS/Include/cmsis_gcc.h ****   for (__zero_table_t const* pTable = &__zero_table_start__; pTable < &__zero_table_end__; ++pTable
 158:Drivers/CMSIS/Include/cmsis_gcc.h ****     for(uint32_t i=0u; i<pTable->wlen; ++i) {
 159:Drivers/CMSIS/Include/cmsis_gcc.h ****       pTable->dest[i] = 0u;
 160:Drivers/CMSIS/Include/cmsis_gcc.h ****     }
 161:Drivers/CMSIS/Include/cmsis_gcc.h ****   }
 162:Drivers/CMSIS/Include/cmsis_gcc.h ****  
 163:Drivers/CMSIS/Include/cmsis_gcc.h ****   _start();
 164:Drivers/CMSIS/Include/cmsis_gcc.h **** }
 165:Drivers/CMSIS/Include/cmsis_gcc.h ****   
 166:Drivers/CMSIS/Include/cmsis_gcc.h **** #define __PROGRAM_START           __cmsis_start
 167:Drivers/CMSIS/Include/cmsis_gcc.h **** #endif
 168:Drivers/CMSIS/Include/cmsis_gcc.h **** 
 169:Drivers/CMSIS/Include/cmsis_gcc.h **** #ifndef __INITIAL_SP
 170:Drivers/CMSIS/Include/cmsis_gcc.h **** #define __INITIAL_SP              __StackTop
 171:Drivers/CMSIS/Include/cmsis_gcc.h **** #endif
 172:Drivers/CMSIS/Include/cmsis_gcc.h **** 
 173:Drivers/CMSIS/Include/cmsis_gcc.h **** #ifndef __STACK_LIMIT
 174:Drivers/CMSIS/Include/cmsis_gcc.h **** #define __STACK_LIMIT             __StackLimit
 175:Drivers/CMSIS/Include/cmsis_gcc.h **** #endif
 176:Drivers/CMSIS/Include/cmsis_gcc.h **** 
 177:Drivers/CMSIS/Include/cmsis_gcc.h **** #ifndef __VECTOR_TABLE
 178:Drivers/CMSIS/Include/cmsis_gcc.h **** #define __VECTOR_TABLE            __Vectors
 179:Drivers/CMSIS/Include/cmsis_gcc.h **** #endif
 180:Drivers/CMSIS/Include/cmsis_gcc.h **** 
 181:Drivers/CMSIS/Include/cmsis_gcc.h **** #ifndef __VECTOR_TABLE_ATTRIBUTE
 182:Drivers/CMSIS/Include/cmsis_gcc.h **** #define __VECTOR_TABLE_ATTRIBUTE  __attribute((used, section(".vectors")))
 183:Drivers/CMSIS/Include/cmsis_gcc.h **** #endif
 184:Drivers/CMSIS/Include/cmsis_gcc.h **** 
 185:Drivers/CMSIS/Include/cmsis_gcc.h **** /* ###########################  Core Function Access  ########################### */
 186:Drivers/CMSIS/Include/cmsis_gcc.h **** /** \ingroup  CMSIS_Core_FunctionInterface
 187:Drivers/CMSIS/Include/cmsis_gcc.h ****     \defgroup CMSIS_Core_RegAccFunctions CMSIS Core Register Access Functions
 188:Drivers/CMSIS/Include/cmsis_gcc.h ****   @{
 189:Drivers/CMSIS/Include/cmsis_gcc.h ****  */
 190:Drivers/CMSIS/Include/cmsis_gcc.h **** 
 191:Drivers/CMSIS/Include/cmsis_gcc.h **** /**
 192:Drivers/CMSIS/Include/cmsis_gcc.h ****   \brief   Enable IRQ Interrupts
 193:Drivers/CMSIS/Include/cmsis_gcc.h ****   \details Enables IRQ interrupts by clearing the I-bit in the CPSR.
 194:Drivers/CMSIS/Include/cmsis_gcc.h ****            Can only be executed in Privileged modes.
 195:Drivers/CMSIS/Include/cmsis_gcc.h ****  */
 196:Drivers/CMSIS/Include/cmsis_gcc.h **** __STATIC_FORCEINLINE void __enable_irq(void)
 197:Drivers/CMSIS/Include/cmsis_gcc.h **** {
 198:Drivers/CMSIS/Include/cmsis_gcc.h ****   __ASM volatile ("cpsie i" : : : "memory");
 199:Drivers/CMSIS/Include/cmsis_gcc.h **** }
 200:Drivers/CMSIS/Include/cmsis_gcc.h **** 
 201:Drivers/CMSIS/Include/cmsis_gcc.h **** 
 202:Drivers/CMSIS/Include/cmsis_gcc.h **** /**
 203:Drivers/CMSIS/Include/cmsis_gcc.h ****   \brief   Disable IRQ Interrupts
 204:Drivers/CMSIS/Include/cmsis_gcc.h ****   \details Disables IRQ interrupts by setting the I-bit in the CPSR.
 205:Drivers/CMSIS/Include/cmsis_gcc.h ****            Can only be executed in Privileged modes.
ARM GAS  /var/folders/l4/6w9kflz11csb_6qsyz46nv3c0000gp/T//ccVHZXsV.s 			page 21


 206:Drivers/CMSIS/Include/cmsis_gcc.h ****  */
 207:Drivers/CMSIS/Include/cmsis_gcc.h **** __STATIC_FORCEINLINE void __disable_irq(void)
 479              		.loc 2 207 27 view .LVU132
 480              	.LBB15:
 208:Drivers/CMSIS/Include/cmsis_gcc.h **** {
 209:Drivers/CMSIS/Include/cmsis_gcc.h ****   __ASM volatile ("cpsid i" : : : "memory");
 481              		.loc 2 209 3 view .LVU133
 482              		.syntax unified
 483              	@ 209 "Drivers/CMSIS/Include/cmsis_gcc.h" 1
 484 0000 72B6     		cpsid i
 485              	@ 0 "" 2
 486              		.thumb
 487              		.syntax unified
 488              	.L29:
 489              	.LBE15:
 490              	.LBE14:
 410:Core/Src/main.c ****   while (1)
 491              		.loc 1 410 3 view .LVU134
 411:Core/Src/main.c ****   {
 412:Core/Src/main.c ****   }
 492              		.loc 1 412 3 view .LVU135
 410:Core/Src/main.c ****   while (1)
 493              		.loc 1 410 9 view .LVU136
 494 0002 FEE7     		b	.L29
 495              		.cfi_endproc
 496              	.LFE151:
 498              		.section	.text.MX_LTDC_Init,"ax",%progbits
 499              		.align	1
 500              		.syntax unified
 501              		.thumb
 502              		.thumb_func
 504              	MX_LTDC_Init:
 505              	.LFB146:
 223:Core/Src/main.c **** 
 506              		.loc 1 223 1 view -0
 507              		.cfi_startproc
 508              		@ args = 0, pretend = 0, frame = 56
 509              		@ frame_needed = 0, uses_anonymous_args = 0
 510 0000 00B5     		push	{lr}
 511              		.cfi_def_cfa_offset 4
 512              		.cfi_offset 14, -4
 513 0002 8FB0     		sub	sp, sp, #60
 514              		.cfi_def_cfa_offset 64
 229:Core/Src/main.c **** 
 515              		.loc 1 229 3 view .LVU138
 229:Core/Src/main.c **** 
 516              		.loc 1 229 24 is_stmt 0 view .LVU139
 517 0004 3422     		movs	r2, #52
 518 0006 0021     		movs	r1, #0
 519 0008 01A8     		add	r0, sp, #4
 520 000a FFF7FEFF 		bl	memset
 521              	.LVL18:
 235:Core/Src/main.c ****   hltdc.Init.HSPolarity = LTDC_HSPOLARITY_AL;
 522              		.loc 1 235 3 is_stmt 1 view .LVU140
 235:Core/Src/main.c ****   hltdc.Init.HSPolarity = LTDC_HSPOLARITY_AL;
 523              		.loc 1 235 18 is_stmt 0 view .LVU141
 524 000e 3048     		ldr	r0, .L38
ARM GAS  /var/folders/l4/6w9kflz11csb_6qsyz46nv3c0000gp/T//ccVHZXsV.s 			page 22


 525 0010 304B     		ldr	r3, .L38+4
 526 0012 0360     		str	r3, [r0]
 236:Core/Src/main.c ****   hltdc.Init.VSPolarity = LTDC_VSPOLARITY_AL;
 527              		.loc 1 236 3 is_stmt 1 view .LVU142
 236:Core/Src/main.c ****   hltdc.Init.VSPolarity = LTDC_VSPOLARITY_AL;
 528              		.loc 1 236 25 is_stmt 0 view .LVU143
 529 0014 0023     		movs	r3, #0
 530 0016 4360     		str	r3, [r0, #4]
 237:Core/Src/main.c ****   hltdc.Init.DEPolarity = LTDC_DEPOLARITY_AL;
 531              		.loc 1 237 3 is_stmt 1 view .LVU144
 237:Core/Src/main.c ****   hltdc.Init.DEPolarity = LTDC_DEPOLARITY_AL;
 532              		.loc 1 237 25 is_stmt 0 view .LVU145
 533 0018 8360     		str	r3, [r0, #8]
 238:Core/Src/main.c ****   hltdc.Init.PCPolarity = LTDC_PCPOLARITY_IPC;
 534              		.loc 1 238 3 is_stmt 1 view .LVU146
 238:Core/Src/main.c ****   hltdc.Init.PCPolarity = LTDC_PCPOLARITY_IPC;
 535              		.loc 1 238 25 is_stmt 0 view .LVU147
 536 001a C360     		str	r3, [r0, #12]
 239:Core/Src/main.c ****   hltdc.Init.HorizontalSync = H_SYNC_WIDTH - 1;
 537              		.loc 1 239 3 is_stmt 1 view .LVU148
 239:Core/Src/main.c ****   hltdc.Init.HorizontalSync = H_SYNC_WIDTH - 1;
 538              		.loc 1 239 25 is_stmt 0 view .LVU149
 539 001c 0361     		str	r3, [r0, #16]
 240:Core/Src/main.c ****   hltdc.Init.VerticalSync = V_SYNC_WIDTH - 1;
 540              		.loc 1 240 3 is_stmt 1 view .LVU150
 240:Core/Src/main.c ****   hltdc.Init.VerticalSync = V_SYNC_WIDTH - 1;
 541              		.loc 1 240 29 is_stmt 0 view .LVU151
 542 001e 3122     		movs	r2, #49
 543 0020 4261     		str	r2, [r0, #20]
 241:Core/Src/main.c ****   hltdc.Init.AccumulatedHBP = H_SYNC_WIDTH + H_BACK_PORCH - 1;
 544              		.loc 1 241 3 is_stmt 1 view .LVU152
 241:Core/Src/main.c ****   hltdc.Init.AccumulatedHBP = H_SYNC_WIDTH + H_BACK_PORCH - 1;
 545              		.loc 1 241 27 is_stmt 0 view .LVU153
 546 0022 8261     		str	r2, [r0, #24]
 242:Core/Src/main.c ****   hltdc.Init.AccumulatedVBP = V_SYNC_WIDTH + V_BACK_PORCH - 1;
 547              		.loc 1 242 3 is_stmt 1 view .LVU154
 242:Core/Src/main.c ****   hltdc.Init.AccumulatedVBP = V_SYNC_WIDTH + V_BACK_PORCH - 1;
 548              		.loc 1 242 29 is_stmt 0 view .LVU155
 549 0024 6322     		movs	r2, #99
 550 0026 C261     		str	r2, [r0, #28]
 243:Core/Src/main.c ****   hltdc.Init.AccumulatedActiveW = H_SYNC_WIDTH + H_BACK_PORCH + LCD_ACTIVE_WIDTH - 1;
 551              		.loc 1 243 3 is_stmt 1 view .LVU156
 243:Core/Src/main.c ****   hltdc.Init.AccumulatedActiveW = H_SYNC_WIDTH + H_BACK_PORCH + LCD_ACTIVE_WIDTH - 1;
 552              		.loc 1 243 29 is_stmt 0 view .LVU157
 553 0028 0262     		str	r2, [r0, #32]
 244:Core/Src/main.c ****   hltdc.Init.AccumulatedActiveH = V_SYNC_WIDTH + V_BACK_PORCH + LCD_ACTIVE_HEIGHT - 1;
 554              		.loc 1 244 3 is_stmt 1 view .LVU158
 244:Core/Src/main.c ****   hltdc.Init.AccumulatedActiveH = V_SYNC_WIDTH + V_BACK_PORCH + LCD_ACTIVE_HEIGHT - 1;
 555              		.loc 1 244 33 is_stmt 0 view .LVU159
 556 002a 40F26352 		movw	r2, #1379
 557 002e 4262     		str	r2, [r0, #36]
 245:Core/Src/main.c ****   hltdc.Init.TotalWidth = H_TOTAL - 1;
 558              		.loc 1 245 3 is_stmt 1 view .LVU160
 245:Core/Src/main.c ****   hltdc.Init.TotalWidth = H_TOTAL - 1;
 559              		.loc 1 245 33 is_stmt 0 view .LVU161
 560 0030 40F6C312 		movw	r2, #2499
 561 0034 8262     		str	r2, [r0, #40]
ARM GAS  /var/folders/l4/6w9kflz11csb_6qsyz46nv3c0000gp/T//ccVHZXsV.s 			page 23


 246:Core/Src/main.c ****   hltdc.Init.TotalHeigh = V_TOTAL - 1;
 562              		.loc 1 246 3 is_stmt 1 view .LVU162
 246:Core/Src/main.c ****   hltdc.Init.TotalHeigh = V_TOTAL - 1;
 563              		.loc 1 246 25 is_stmt 0 view .LVU163
 564 0036 40F29552 		movw	r2, #1429
 565 003a C262     		str	r2, [r0, #44]
 247:Core/Src/main.c ****   hltdc.Init.Backcolor.Blue = 0;
 566              		.loc 1 247 3 is_stmt 1 view .LVU164
 247:Core/Src/main.c ****   hltdc.Init.Backcolor.Blue = 0;
 567              		.loc 1 247 25 is_stmt 0 view .LVU165
 568 003c 40F6F512 		movw	r2, #2549
 569 0040 0263     		str	r2, [r0, #48]
 248:Core/Src/main.c ****   hltdc.Init.Backcolor.Green = 0;
 570              		.loc 1 248 3 is_stmt 1 view .LVU166
 248:Core/Src/main.c ****   hltdc.Init.Backcolor.Green = 0;
 571              		.loc 1 248 29 is_stmt 0 view .LVU167
 572 0042 80F83430 		strb	r3, [r0, #52]
 249:Core/Src/main.c ****   hltdc.Init.Backcolor.Red = 0;
 573              		.loc 1 249 3 is_stmt 1 view .LVU168
 249:Core/Src/main.c ****   hltdc.Init.Backcolor.Red = 0;
 574              		.loc 1 249 30 is_stmt 0 view .LVU169
 575 0046 80F83530 		strb	r3, [r0, #53]
 250:Core/Src/main.c ****   if (HAL_LTDC_Init(&hltdc) != HAL_OK)
 576              		.loc 1 250 3 is_stmt 1 view .LVU170
 250:Core/Src/main.c ****   if (HAL_LTDC_Init(&hltdc) != HAL_OK)
 577              		.loc 1 250 28 is_stmt 0 view .LVU171
 578 004a 80F83630 		strb	r3, [r0, #54]
 251:Core/Src/main.c ****   {
 579              		.loc 1 251 3 is_stmt 1 view .LVU172
 251:Core/Src/main.c ****   {
 580              		.loc 1 251 7 is_stmt 0 view .LVU173
 581 004e FFF7FEFF 		bl	HAL_LTDC_Init
 582              	.LVL19:
 251:Core/Src/main.c ****   {
 583              		.loc 1 251 6 discriminator 1 view .LVU174
 584 0052 20BB     		cbnz	r0, .L36
 255:Core/Src/main.c ****   pLayerCfg.WindowX1 = LCD_ACTIVE_WIDTH;
 585              		.loc 1 255 3 is_stmt 1 view .LVU175
 255:Core/Src/main.c ****   pLayerCfg.WindowX1 = LCD_ACTIVE_WIDTH;
 586              		.loc 1 255 22 is_stmt 0 view .LVU176
 587 0054 0023     		movs	r3, #0
 588 0056 0193     		str	r3, [sp, #4]
 256:Core/Src/main.c ****   pLayerCfg.WindowY0 = 0;
 589              		.loc 1 256 3 is_stmt 1 view .LVU177
 256:Core/Src/main.c ****   pLayerCfg.WindowY0 = 0;
 590              		.loc 1 256 22 is_stmt 0 view .LVU178
 591 0058 4FF4A061 		mov	r1, #1280
 592 005c 0291     		str	r1, [sp, #8]
 257:Core/Src/main.c ****   pLayerCfg.WindowY1 = LCD_ACTIVE_HEIGHT;
 593              		.loc 1 257 3 is_stmt 1 view .LVU179
 257:Core/Src/main.c ****   pLayerCfg.WindowY1 = LCD_ACTIVE_HEIGHT;
 594              		.loc 1 257 22 is_stmt 0 view .LVU180
 595 005e 0393     		str	r3, [sp, #12]
 258:Core/Src/main.c ****   pLayerCfg.PixelFormat = LTDC_PIXEL_FORMAT_L8;
 596              		.loc 1 258 3 is_stmt 1 view .LVU181
 258:Core/Src/main.c ****   pLayerCfg.PixelFormat = LTDC_PIXEL_FORMAT_L8;
 597              		.loc 1 258 22 is_stmt 0 view .LVU182
ARM GAS  /var/folders/l4/6w9kflz11csb_6qsyz46nv3c0000gp/T//ccVHZXsV.s 			page 24


 598 0060 4FF41662 		mov	r2, #2400
 599 0064 0492     		str	r2, [sp, #16]
 259:Core/Src/main.c ****   pLayerCfg.Alpha = 255;
 600              		.loc 1 259 3 is_stmt 1 view .LVU183
 259:Core/Src/main.c ****   pLayerCfg.Alpha = 255;
 601              		.loc 1 259 25 is_stmt 0 view .LVU184
 602 0066 0520     		movs	r0, #5
 603 0068 0590     		str	r0, [sp, #20]
 260:Core/Src/main.c ****   pLayerCfg.Alpha0 = 0;
 604              		.loc 1 260 3 is_stmt 1 view .LVU185
 260:Core/Src/main.c ****   pLayerCfg.Alpha0 = 0;
 605              		.loc 1 260 19 is_stmt 0 view .LVU186
 606 006a FF20     		movs	r0, #255
 607 006c 0690     		str	r0, [sp, #24]
 261:Core/Src/main.c ****   pLayerCfg.BlendingFactor1 = LTDC_BLENDING_FACTOR1_PAxCA;
 608              		.loc 1 261 3 is_stmt 1 view .LVU187
 261:Core/Src/main.c ****   pLayerCfg.BlendingFactor1 = LTDC_BLENDING_FACTOR1_PAxCA;
 609              		.loc 1 261 20 is_stmt 0 view .LVU188
 610 006e 0793     		str	r3, [sp, #28]
 262:Core/Src/main.c ****   pLayerCfg.BlendingFactor2 = LTDC_BLENDING_FACTOR2_PAxCA;
 611              		.loc 1 262 3 is_stmt 1 view .LVU189
 262:Core/Src/main.c ****   pLayerCfg.BlendingFactor2 = LTDC_BLENDING_FACTOR2_PAxCA;
 612              		.loc 1 262 29 is_stmt 0 view .LVU190
 613 0070 4FF4C060 		mov	r0, #1536
 614 0074 0890     		str	r0, [sp, #32]
 263:Core/Src/main.c ****   pLayerCfg.FBStartAdress = (uint32_t)buffer0;
 615              		.loc 1 263 3 is_stmt 1 view .LVU191
 263:Core/Src/main.c ****   pLayerCfg.FBStartAdress = (uint32_t)buffer0;
 616              		.loc 1 263 29 is_stmt 0 view .LVU192
 617 0076 0720     		movs	r0, #7
 618 0078 0990     		str	r0, [sp, #36]
 264:Core/Src/main.c ****   pLayerCfg.ImageWidth = LCD_ACTIVE_WIDTH;
 619              		.loc 1 264 3 is_stmt 1 view .LVU193
 264:Core/Src/main.c ****   pLayerCfg.ImageWidth = LCD_ACTIVE_WIDTH;
 620              		.loc 1 264 29 is_stmt 0 view .LVU194
 621 007a 1748     		ldr	r0, .L38+8
 264:Core/Src/main.c ****   pLayerCfg.ImageWidth = LCD_ACTIVE_WIDTH;
 622              		.loc 1 264 27 view .LVU195
 623 007c 0A90     		str	r0, [sp, #40]
 265:Core/Src/main.c ****   pLayerCfg.ImageHeight = LCD_ACTIVE_HEIGHT;
 624              		.loc 1 265 3 is_stmt 1 view .LVU196
 265:Core/Src/main.c ****   pLayerCfg.ImageHeight = LCD_ACTIVE_HEIGHT;
 625              		.loc 1 265 24 is_stmt 0 view .LVU197
 626 007e 0B91     		str	r1, [sp, #44]
 266:Core/Src/main.c ****   pLayerCfg.Backcolor.Blue = 0;
 627              		.loc 1 266 3 is_stmt 1 view .LVU198
 266:Core/Src/main.c ****   pLayerCfg.Backcolor.Blue = 0;
 628              		.loc 1 266 25 is_stmt 0 view .LVU199
 629 0080 0C92     		str	r2, [sp, #48]
 267:Core/Src/main.c ****   pLayerCfg.Backcolor.Green = 0;
 630              		.loc 1 267 3 is_stmt 1 view .LVU200
 267:Core/Src/main.c ****   pLayerCfg.Backcolor.Green = 0;
 631              		.loc 1 267 28 is_stmt 0 view .LVU201
 632 0082 8DF83430 		strb	r3, [sp, #52]
 268:Core/Src/main.c ****   pLayerCfg.Backcolor.Red = 0;
 633              		.loc 1 268 3 is_stmt 1 view .LVU202
 268:Core/Src/main.c ****   pLayerCfg.Backcolor.Red = 0;
ARM GAS  /var/folders/l4/6w9kflz11csb_6qsyz46nv3c0000gp/T//ccVHZXsV.s 			page 25


 634              		.loc 1 268 29 is_stmt 0 view .LVU203
 635 0086 8DF83530 		strb	r3, [sp, #53]
 269:Core/Src/main.c ****   if (HAL_LTDC_ConfigLayer(&hltdc, &pLayerCfg, 1) != HAL_OK)
 636              		.loc 1 269 3 is_stmt 1 view .LVU204
 269:Core/Src/main.c ****   if (HAL_LTDC_ConfigLayer(&hltdc, &pLayerCfg, 1) != HAL_OK)
 637              		.loc 1 269 27 is_stmt 0 view .LVU205
 638 008a 8DF83630 		strb	r3, [sp, #54]
 270:Core/Src/main.c ****   {
 639              		.loc 1 270 3 is_stmt 1 view .LVU206
 270:Core/Src/main.c ****   {
 640              		.loc 1 270 7 is_stmt 0 view .LVU207
 641 008e 0122     		movs	r2, #1
 642 0090 01A9     		add	r1, sp, #4
 643 0092 0F48     		ldr	r0, .L38
 644 0094 FFF7FEFF 		bl	HAL_LTDC_ConfigLayer
 645              	.LVL20:
 270:Core/Src/main.c ****   {
 646              		.loc 1 270 6 discriminator 1 view .LVU208
 647 0098 18B9     		cbnz	r0, .L37
 648              	.LBB16:
 275:Core/Src/main.c ****     clut[i] = i << 16 | i << 8 | i; 
 649              		.loc 1 275 11 view .LVU209
 650 009a 0023     		movs	r3, #0
 651 009c 0BE0     		b	.L32
 652              	.L36:
 653              	.LBE16:
 253:Core/Src/main.c ****   }
 654              		.loc 1 253 5 is_stmt 1 view .LVU210
 655 009e FFF7FEFF 		bl	Error_Handler
 656              	.LVL21:
 657              	.L37:
 272:Core/Src/main.c ****   }
 658              		.loc 1 272 5 view .LVU211
 659 00a2 FFF7FEFF 		bl	Error_Handler
 660              	.LVL22:
 661              	.L33:
 662              	.LBB17:
 276:Core/Src/main.c ****   }
 663              		.loc 1 276 5 view .LVU212
 276:Core/Src/main.c ****   }
 664              		.loc 1 276 27 is_stmt 0 view .LVU213
 665 00a6 1A02     		lsls	r2, r3, #8
 276:Core/Src/main.c ****   }
 666              		.loc 1 276 23 view .LVU214
 667 00a8 42EA0342 		orr	r2, r2, r3, lsl #16
 276:Core/Src/main.c ****   }
 668              		.loc 1 276 32 view .LVU215
 669 00ac 1A43     		orrs	r2, r2, r3
 276:Core/Src/main.c ****   }
 670              		.loc 1 276 13 view .LVU216
 671 00ae 0B49     		ldr	r1, .L38+12
 672 00b0 41F82320 		str	r2, [r1, r3, lsl #2]
 275:Core/Src/main.c ****     clut[i] = i << 16 | i << 8 | i; 
 673              		.loc 1 275 29 is_stmt 1 discriminator 3 view .LVU217
 674 00b4 0133     		adds	r3, r3, #1
 675              	.LVL23:
 676              	.L32:
ARM GAS  /var/folders/l4/6w9kflz11csb_6qsyz46nv3c0000gp/T//ccVHZXsV.s 			page 26


 275:Core/Src/main.c ****     clut[i] = i << 16 | i << 8 | i; 
 677              		.loc 1 275 21 discriminator 1 view .LVU218
 678 00b6 FF2B     		cmp	r3, #255
 679 00b8 F5DD     		ble	.L33
 680              	.LBE17:
 278:Core/Src/main.c ****   /* USER CODE END LTDC_Init 2 */
 681              		.loc 1 278 3 view .LVU219
 682 00ba 0023     		movs	r3, #0
 683              	.LVL24:
 278:Core/Src/main.c ****   /* USER CODE END LTDC_Init 2 */
 684              		.loc 1 278 3 is_stmt 0 view .LVU220
 685 00bc 4FF48072 		mov	r2, #256
 686 00c0 0649     		ldr	r1, .L38+12
 687 00c2 0348     		ldr	r0, .L38
 688 00c4 FFF7FEFF 		bl	HAL_LTDC_ConfigCLUT
 689              	.LVL25:
 281:Core/Src/main.c **** 
 690              		.loc 1 281 1 view .LVU221
 691 00c8 0FB0     		add	sp, sp, #60
 692              		.cfi_def_cfa_offset 4
 693              		@ sp needed
 694 00ca 5DF804FB 		ldr	pc, [sp], #4
 695              	.L39:
 696 00ce 00BF     		.align	2
 697              	.L38:
 698 00d0 00000000 		.word	hltdc
 699 00d4 00100050 		.word	1342181376
 700 00d8 00E80300 		.word	buffer0
 701 00dc 00000000 		.word	clut
 702              		.cfi_endproc
 703              	.LFE146:
 705              		.section	.text.SystemClock_Config,"ax",%progbits
 706              		.align	1
 707              		.global	SystemClock_Config
 708              		.syntax unified
 709              		.thumb
 710              		.thumb_func
 712              	SystemClock_Config:
 713              	.LFB145:
 163:Core/Src/main.c ****   RCC_OscInitTypeDef RCC_OscInitStruct = {0};
 714              		.loc 1 163 1 is_stmt 1 view -0
 715              		.cfi_startproc
 716              		@ args = 0, pretend = 0, frame = 112
 717              		@ frame_needed = 0, uses_anonymous_args = 0
 718 0000 00B5     		push	{lr}
 719              		.cfi_def_cfa_offset 4
 720              		.cfi_offset 14, -4
 721 0002 9DB0     		sub	sp, sp, #116
 722              		.cfi_def_cfa_offset 120
 164:Core/Src/main.c ****   RCC_ClkInitTypeDef RCC_ClkInitStruct = {0};
 723              		.loc 1 164 3 view .LVU223
 164:Core/Src/main.c ****   RCC_ClkInitTypeDef RCC_ClkInitStruct = {0};
 724              		.loc 1 164 22 is_stmt 0 view .LVU224
 725 0004 4C22     		movs	r2, #76
 726 0006 0021     		movs	r1, #0
 727 0008 09A8     		add	r0, sp, #36
 728 000a FFF7FEFF 		bl	memset
ARM GAS  /var/folders/l4/6w9kflz11csb_6qsyz46nv3c0000gp/T//ccVHZXsV.s 			page 27


 729              	.LVL26:
 165:Core/Src/main.c **** 
 730              		.loc 1 165 3 is_stmt 1 view .LVU225
 165:Core/Src/main.c **** 
 731              		.loc 1 165 22 is_stmt 0 view .LVU226
 732 000e 2022     		movs	r2, #32
 733 0010 0021     		movs	r1, #0
 734 0012 01A8     		add	r0, sp, #4
 735 0014 FFF7FEFF 		bl	memset
 736              	.LVL27:
 169:Core/Src/main.c **** 
 737              		.loc 1 169 3 is_stmt 1 view .LVU227
 738 0018 0220     		movs	r0, #2
 739 001a FFF7FEFF 		bl	HAL_PWREx_ConfigSupply
 740              	.LVL28:
 173:Core/Src/main.c **** 
 741              		.loc 1 173 3 view .LVU228
 742              	.LBB18:
 173:Core/Src/main.c **** 
 743              		.loc 1 173 3 view .LVU229
 744 001e 0023     		movs	r3, #0
 745 0020 0093     		str	r3, [sp]
 173:Core/Src/main.c **** 
 746              		.loc 1 173 3 view .LVU230
 173:Core/Src/main.c **** 
 747              		.loc 1 173 3 discriminator 2 view .LVU231
 748 0022 264B     		ldr	r3, .L47
 749 0024 DA6A     		ldr	r2, [r3, #44]
 750 0026 22F00102 		bic	r2, r2, #1
 751 002a DA62     		str	r2, [r3, #44]
 173:Core/Src/main.c **** 
 752              		.loc 1 173 3 view .LVU232
 173:Core/Src/main.c **** 
 753              		.loc 1 173 3 is_stmt 0 discriminator 2 view .LVU233
 754 002c DB6A     		ldr	r3, [r3, #44]
 755 002e 03F00103 		and	r3, r3, #1
 756 0032 0093     		str	r3, [sp]
 173:Core/Src/main.c **** 
 757              		.loc 1 173 3 is_stmt 1 view .LVU234
 173:Core/Src/main.c **** 
 758              		.loc 1 173 3 is_stmt 0 discriminator 2 view .LVU235
 759 0034 224B     		ldr	r3, .L47+4
 760 0036 9A69     		ldr	r2, [r3, #24]
 761 0038 42F44042 		orr	r2, r2, #49152
 762 003c 9A61     		str	r2, [r3, #24]
 173:Core/Src/main.c **** 
 763              		.loc 1 173 3 is_stmt 1 view .LVU236
 173:Core/Src/main.c **** 
 764              		.loc 1 173 3 is_stmt 0 discriminator 2 view .LVU237
 765 003e 9B69     		ldr	r3, [r3, #24]
 766 0040 03F44043 		and	r3, r3, #49152
 767 0044 0093     		str	r3, [sp]
 173:Core/Src/main.c **** 
 768              		.loc 1 173 3 is_stmt 1 discriminator 4 view .LVU238
 769 0046 009B     		ldr	r3, [sp]
 770              	.LBE18:
 173:Core/Src/main.c **** 
ARM GAS  /var/folders/l4/6w9kflz11csb_6qsyz46nv3c0000gp/T//ccVHZXsV.s 			page 28


 771              		.loc 1 173 3 view .LVU239
 175:Core/Src/main.c **** 
 772              		.loc 1 175 3 view .LVU240
 773              	.L41:
 175:Core/Src/main.c **** 
 774              		.loc 1 175 48 discriminator 1 view .LVU241
 175:Core/Src/main.c **** 
 775              		.loc 1 175 9 discriminator 1 view .LVU242
 175:Core/Src/main.c **** 
 776              		.loc 1 175 10 is_stmt 0 discriminator 1 view .LVU243
 777 0048 1D4B     		ldr	r3, .L47+4
 778 004a 9B69     		ldr	r3, [r3, #24]
 175:Core/Src/main.c **** 
 779              		.loc 1 175 9 discriminator 1 view .LVU244
 780 004c 13F4005F 		tst	r3, #8192
 781 0050 FAD0     		beq	.L41
 180:Core/Src/main.c ****   RCC_OscInitStruct.HSIState = RCC_HSI_DIV1;
 782              		.loc 1 180 3 is_stmt 1 view .LVU245
 180:Core/Src/main.c ****   RCC_OscInitStruct.HSIState = RCC_HSI_DIV1;
 783              		.loc 1 180 36 is_stmt 0 view .LVU246
 784 0052 0223     		movs	r3, #2
 785 0054 0993     		str	r3, [sp, #36]
 181:Core/Src/main.c ****   RCC_OscInitStruct.HSICalibrationValue = RCC_HSICALIBRATION_DEFAULT;
 786              		.loc 1 181 3 is_stmt 1 view .LVU247
 181:Core/Src/main.c ****   RCC_OscInitStruct.HSICalibrationValue = RCC_HSICALIBRATION_DEFAULT;
 787              		.loc 1 181 30 is_stmt 0 view .LVU248
 788 0056 0122     		movs	r2, #1
 789 0058 0C92     		str	r2, [sp, #48]
 182:Core/Src/main.c ****   RCC_OscInitStruct.PLL.PLLState = RCC_PLL_ON;
 790              		.loc 1 182 3 is_stmt 1 view .LVU249
 182:Core/Src/main.c ****   RCC_OscInitStruct.PLL.PLLState = RCC_PLL_ON;
 791              		.loc 1 182 41 is_stmt 0 view .LVU250
 792 005a 4022     		movs	r2, #64
 793 005c 0D92     		str	r2, [sp, #52]
 183:Core/Src/main.c ****   RCC_OscInitStruct.PLL.PLLSource = RCC_PLLSOURCE_HSI;
 794              		.loc 1 183 3 is_stmt 1 view .LVU251
 183:Core/Src/main.c ****   RCC_OscInitStruct.PLL.PLLSource = RCC_PLLSOURCE_HSI;
 795              		.loc 1 183 34 is_stmt 0 view .LVU252
 796 005e 1293     		str	r3, [sp, #72]
 184:Core/Src/main.c ****   RCC_OscInitStruct.PLL.PLLM = 32;
 797              		.loc 1 184 3 is_stmt 1 view .LVU253
 184:Core/Src/main.c ****   RCC_OscInitStruct.PLL.PLLM = 32;
 798              		.loc 1 184 35 is_stmt 0 view .LVU254
 799 0060 0022     		movs	r2, #0
 800 0062 1392     		str	r2, [sp, #76]
 185:Core/Src/main.c ****   RCC_OscInitStruct.PLL.PLLN = 400;
 801              		.loc 1 185 3 is_stmt 1 view .LVU255
 185:Core/Src/main.c ****   RCC_OscInitStruct.PLL.PLLN = 400;
 802              		.loc 1 185 30 is_stmt 0 view .LVU256
 803 0064 2021     		movs	r1, #32
 804 0066 1491     		str	r1, [sp, #80]
 186:Core/Src/main.c ****   RCC_OscInitStruct.PLL.PLLP = 2;
 805              		.loc 1 186 3 is_stmt 1 view .LVU257
 186:Core/Src/main.c ****   RCC_OscInitStruct.PLL.PLLP = 2;
 806              		.loc 1 186 30 is_stmt 0 view .LVU258
 807 0068 4FF4C871 		mov	r1, #400
 808 006c 1591     		str	r1, [sp, #84]
ARM GAS  /var/folders/l4/6w9kflz11csb_6qsyz46nv3c0000gp/T//ccVHZXsV.s 			page 29


 187:Core/Src/main.c ****   RCC_OscInitStruct.PLL.PLLQ = 2;
 809              		.loc 1 187 3 is_stmt 1 view .LVU259
 187:Core/Src/main.c ****   RCC_OscInitStruct.PLL.PLLQ = 2;
 810              		.loc 1 187 30 is_stmt 0 view .LVU260
 811 006e 1693     		str	r3, [sp, #88]
 188:Core/Src/main.c ****   RCC_OscInitStruct.PLL.PLLR = 2;
 812              		.loc 1 188 3 is_stmt 1 view .LVU261
 188:Core/Src/main.c ****   RCC_OscInitStruct.PLL.PLLR = 2;
 813              		.loc 1 188 30 is_stmt 0 view .LVU262
 814 0070 1793     		str	r3, [sp, #92]
 189:Core/Src/main.c ****   RCC_OscInitStruct.PLL.PLLRGE = RCC_PLL1VCIRANGE_1;
 815              		.loc 1 189 3 is_stmt 1 view .LVU263
 189:Core/Src/main.c ****   RCC_OscInitStruct.PLL.PLLRGE = RCC_PLL1VCIRANGE_1;
 816              		.loc 1 189 30 is_stmt 0 view .LVU264
 817 0072 1893     		str	r3, [sp, #96]
 190:Core/Src/main.c ****   RCC_OscInitStruct.PLL.PLLVCOSEL = RCC_PLL1VCOWIDE;
 818              		.loc 1 190 3 is_stmt 1 view .LVU265
 190:Core/Src/main.c ****   RCC_OscInitStruct.PLL.PLLVCOSEL = RCC_PLL1VCOWIDE;
 819              		.loc 1 190 32 is_stmt 0 view .LVU266
 820 0074 0423     		movs	r3, #4
 821 0076 1993     		str	r3, [sp, #100]
 191:Core/Src/main.c ****   RCC_OscInitStruct.PLL.PLLFRACN = 0;
 822              		.loc 1 191 3 is_stmt 1 view .LVU267
 191:Core/Src/main.c ****   RCC_OscInitStruct.PLL.PLLFRACN = 0;
 823              		.loc 1 191 35 is_stmt 0 view .LVU268
 824 0078 1A92     		str	r2, [sp, #104]
 192:Core/Src/main.c ****   if (HAL_RCC_OscConfig(&RCC_OscInitStruct) != HAL_OK)
 825              		.loc 1 192 3 is_stmt 1 view .LVU269
 192:Core/Src/main.c ****   if (HAL_RCC_OscConfig(&RCC_OscInitStruct) != HAL_OK)
 826              		.loc 1 192 34 is_stmt 0 view .LVU270
 827 007a 1B92     		str	r2, [sp, #108]
 193:Core/Src/main.c ****   {
 828              		.loc 1 193 3 is_stmt 1 view .LVU271
 193:Core/Src/main.c ****   {
 829              		.loc 1 193 7 is_stmt 0 view .LVU272
 830 007c 09A8     		add	r0, sp, #36
 831 007e FFF7FEFF 		bl	HAL_RCC_OscConfig
 832              	.LVL29:
 193:Core/Src/main.c ****   {
 833              		.loc 1 193 6 discriminator 1 view .LVU273
 834 0082 B0B9     		cbnz	r0, .L45
 200:Core/Src/main.c ****                               |RCC_CLOCKTYPE_PCLK1|RCC_CLOCKTYPE_PCLK2
 835              		.loc 1 200 3 is_stmt 1 view .LVU274
 200:Core/Src/main.c ****                               |RCC_CLOCKTYPE_PCLK1|RCC_CLOCKTYPE_PCLK2
 836              		.loc 1 200 31 is_stmt 0 view .LVU275
 837 0084 3F23     		movs	r3, #63
 838 0086 0193     		str	r3, [sp, #4]
 203:Core/Src/main.c ****   RCC_ClkInitStruct.SYSCLKDivider = RCC_SYSCLK_DIV1;
 839              		.loc 1 203 3 is_stmt 1 view .LVU276
 203:Core/Src/main.c ****   RCC_ClkInitStruct.SYSCLKDivider = RCC_SYSCLK_DIV1;
 840              		.loc 1 203 34 is_stmt 0 view .LVU277
 841 0088 0323     		movs	r3, #3
 842 008a 0293     		str	r3, [sp, #8]
 204:Core/Src/main.c ****   RCC_ClkInitStruct.AHBCLKDivider = RCC_HCLK_DIV4;
 843              		.loc 1 204 3 is_stmt 1 view .LVU278
 204:Core/Src/main.c ****   RCC_ClkInitStruct.AHBCLKDivider = RCC_HCLK_DIV4;
 844              		.loc 1 204 35 is_stmt 0 view .LVU279
ARM GAS  /var/folders/l4/6w9kflz11csb_6qsyz46nv3c0000gp/T//ccVHZXsV.s 			page 30


 845 008c 0023     		movs	r3, #0
 846 008e 0393     		str	r3, [sp, #12]
 205:Core/Src/main.c ****   RCC_ClkInitStruct.APB3CLKDivider = RCC_APB3_DIV2;
 847              		.loc 1 205 3 is_stmt 1 view .LVU280
 205:Core/Src/main.c ****   RCC_ClkInitStruct.APB3CLKDivider = RCC_APB3_DIV2;
 848              		.loc 1 205 35 is_stmt 0 view .LVU281
 849 0090 0923     		movs	r3, #9
 850 0092 0493     		str	r3, [sp, #16]
 206:Core/Src/main.c ****   RCC_ClkInitStruct.APB1CLKDivider = RCC_APB1_DIV2;
 851              		.loc 1 206 3 is_stmt 1 view .LVU282
 206:Core/Src/main.c ****   RCC_ClkInitStruct.APB1CLKDivider = RCC_APB1_DIV2;
 852              		.loc 1 206 36 is_stmt 0 view .LVU283
 853 0094 4023     		movs	r3, #64
 854 0096 0593     		str	r3, [sp, #20]
 207:Core/Src/main.c ****   RCC_ClkInitStruct.APB2CLKDivider = RCC_APB2_DIV2;
 855              		.loc 1 207 3 is_stmt 1 view .LVU284
 207:Core/Src/main.c ****   RCC_ClkInitStruct.APB2CLKDivider = RCC_APB2_DIV2;
 856              		.loc 1 207 36 is_stmt 0 view .LVU285
 857 0098 0693     		str	r3, [sp, #24]
 208:Core/Src/main.c ****   RCC_ClkInitStruct.APB4CLKDivider = RCC_APB4_DIV2;
 858              		.loc 1 208 3 is_stmt 1 view .LVU286
 208:Core/Src/main.c ****   RCC_ClkInitStruct.APB4CLKDivider = RCC_APB4_DIV2;
 859              		.loc 1 208 36 is_stmt 0 view .LVU287
 860 009a 4FF48062 		mov	r2, #1024
 861 009e 0792     		str	r2, [sp, #28]
 209:Core/Src/main.c **** 
 862              		.loc 1 209 3 is_stmt 1 view .LVU288
 209:Core/Src/main.c **** 
 863              		.loc 1 209 36 is_stmt 0 view .LVU289
 864 00a0 0893     		str	r3, [sp, #32]
 211:Core/Src/main.c ****   {
 865              		.loc 1 211 3 is_stmt 1 view .LVU290
 211:Core/Src/main.c ****   {
 866              		.loc 1 211 7 is_stmt 0 view .LVU291
 867 00a2 0121     		movs	r1, #1
 868 00a4 01A8     		add	r0, sp, #4
 869 00a6 FFF7FEFF 		bl	HAL_RCC_ClockConfig
 870              	.LVL30:
 211:Core/Src/main.c ****   {
 871              		.loc 1 211 6 discriminator 1 view .LVU292
 872 00aa 20B9     		cbnz	r0, .L46
 215:Core/Src/main.c **** 
 873              		.loc 1 215 1 view .LVU293
 874 00ac 1DB0     		add	sp, sp, #116
 875              		.cfi_remember_state
 876              		.cfi_def_cfa_offset 4
 877              		@ sp needed
 878 00ae 5DF804FB 		ldr	pc, [sp], #4
 879              	.L45:
 880              		.cfi_restore_state
 195:Core/Src/main.c ****   }
 881              		.loc 1 195 5 is_stmt 1 view .LVU294
 882 00b2 FFF7FEFF 		bl	Error_Handler
 883              	.LVL31:
 884              	.L46:
 213:Core/Src/main.c ****   }
 885              		.loc 1 213 5 view .LVU295
ARM GAS  /var/folders/l4/6w9kflz11csb_6qsyz46nv3c0000gp/T//ccVHZXsV.s 			page 31


 886 00b6 FFF7FEFF 		bl	Error_Handler
 887              	.LVL32:
 888              	.L48:
 889 00ba 00BF     		.align	2
 890              	.L47:
 891 00bc 00040058 		.word	1476396032
 892 00c0 00480258 		.word	1476544512
 893              		.cfi_endproc
 894              	.LFE145:
 896              		.section	.text.main,"ax",%progbits
 897              		.align	1
 898              		.global	main
 899              		.syntax unified
 900              		.thumb
 901              		.thumb_func
 903              	main:
 904              	.LFB144:
 100:Core/Src/main.c **** 
 905              		.loc 1 100 1 view -0
 906              		.cfi_startproc
 907              		@ Volatile: function does not return.
 908              		@ args = 0, pretend = 0, frame = 0
 909              		@ frame_needed = 0, uses_anonymous_args = 0
 910 0000 08B5     		push	{r3, lr}
 911              		.cfi_def_cfa_offset 8
 912              		.cfi_offset 3, -8
 913              		.cfi_offset 14, -4
 107:Core/Src/main.c **** 
 914              		.loc 1 107 3 view .LVU297
 915 0002 FFF7FEFF 		bl	MPU_Config
 916              	.LVL33:
 112:Core/Src/main.c **** 
 917              		.loc 1 112 3 view .LVU298
 918 0006 FFF7FEFF 		bl	HAL_Init
 919              	.LVL34:
 119:Core/Src/main.c **** 
 920              		.loc 1 119 3 view .LVU299
 921 000a FFF7FEFF 		bl	SystemClock_Config
 922              	.LVL35:
 126:Core/Src/main.c ****   MX_LTDC_Init();
 923              		.loc 1 126 3 view .LVU300
 924 000e FFF7FEFF 		bl	MX_GPIO_Init
 925              	.LVL36:
 127:Core/Src/main.c ****   /* USER CODE BEGIN 2 */
 926              		.loc 1 127 3 view .LVU301
 927 0012 FFF7FEFF 		bl	MX_LTDC_Init
 928              	.LVL37:
 130:Core/Src/main.c **** 
 929              		.loc 1 130 5 view .LVU302
 930 0016 0D4D     		ldr	r5, .L52
 931 0018 2846     		mov	r0, r5
 932 001a FFF7FEFF 		bl	FillStrip
 933              	.LVL38:
 133:Core/Src/main.c ****     active_buffer = 0;
 934              		.loc 1 133 5 view .LVU303
 935 001e 0C4C     		ldr	r4, .L52+4
 936 0020 0022     		movs	r2, #0
ARM GAS  /var/folders/l4/6w9kflz11csb_6qsyz46nv3c0000gp/T//ccVHZXsV.s 			page 32


 937 0022 2946     		mov	r1, r5
 938 0024 2046     		mov	r0, r4
 939 0026 FFF7FEFF 		bl	HAL_LTDC_SetAddress
 940              	.LVL39:
 134:Core/Src/main.c **** 
 941              		.loc 1 134 5 view .LVU304
 134:Core/Src/main.c **** 
 942              		.loc 1 134 19 is_stmt 0 view .LVU305
 943 002a 0A4B     		ldr	r3, .L52+8
 944 002c 0022     		movs	r2, #0
 945 002e 1A70     		strb	r2, [r3]
 137:Core/Src/main.c **** 
 946              		.loc 1 137 5 is_stmt 1 view .LVU306
 947 0030 C821     		movs	r1, #200
 948 0032 2046     		mov	r0, r4
 949 0034 FFF7FEFF 		bl	HAL_LTDC_ProgramLineEvent
 950              	.LVL40:
 140:Core/Src/main.c **** 
 951              		.loc 1 140 5 view .LVU307
 952 0038 5820     		movs	r0, #88
 953 003a FFF7FEFF 		bl	HAL_NVIC_EnableIRQ
 954              	.LVL41:
 143:Core/Src/main.c **** 
 955              		.loc 1 143 5 view .LVU308
 956 003e 0121     		movs	r1, #1
 957 0040 2046     		mov	r0, r4
 958 0042 FFF7FEFF 		bl	HAL_LTDC_Reload
 959              	.LVL42:
 960              	.L50:
 149:Core/Src/main.c ****   {
 961              		.loc 1 149 3 view .LVU309
 152:Core/Src/main.c ****     /* USER CODE BEGIN 3 */
 962              		.loc 1 152 5 discriminator 1 view .LVU310
 963              		.syntax unified
 964              	@ 152 "Core/Src/main.c" 1
 965 0046 30BF     		wfi
 966              	@ 0 "" 2
 149:Core/Src/main.c ****   {
 967              		.loc 1 149 9 view .LVU311
 968              		.thumb
 969              		.syntax unified
 970 0048 FDE7     		b	.L50
 971              	.L53:
 972 004a 00BF     		.align	2
 973              	.L52:
 974 004c 00E80300 		.word	buffer0
 975 0050 00000000 		.word	hltdc
 976 0054 00000000 		.word	active_buffer
 977              		.cfi_endproc
 978              	.LFE144:
 980              		.global	active_buffer
 981              		.section	.bss.active_buffer,"aw",%nobits
 984              	active_buffer:
 985 0000 00       		.space	1
 986              		.global	need_fill
 987              		.section	.bss.need_fill,"aw",%nobits
 990              	need_fill:
ARM GAS  /var/folders/l4/6w9kflz11csb_6qsyz46nv3c0000gp/T//ccVHZXsV.s 			page 33


 991 0000 00       		.space	1
 992              		.global	current_strip
 993              		.section	.bss.current_strip,"aw",%nobits
 994              		.align	2
 997              	current_strip:
 998 0000 00000000 		.space	4
 999              		.section	.video_buffers,"aw"
 1000              		.align	5
 1003              	buffer1:
 1004 0000 00000000 		.space	256000
 1004      00000000 
 1004      00000000 
 1004      00000000 
 1004      00000000 
 1005              		.align	5
 1008              	buffer0:
 1009 3e800 00000000 		.space	256000
 1009      00000000 
 1009      00000000 
 1009      00000000 
 1009      00000000 
 1010              		.global	clut
 1011              		.section	.bss.clut,"aw",%nobits
 1012              		.align	2
 1015              	clut:
 1016 0000 00000000 		.space	1024
 1016      00000000 
 1016      00000000 
 1016      00000000 
 1016      00000000 
 1017              		.global	hltdc
 1018              		.section	.bss.hltdc,"aw",%nobits
 1019              		.align	2
 1022              	hltdc:
 1023 0000 00000000 		.space	168
 1023      00000000 
 1023      00000000 
 1023      00000000 
 1023      00000000 
 1024              		.text
 1025              	.Letext0:
 1026              		.file 3 "Drivers/CMSIS/Device/ST/STM32H7xx/Include/stm32h743xx.h"
 1027              		.file 4 "/Users/rasil/Library/Application Support/Code/User/globalStorage/bmd.stm32-for-vscode/@xp
 1028              		.file 5 "/Users/rasil/Library/Application Support/Code/User/globalStorage/bmd.stm32-for-vscode/@xp
 1029              		.file 6 "Drivers/STM32H7xx_HAL_Driver/Inc/stm32h7xx_hal_def.h"
 1030              		.file 7 "Drivers/STM32H7xx_HAL_Driver/Inc/stm32h7xx_hal_rcc.h"
 1031              		.file 8 "Drivers/STM32H7xx_HAL_Driver/Inc/stm32h7xx_hal_cortex.h"
 1032              		.file 9 "Drivers/STM32H7xx_HAL_Driver/Inc/stm32h7xx_hal_ltdc.h"
 1033              		.file 10 "Drivers/STM32H7xx_HAL_Driver/Inc/stm32h7xx_hal_pwr_ex.h"
 1034              		.file 11 "Drivers/STM32H7xx_HAL_Driver/Inc/stm32h7xx_hal.h"
 1035              		.file 12 "<built-in>"
ARM GAS  /var/folders/l4/6w9kflz11csb_6qsyz46nv3c0000gp/T//ccVHZXsV.s 			page 34


DEFINED SYMBOLS
                            *ABS*:00000000 main.c
/var/folders/l4/6w9kflz11csb_6qsyz46nv3c0000gp/T//ccVHZXsV.s:20     .text.MX_GPIO_Init:00000000 $t
/var/folders/l4/6w9kflz11csb_6qsyz46nv3c0000gp/T//ccVHZXsV.s:25     .text.MX_GPIO_Init:00000000 MX_GPIO_Init
/var/folders/l4/6w9kflz11csb_6qsyz46nv3c0000gp/T//ccVHZXsV.s:148    .text.MX_GPIO_Init:000000b0 $d
/var/folders/l4/6w9kflz11csb_6qsyz46nv3c0000gp/T//ccVHZXsV.s:153    .text.MPU_Config:00000000 $t
/var/folders/l4/6w9kflz11csb_6qsyz46nv3c0000gp/T//ccVHZXsV.s:158    .text.MPU_Config:00000000 MPU_Config
/var/folders/l4/6w9kflz11csb_6qsyz46nv3c0000gp/T//ccVHZXsV.s:234    .text.FillStrip:00000000 $t
/var/folders/l4/6w9kflz11csb_6qsyz46nv3c0000gp/T//ccVHZXsV.s:240    .text.FillStrip:00000000 FillStrip
/var/folders/l4/6w9kflz11csb_6qsyz46nv3c0000gp/T//ccVHZXsV.s:297    .text.LTDC_IRQHandler:00000000 $t
/var/folders/l4/6w9kflz11csb_6qsyz46nv3c0000gp/T//ccVHZXsV.s:303    .text.LTDC_IRQHandler:00000000 LTDC_IRQHandler
/var/folders/l4/6w9kflz11csb_6qsyz46nv3c0000gp/T//ccVHZXsV.s:452    .text.LTDC_IRQHandler:000000b4 $d
/var/folders/l4/6w9kflz11csb_6qsyz46nv3c0000gp/T//ccVHZXsV.s:1022   .bss.hltdc:00000000 hltdc
/var/folders/l4/6w9kflz11csb_6qsyz46nv3c0000gp/T//ccVHZXsV.s:997    .bss.current_strip:00000000 current_strip
/var/folders/l4/6w9kflz11csb_6qsyz46nv3c0000gp/T//ccVHZXsV.s:984    .bss.active_buffer:00000000 active_buffer
/var/folders/l4/6w9kflz11csb_6qsyz46nv3c0000gp/T//ccVHZXsV.s:1003   .video_buffers:00000000 buffer1
/var/folders/l4/6w9kflz11csb_6qsyz46nv3c0000gp/T//ccVHZXsV.s:1008   .video_buffers:0003e800 buffer0
/var/folders/l4/6w9kflz11csb_6qsyz46nv3c0000gp/T//ccVHZXsV.s:461    .text.Error_Handler:00000000 $t
/var/folders/l4/6w9kflz11csb_6qsyz46nv3c0000gp/T//ccVHZXsV.s:467    .text.Error_Handler:00000000 Error_Handler
/var/folders/l4/6w9kflz11csb_6qsyz46nv3c0000gp/T//ccVHZXsV.s:499    .text.MX_LTDC_Init:00000000 $t
/var/folders/l4/6w9kflz11csb_6qsyz46nv3c0000gp/T//ccVHZXsV.s:504    .text.MX_LTDC_Init:00000000 MX_LTDC_Init
/var/folders/l4/6w9kflz11csb_6qsyz46nv3c0000gp/T//ccVHZXsV.s:698    .text.MX_LTDC_Init:000000d0 $d
/var/folders/l4/6w9kflz11csb_6qsyz46nv3c0000gp/T//ccVHZXsV.s:1015   .bss.clut:00000000 clut
/var/folders/l4/6w9kflz11csb_6qsyz46nv3c0000gp/T//ccVHZXsV.s:706    .text.SystemClock_Config:00000000 $t
/var/folders/l4/6w9kflz11csb_6qsyz46nv3c0000gp/T//ccVHZXsV.s:712    .text.SystemClock_Config:00000000 SystemClock_Config
/var/folders/l4/6w9kflz11csb_6qsyz46nv3c0000gp/T//ccVHZXsV.s:891    .text.SystemClock_Config:000000bc $d
/var/folders/l4/6w9kflz11csb_6qsyz46nv3c0000gp/T//ccVHZXsV.s:897    .text.main:00000000 $t
/var/folders/l4/6w9kflz11csb_6qsyz46nv3c0000gp/T//ccVHZXsV.s:903    .text.main:00000000 main
/var/folders/l4/6w9kflz11csb_6qsyz46nv3c0000gp/T//ccVHZXsV.s:974    .text.main:0000004c $d
/var/folders/l4/6w9kflz11csb_6qsyz46nv3c0000gp/T//ccVHZXsV.s:985    .bss.active_buffer:00000000 $d
/var/folders/l4/6w9kflz11csb_6qsyz46nv3c0000gp/T//ccVHZXsV.s:990    .bss.need_fill:00000000 need_fill
/var/folders/l4/6w9kflz11csb_6qsyz46nv3c0000gp/T//ccVHZXsV.s:991    .bss.need_fill:00000000 $d
/var/folders/l4/6w9kflz11csb_6qsyz46nv3c0000gp/T//ccVHZXsV.s:994    .bss.current_strip:00000000 $d
/var/folders/l4/6w9kflz11csb_6qsyz46nv3c0000gp/T//ccVHZXsV.s:1000   .video_buffers:00000000 $d
/var/folders/l4/6w9kflz11csb_6qsyz46nv3c0000gp/T//ccVHZXsV.s:1012   .bss.clut:00000000 $d
/var/folders/l4/6w9kflz11csb_6qsyz46nv3c0000gp/T//ccVHZXsV.s:1019   .bss.hltdc:00000000 $d

UNDEFINED SYMBOLS
HAL_MPU_Disable
HAL_MPU_ConfigRegion
HAL_MPU_Enable
HAL_LTDC_SetAddress
HAL_LTDC_ProgramLineEvent
memset
HAL_LTDC_Init
HAL_LTDC_ConfigLayer
HAL_LTDC_ConfigCLUT
HAL_PWREx_ConfigSupply
HAL_RCC_OscConfig
HAL_RCC_ClockConfig
HAL_Init
HAL_NVIC_EnableIRQ
HAL_LTDC_Reload
