ARM GAS  /var/folders/l4/6w9kflz11csb_6qsyz46nv3c0000gp/T//cc9ksRSZ.s 			page 1


   1              		.cpu cortex-m7
   2              		.arch armv7e-m
   3              		.fpu fpv5-d16
   4              		.eabi_attribute 28, 1
   5              		.eabi_attribute 20, 1
   6              		.eabi_attribute 21, 1
   7              		.eabi_attribute 23, 3
   8              		.eabi_attribute 24, 1
   9              		.eabi_attribute 25, 1
  10              		.eabi_attribute 26, 1
  11              		.eabi_attribute 30, 1
  12              		.eabi_attribute 34, 1
  13              		.eabi_attribute 18, 4
  14              		.file	"main.c"
  15              		.text
  16              	.Ltext0:
  17              		.cfi_sections	.debug_frame
  18              		.file 1 "Core/Src/main.c"
  19              		.section	.text.MX_GPIO_Init,"ax",%progbits
  20              		.align	1
  21              		.syntax unified
  22              		.thumb
  23              		.thumb_func
  25              	MX_GPIO_Init:
  26              	.LFB147:
   1:Core/Src/main.c **** /* USER CODE BEGIN Header */
   2:Core/Src/main.c **** /**
   3:Core/Src/main.c ****   ******************************************************************************
   4:Core/Src/main.c ****   * @file           : main.c
   5:Core/Src/main.c ****   * @brief          : Main program body
   6:Core/Src/main.c ****   ******************************************************************************
   7:Core/Src/main.c ****   * @attention
   8:Core/Src/main.c ****   *
   9:Core/Src/main.c ****   * Copyright (c) 2026 STMicroelectronics.
  10:Core/Src/main.c ****   * All rights reserved.
  11:Core/Src/main.c ****   *
  12:Core/Src/main.c ****   * This software is licensed under terms that can be found in the LICENSE file
  13:Core/Src/main.c ****   * in the root directory of this software component.
  14:Core/Src/main.c ****   * If no LICENSE file comes with this software, it is provided AS-IS.
  15:Core/Src/main.c ****   *
  16:Core/Src/main.c ****   ******************************************************************************
  17:Core/Src/main.c ****   */
  18:Core/Src/main.c **** /* USER CODE END Header */
  19:Core/Src/main.c **** /* Includes ------------------------------------------------------------------*/
  20:Core/Src/main.c **** #include "main.h"
  21:Core/Src/main.c **** 
  22:Core/Src/main.c **** /* Private includes ----------------------------------------------------------*/
  23:Core/Src/main.c **** /* USER CODE BEGIN Includes */
  24:Core/Src/main.c **** 
  25:Core/Src/main.c **** /* USER CODE END Includes */
  26:Core/Src/main.c **** 
  27:Core/Src/main.c **** /* Private typedef -----------------------------------------------------------*/
  28:Core/Src/main.c **** /* USER CODE BEGIN PTD */
  29:Core/Src/main.c **** 
  30:Core/Src/main.c **** /* USER CODE END PTD */
  31:Core/Src/main.c **** 
  32:Core/Src/main.c **** /* Private define ------------------------------------------------------------*/
ARM GAS  /var/folders/l4/6w9kflz11csb_6qsyz46nv3c0000gp/T//cc9ksRSZ.s 			page 2


  33:Core/Src/main.c **** /* USER CODE BEGIN PD */
  34:Core/Src/main.c **** #define LCD_ACTIVE_WIDTH  1280
  35:Core/Src/main.c **** #define  LCD_ACTIVE_HEIGHT 2400
  36:Core/Src/main.c **** 
  37:Core/Src/main.c **** 
  38:Core/Src/main.c **** #define H_SYNC_WIDTH  50
  39:Core/Src/main.c **** #define H_BACK_PORCH  50
  40:Core/Src/main.c **** #define H_FRONT_PORCH 50
  41:Core/Src/main.c **** 
  42:Core/Src/main.c **** #define V_SYNC_WIDTH  50
  43:Core/Src/main.c **** #define V_BACK_PORCH  50
  44:Core/Src/main.c **** #define V_FRONT_PORCH 50
  45:Core/Src/main.c **** 
  46:Core/Src/main.c **** #define H_TOTAL     (H_SYNC_WIDTH + H_FRONT_PORCH + LCD_ACTIVE_WIDTH + H_BACK_PORCH)
  47:Core/Src/main.c **** #define V_TOTAL     (V_SYNC_WIDTH + V_FRONT_PORCH + LCD_ACTIVE_HEIGHT + V_BACK_PORCH)
  48:Core/Src/main.c **** #define TOTAL_STRIPS  6
  49:Core/Src/main.c **** 
  50:Core/Src/main.c **** #define BYTES_PER_PIXEL 1
  51:Core/Src/main.c **** #define STRIP_HEIGHT 400
  52:Core/Src/main.c **** #define STRIP_SIZE_BYTES (LCD_ACTIVE_WIDTH * STRIP_HEIGHT)
  53:Core/Src/main.c **** #define TOTAL_STRIPS (LCD_ACTIVE_HEIGHT / STRIP_HEIGHT)
  54:Core/Src/main.c **** #define FRAME_RATE 1 /*Hz*/
  55:Core/Src/main.c **** #define ROW_TIME_US (1000000 / (FRAME_RATE * LCD_ACTIVE_HEIGHT))
  56:Core/Src/main.c **** 
  57:Core/Src/main.c **** 
  58:Core/Src/main.c **** 
  59:Core/Src/main.c **** 
  60:Core/Src/main.c **** /* USER CODE END PD */
  61:Core/Src/main.c **** 
  62:Core/Src/main.c **** /* Private macro -------------------------------------------------------------*/
  63:Core/Src/main.c **** /* USER CODE BEGIN PM */
  64:Core/Src/main.c **** 
  65:Core/Src/main.c **** /* USER CODE END PM */
  66:Core/Src/main.c **** 
  67:Core/Src/main.c **** /* Private variables ---------------------------------------------------------*/
  68:Core/Src/main.c **** 
  69:Core/Src/main.c **** LTDC_HandleTypeDef hltdc;
  70:Core/Src/main.c **** 
  71:Core/Src/main.c **** /* USER CODE BEGIN PV */
  72:Core/Src/main.c **** uint32_t clut[256];
  73:Core/Src/main.c **** static uint8_t strip_buffer1[STRIP_SIZE_BYTES] __attribute__((section(".video_buffers"), aligned(32
  74:Core/Src/main.c **** 
  75:Core/Src/main.c **** volatile uint32_t current_strip = 0 ;
  76:Core/Src/main.c **** volatile uint8_t need_fill = 0;
  77:Core/Src/main.c **** volatile uint8_t active_buffer = 0;
  78:Core/Src/main.c **** /* USER CODE END PV */
  79:Core/Src/main.c **** 
  80:Core/Src/main.c **** /* Private function prototypes -----------------------------------------------*/
  81:Core/Src/main.c **** void SystemClock_Config(void);
  82:Core/Src/main.c **** static void MPU_Config(void);
  83:Core/Src/main.c **** static void MX_GPIO_Init(void);
  84:Core/Src/main.c **** static void MX_LTDC_Init(void);
  85:Core/Src/main.c **** /* USER CODE BEGIN PFP */
  86:Core/Src/main.c **** void FillStrip(uint8_t* buffer);
  87:Core/Src/main.c **** void GenerateTestPattern(uint8_t *buffer, uint32_t strip_idx);
  88:Core/Src/main.c **** /* USER CODE END PFP */
  89:Core/Src/main.c **** 
ARM GAS  /var/folders/l4/6w9kflz11csb_6qsyz46nv3c0000gp/T//cc9ksRSZ.s 			page 3


  90:Core/Src/main.c **** /* Private user code ---------------------------------------------------------*/
  91:Core/Src/main.c **** /* USER CODE BEGIN 0 */
  92:Core/Src/main.c **** 
  93:Core/Src/main.c **** /* USER CODE END 0 */
  94:Core/Src/main.c **** 
  95:Core/Src/main.c **** /**
  96:Core/Src/main.c ****   * @brief  The application entry point.
  97:Core/Src/main.c ****   * @retval int
  98:Core/Src/main.c ****   */
  99:Core/Src/main.c **** int main(void)
 100:Core/Src/main.c **** {
 101:Core/Src/main.c **** 
 102:Core/Src/main.c ****   /* USER CODE BEGIN 1 */
 103:Core/Src/main.c **** 
 104:Core/Src/main.c ****   /* USER CODE END 1 */
 105:Core/Src/main.c **** 
 106:Core/Src/main.c ****   /* MPU Configuration--------------------------------------------------------*/
 107:Core/Src/main.c ****   MPU_Config();
 108:Core/Src/main.c **** 
 109:Core/Src/main.c ****   /* MCU Configuration--------------------------------------------------------*/
 110:Core/Src/main.c **** 
 111:Core/Src/main.c ****   /* Reset of all peripherals, Initializes the Flash interface and the Systick. */
 112:Core/Src/main.c ****   HAL_Init();
 113:Core/Src/main.c **** 
 114:Core/Src/main.c ****   /* USER CODE BEGIN Init */
 115:Core/Src/main.c **** 
 116:Core/Src/main.c ****   /* USER CODE END Init */
 117:Core/Src/main.c **** 
 118:Core/Src/main.c ****   /* Configure the system clock */
 119:Core/Src/main.c ****   SystemClock_Config();
 120:Core/Src/main.c **** 
 121:Core/Src/main.c ****   /* USER CODE BEGIN SysInit */
 122:Core/Src/main.c **** 
 123:Core/Src/main.c ****   /* USER CODE END SysInit */
 124:Core/Src/main.c **** 
 125:Core/Src/main.c ****   /* Initialize all configured peripherals */
 126:Core/Src/main.c ****   MX_GPIO_Init();
 127:Core/Src/main.c ****   MX_LTDC_Init();
 128:Core/Src/main.c ****   /* USER CODE BEGIN 2 */
 129:Core/Src/main.c **** 
 130:Core/Src/main.c **** 
 131:Core/Src/main.c ****   FillStrip(strip_buffer1);
 132:Core/Src/main.c ****   HAL_LTDC_SetAddress(&hltdc, (uint32_t)strip_buffer1, LTDC_LAYER_1);
 133:Core/Src/main.c **** 
 134:Core/Src/main.c ****   //transmit ltdc
 135:Core/Src/main.c **** 
 136:Core/Src/main.c ****   HAL_LTDC_ProgramLineEvent(&hltdc, STRIP_HEIGHT);
 137:Core/Src/main.c ****   HAL_LTDC_Reload(&hltdc, LTDC_RELOAD_IMMEDIATE);
 138:Core/Src/main.c **** 
 139:Core/Src/main.c ****   /* USER CODE END 2 */
 140:Core/Src/main.c **** 
 141:Core/Src/main.c ****   /* Infinite loop */
 142:Core/Src/main.c ****   /* USER CODE BEGIN WHILE */
 143:Core/Src/main.c ****   while (1)
 144:Core/Src/main.c ****   {
 145:Core/Src/main.c ****     /* USER CODE END WHILE */
 146:Core/Src/main.c ****     __WFI();
ARM GAS  /var/folders/l4/6w9kflz11csb_6qsyz46nv3c0000gp/T//cc9ksRSZ.s 			page 4


 147:Core/Src/main.c ****     /* USER CODE BEGIN 3 */
 148:Core/Src/main.c ****   }
 149:Core/Src/main.c ****   /* USER CODE END 3 */
 150:Core/Src/main.c **** }
 151:Core/Src/main.c **** 
 152:Core/Src/main.c **** /**
 153:Core/Src/main.c ****   * @brief System Clock Configuration
 154:Core/Src/main.c ****   * @retval None
 155:Core/Src/main.c ****   */
 156:Core/Src/main.c **** void SystemClock_Config(void)
 157:Core/Src/main.c **** {
 158:Core/Src/main.c ****   RCC_OscInitTypeDef RCC_OscInitStruct = {0};
 159:Core/Src/main.c ****   RCC_ClkInitTypeDef RCC_ClkInitStruct = {0};
 160:Core/Src/main.c **** 
 161:Core/Src/main.c ****   /** Supply configuration update enable
 162:Core/Src/main.c ****   */
 163:Core/Src/main.c ****   HAL_PWREx_ConfigSupply(PWR_LDO_SUPPLY);
 164:Core/Src/main.c **** 
 165:Core/Src/main.c ****   /** Configure the main internal regulator output voltage
 166:Core/Src/main.c ****   */
 167:Core/Src/main.c ****   __HAL_PWR_VOLTAGESCALING_CONFIG(PWR_REGULATOR_VOLTAGE_SCALE1);
 168:Core/Src/main.c **** 
 169:Core/Src/main.c ****   while(!__HAL_PWR_GET_FLAG(PWR_FLAG_VOSRDY)) {}
 170:Core/Src/main.c **** 
 171:Core/Src/main.c ****   /** Initializes the RCC Oscillators according to the specified parameters
 172:Core/Src/main.c ****   * in the RCC_OscInitTypeDef structure.
 173:Core/Src/main.c ****   */
 174:Core/Src/main.c ****   RCC_OscInitStruct.OscillatorType = RCC_OSCILLATORTYPE_HSI;
 175:Core/Src/main.c ****   RCC_OscInitStruct.HSIState = RCC_HSI_DIV1;
 176:Core/Src/main.c ****   RCC_OscInitStruct.HSICalibrationValue = RCC_HSICALIBRATION_DEFAULT;
 177:Core/Src/main.c ****   RCC_OscInitStruct.PLL.PLLState = RCC_PLL_ON;
 178:Core/Src/main.c ****   RCC_OscInitStruct.PLL.PLLSource = RCC_PLLSOURCE_HSI;
 179:Core/Src/main.c ****   RCC_OscInitStruct.PLL.PLLM = 32;
 180:Core/Src/main.c ****   RCC_OscInitStruct.PLL.PLLN = 400;
 181:Core/Src/main.c ****   RCC_OscInitStruct.PLL.PLLP = 2;
 182:Core/Src/main.c ****   RCC_OscInitStruct.PLL.PLLQ = 2;
 183:Core/Src/main.c ****   RCC_OscInitStruct.PLL.PLLR = 2;
 184:Core/Src/main.c ****   RCC_OscInitStruct.PLL.PLLRGE = RCC_PLL1VCIRANGE_1;
 185:Core/Src/main.c ****   RCC_OscInitStruct.PLL.PLLVCOSEL = RCC_PLL1VCOWIDE;
 186:Core/Src/main.c ****   RCC_OscInitStruct.PLL.PLLFRACN = 0;
 187:Core/Src/main.c ****   if (HAL_RCC_OscConfig(&RCC_OscInitStruct) != HAL_OK)
 188:Core/Src/main.c ****   {
 189:Core/Src/main.c ****     Error_Handler();
 190:Core/Src/main.c ****   }
 191:Core/Src/main.c **** 
 192:Core/Src/main.c ****   /** Initializes the CPU, AHB and APB buses clocks
 193:Core/Src/main.c ****   */
 194:Core/Src/main.c ****   RCC_ClkInitStruct.ClockType = RCC_CLOCKTYPE_HCLK|RCC_CLOCKTYPE_SYSCLK
 195:Core/Src/main.c ****                               |RCC_CLOCKTYPE_PCLK1|RCC_CLOCKTYPE_PCLK2
 196:Core/Src/main.c ****                               |RCC_CLOCKTYPE_D3PCLK1|RCC_CLOCKTYPE_D1PCLK1;
 197:Core/Src/main.c ****   RCC_ClkInitStruct.SYSCLKSource = RCC_SYSCLKSOURCE_PLLCLK;
 198:Core/Src/main.c ****   RCC_ClkInitStruct.SYSCLKDivider = RCC_SYSCLK_DIV1;
 199:Core/Src/main.c ****   RCC_ClkInitStruct.AHBCLKDivider = RCC_HCLK_DIV2;
 200:Core/Src/main.c ****   RCC_ClkInitStruct.APB3CLKDivider = RCC_APB3_DIV4;
 201:Core/Src/main.c ****   RCC_ClkInitStruct.APB1CLKDivider = RCC_APB1_DIV4;
 202:Core/Src/main.c ****   RCC_ClkInitStruct.APB2CLKDivider = RCC_APB2_DIV2;
 203:Core/Src/main.c ****   RCC_ClkInitStruct.APB4CLKDivider = RCC_APB4_DIV2;
ARM GAS  /var/folders/l4/6w9kflz11csb_6qsyz46nv3c0000gp/T//cc9ksRSZ.s 			page 5


 204:Core/Src/main.c **** 
 205:Core/Src/main.c ****   if (HAL_RCC_ClockConfig(&RCC_ClkInitStruct, FLASH_LATENCY_2) != HAL_OK)
 206:Core/Src/main.c ****   {
 207:Core/Src/main.c ****     Error_Handler();
 208:Core/Src/main.c ****   }
 209:Core/Src/main.c **** }
 210:Core/Src/main.c **** 
 211:Core/Src/main.c **** /**
 212:Core/Src/main.c ****   * @brief LTDC Initialization Function
 213:Core/Src/main.c ****   * @param None
 214:Core/Src/main.c ****   * @retval None
 215:Core/Src/main.c ****   */
 216:Core/Src/main.c **** static void MX_LTDC_Init(void)
 217:Core/Src/main.c **** {
 218:Core/Src/main.c **** 
 219:Core/Src/main.c ****   /* USER CODE BEGIN LTDC_Init 0 */
 220:Core/Src/main.c **** 
 221:Core/Src/main.c ****   /* USER CODE END LTDC_Init 0 */
 222:Core/Src/main.c **** 
 223:Core/Src/main.c ****   LTDC_LayerCfgTypeDef pLayerCfg = {0};
 224:Core/Src/main.c **** 
 225:Core/Src/main.c **** 
 226:Core/Src/main.c ****   /* USER CODE BEGIN LTDC_Init 1 */
 227:Core/Src/main.c **** 
 228:Core/Src/main.c ****   /* USER CODE END LTDC_Init 1 */
 229:Core/Src/main.c ****   hltdc.Instance = LTDC;
 230:Core/Src/main.c ****   hltdc.Init.HSPolarity = LTDC_HSPOLARITY_AL;
 231:Core/Src/main.c ****   hltdc.Init.VSPolarity = LTDC_VSPOLARITY_AL;
 232:Core/Src/main.c ****   hltdc.Init.DEPolarity = LTDC_DEPOLARITY_AL;
 233:Core/Src/main.c ****   hltdc.Init.PCPolarity = LTDC_PCPOLARITY_IPC;
 234:Core/Src/main.c ****   hltdc.Init.HorizontalSync = H_SYNC_WIDTH - 1;
 235:Core/Src/main.c ****   hltdc.Init.VerticalSync = V_SYNC_WIDTH - 1;
 236:Core/Src/main.c ****   hltdc.Init.AccumulatedHBP = H_SYNC_WIDTH + H_BACK_PORCH - 1;
 237:Core/Src/main.c ****   hltdc.Init.AccumulatedVBP = V_SYNC_WIDTH + V_BACK_PORCH - 1;
 238:Core/Src/main.c ****   hltdc.Init.AccumulatedActiveW = H_SYNC_WIDTH + H_BACK_PORCH + LCD_ACTIVE_WIDTH - 1;
 239:Core/Src/main.c ****   hltdc.Init.AccumulatedActiveH = V_SYNC_WIDTH + V_BACK_PORCH + LCD_ACTIVE_HEIGHT - 1;
 240:Core/Src/main.c ****   hltdc.Init.TotalWidth = H_TOTAL - 1;
 241:Core/Src/main.c ****   hltdc.Init.TotalHeigh = V_TOTAL - 1;
 242:Core/Src/main.c ****   hltdc.Init.Backcolor.Blue = 0;
 243:Core/Src/main.c ****   hltdc.Init.Backcolor.Green = 0;
 244:Core/Src/main.c ****   hltdc.Init.Backcolor.Red = 0;
 245:Core/Src/main.c ****   if (HAL_LTDC_Init(&hltdc) != HAL_OK)
 246:Core/Src/main.c ****   {
 247:Core/Src/main.c ****     Error_Handler();
 248:Core/Src/main.c ****   }
 249:Core/Src/main.c ****   pLayerCfg.WindowX0 = 0;
 250:Core/Src/main.c ****   pLayerCfg.WindowX1 = LCD_ACTIVE_WIDTH;
 251:Core/Src/main.c ****   pLayerCfg.WindowY0 = 0;
 252:Core/Src/main.c ****   pLayerCfg.WindowY1 = LCD_ACTIVE_HEIGHT;
 253:Core/Src/main.c ****   pLayerCfg.PixelFormat = LTDC_PIXEL_FORMAT_L8;
 254:Core/Src/main.c ****   pLayerCfg.Alpha = 255;
 255:Core/Src/main.c ****   pLayerCfg.Alpha0 = 0;
 256:Core/Src/main.c ****   pLayerCfg.BlendingFactor1 = LTDC_BLENDING_FACTOR1_PAxCA;
 257:Core/Src/main.c ****   pLayerCfg.BlendingFactor2 = LTDC_BLENDING_FACTOR2_PAxCA;
 258:Core/Src/main.c ****   pLayerCfg.FBStartAdress = (uint32_t)strip_buffer1;
 259:Core/Src/main.c ****   pLayerCfg.ImageWidth = LCD_ACTIVE_WIDTH;
 260:Core/Src/main.c ****   pLayerCfg.ImageHeight = LCD_ACTIVE_HEIGHT;
ARM GAS  /var/folders/l4/6w9kflz11csb_6qsyz46nv3c0000gp/T//cc9ksRSZ.s 			page 6


 261:Core/Src/main.c ****   pLayerCfg.Backcolor.Blue = 0;
 262:Core/Src/main.c ****   pLayerCfg.Backcolor.Green = 0;
 263:Core/Src/main.c ****   pLayerCfg.Backcolor.Red = 0;
 264:Core/Src/main.c ****   if (HAL_LTDC_ConfigLayer(&hltdc, &pLayerCfg, 1) != HAL_OK)
 265:Core/Src/main.c ****   {
 266:Core/Src/main.c ****     Error_Handler();
 267:Core/Src/main.c ****   }
 268:Core/Src/main.c ****   /* USER CODE BEGIN LTDC_Init 2 */
 269:Core/Src/main.c ****   for(int i = 0 ; i < 256; i++){
 270:Core/Src/main.c ****     clut[i] = i << 16 | i << 8 | i; 
 271:Core/Src/main.c ****   }
 272:Core/Src/main.c ****   HAL_LTDC_ConfigCLUT(&hltdc, clut, 256, LTDC_LAYER_1);
 273:Core/Src/main.c ****   /* USER CODE END LTDC_Init 2 */
 274:Core/Src/main.c **** 
 275:Core/Src/main.c **** }
 276:Core/Src/main.c **** 
 277:Core/Src/main.c **** /**
 278:Core/Src/main.c ****   * @brief GPIO Initialization Function
 279:Core/Src/main.c ****   * @param None
 280:Core/Src/main.c ****   * @retval None
 281:Core/Src/main.c ****   */
 282:Core/Src/main.c **** static void MX_GPIO_Init(void)
 283:Core/Src/main.c **** {
  27              		.loc 1 283 1 view -0
  28              		.cfi_startproc
  29              		@ args = 0, pretend = 0, frame = 32
  30              		@ frame_needed = 0, uses_anonymous_args = 0
  31              		@ link register save eliminated.
  32 0000 88B0     		sub	sp, sp, #32
  33              		.cfi_def_cfa_offset 32
 284:Core/Src/main.c ****   /* USER CODE BEGIN MX_GPIO_Init_1 */
 285:Core/Src/main.c **** 
 286:Core/Src/main.c ****   /* USER CODE END MX_GPIO_Init_1 */
 287:Core/Src/main.c **** 
 288:Core/Src/main.c ****   /* GPIO Ports Clock Enable */
 289:Core/Src/main.c ****   __HAL_RCC_GPIOE_CLK_ENABLE();
  34              		.loc 1 289 3 view .LVU1
  35              	.LBB4:
  36              		.loc 1 289 3 view .LVU2
  37              		.loc 1 289 3 view .LVU3
  38 0002 2B4B     		ldr	r3, .L3
  39 0004 D3F8E020 		ldr	r2, [r3, #224]
  40 0008 42F01002 		orr	r2, r2, #16
  41 000c C3F8E020 		str	r2, [r3, #224]
  42              		.loc 1 289 3 view .LVU4
  43 0010 D3F8E020 		ldr	r2, [r3, #224]
  44 0014 02F01002 		and	r2, r2, #16
  45 0018 0192     		str	r2, [sp, #4]
  46              		.loc 1 289 3 view .LVU5
  47 001a 019A     		ldr	r2, [sp, #4]
  48              	.LBE4:
  49              		.loc 1 289 3 view .LVU6
 290:Core/Src/main.c ****   __HAL_RCC_GPIOF_CLK_ENABLE();
  50              		.loc 1 290 3 view .LVU7
  51              	.LBB5:
  52              		.loc 1 290 3 view .LVU8
  53              		.loc 1 290 3 view .LVU9
ARM GAS  /var/folders/l4/6w9kflz11csb_6qsyz46nv3c0000gp/T//cc9ksRSZ.s 			page 7


  54 001c D3F8E020 		ldr	r2, [r3, #224]
  55 0020 42F02002 		orr	r2, r2, #32
  56 0024 C3F8E020 		str	r2, [r3, #224]
  57              		.loc 1 290 3 view .LVU10
  58 0028 D3F8E020 		ldr	r2, [r3, #224]
  59 002c 02F02002 		and	r2, r2, #32
  60 0030 0292     		str	r2, [sp, #8]
  61              		.loc 1 290 3 view .LVU11
  62 0032 029A     		ldr	r2, [sp, #8]
  63              	.LBE5:
  64              		.loc 1 290 3 view .LVU12
 291:Core/Src/main.c ****   __HAL_RCC_GPIOC_CLK_ENABLE();
  65              		.loc 1 291 3 view .LVU13
  66              	.LBB6:
  67              		.loc 1 291 3 view .LVU14
  68              		.loc 1 291 3 view .LVU15
  69 0034 D3F8E020 		ldr	r2, [r3, #224]
  70 0038 42F00402 		orr	r2, r2, #4
  71 003c C3F8E020 		str	r2, [r3, #224]
  72              		.loc 1 291 3 view .LVU16
  73 0040 D3F8E020 		ldr	r2, [r3, #224]
  74 0044 02F00402 		and	r2, r2, #4
  75 0048 0392     		str	r2, [sp, #12]
  76              		.loc 1 291 3 view .LVU17
  77 004a 039A     		ldr	r2, [sp, #12]
  78              	.LBE6:
  79              		.loc 1 291 3 view .LVU18
 292:Core/Src/main.c ****   __HAL_RCC_GPIOA_CLK_ENABLE();
  80              		.loc 1 292 3 view .LVU19
  81              	.LBB7:
  82              		.loc 1 292 3 view .LVU20
  83              		.loc 1 292 3 view .LVU21
  84 004c D3F8E020 		ldr	r2, [r3, #224]
  85 0050 42F00102 		orr	r2, r2, #1
  86 0054 C3F8E020 		str	r2, [r3, #224]
  87              		.loc 1 292 3 view .LVU22
  88 0058 D3F8E020 		ldr	r2, [r3, #224]
  89 005c 02F00102 		and	r2, r2, #1
  90 0060 0492     		str	r2, [sp, #16]
  91              		.loc 1 292 3 view .LVU23
  92 0062 049A     		ldr	r2, [sp, #16]
  93              	.LBE7:
  94              		.loc 1 292 3 view .LVU24
 293:Core/Src/main.c ****   __HAL_RCC_GPIOB_CLK_ENABLE();
  95              		.loc 1 293 3 view .LVU25
  96              	.LBB8:
  97              		.loc 1 293 3 view .LVU26
  98              		.loc 1 293 3 view .LVU27
  99 0064 D3F8E020 		ldr	r2, [r3, #224]
 100 0068 42F00202 		orr	r2, r2, #2
 101 006c C3F8E020 		str	r2, [r3, #224]
 102              		.loc 1 293 3 view .LVU28
 103 0070 D3F8E020 		ldr	r2, [r3, #224]
 104 0074 02F00202 		and	r2, r2, #2
 105 0078 0592     		str	r2, [sp, #20]
 106              		.loc 1 293 3 view .LVU29
 107 007a 059A     		ldr	r2, [sp, #20]
ARM GAS  /var/folders/l4/6w9kflz11csb_6qsyz46nv3c0000gp/T//cc9ksRSZ.s 			page 8


 108              	.LBE8:
 109              		.loc 1 293 3 view .LVU30
 294:Core/Src/main.c ****   __HAL_RCC_GPIOD_CLK_ENABLE();
 110              		.loc 1 294 3 view .LVU31
 111              	.LBB9:
 112              		.loc 1 294 3 view .LVU32
 113              		.loc 1 294 3 view .LVU33
 114 007c D3F8E020 		ldr	r2, [r3, #224]
 115 0080 42F00802 		orr	r2, r2, #8
 116 0084 C3F8E020 		str	r2, [r3, #224]
 117              		.loc 1 294 3 view .LVU34
 118 0088 D3F8E020 		ldr	r2, [r3, #224]
 119 008c 02F00802 		and	r2, r2, #8
 120 0090 0692     		str	r2, [sp, #24]
 121              		.loc 1 294 3 view .LVU35
 122 0092 069A     		ldr	r2, [sp, #24]
 123              	.LBE9:
 124              		.loc 1 294 3 view .LVU36
 295:Core/Src/main.c ****   __HAL_RCC_GPIOG_CLK_ENABLE();
 125              		.loc 1 295 3 view .LVU37
 126              	.LBB10:
 127              		.loc 1 295 3 view .LVU38
 128              		.loc 1 295 3 view .LVU39
 129 0094 D3F8E020 		ldr	r2, [r3, #224]
 130 0098 42F04002 		orr	r2, r2, #64
 131 009c C3F8E020 		str	r2, [r3, #224]
 132              		.loc 1 295 3 view .LVU40
 133 00a0 D3F8E030 		ldr	r3, [r3, #224]
 134 00a4 03F04003 		and	r3, r3, #64
 135 00a8 0793     		str	r3, [sp, #28]
 136              		.loc 1 295 3 view .LVU41
 137 00aa 079B     		ldr	r3, [sp, #28]
 138              	.LBE10:
 139              		.loc 1 295 3 view .LVU42
 296:Core/Src/main.c **** 
 297:Core/Src/main.c ****   /* USER CODE BEGIN MX_GPIO_Init_2 */
 298:Core/Src/main.c **** 
 299:Core/Src/main.c ****   /* USER CODE END MX_GPIO_Init_2 */
 300:Core/Src/main.c **** }
 140              		.loc 1 300 1 is_stmt 0 view .LVU43
 141 00ac 08B0     		add	sp, sp, #32
 142              		.cfi_def_cfa_offset 0
 143              		@ sp needed
 144 00ae 7047     		bx	lr
 145              	.L4:
 146              		.align	2
 147              	.L3:
 148 00b0 00440258 		.word	1476543488
 149              		.cfi_endproc
 150              	.LFE147:
 152              		.section	.text.MPU_Config,"ax",%progbits
 153              		.align	1
 154              		.syntax unified
 155              		.thumb
 156              		.thumb_func
 158              	MPU_Config:
 159              	.LFB150:
ARM GAS  /var/folders/l4/6w9kflz11csb_6qsyz46nv3c0000gp/T//cc9ksRSZ.s 			page 9


 301:Core/Src/main.c **** 
 302:Core/Src/main.c **** /* USER CODE BEGIN 4 */
 303:Core/Src/main.c **** void FillStrip(uint8_t *buffer){
 304:Core/Src/main.c ****   for(uint32_t row = 0 ; row < STRIP_HEIGHT; row++){
 305:Core/Src/main.c ****     for(uint32_t column = 0; column < LCD_ACTIVE_WIDTH; column++){
 306:Core/Src/main.c ****       buffer[row*LCD_ACTIVE_WIDTH + column]= 0xFF;
 307:Core/Src/main.c ****     }
 308:Core/Src/main.c ****   }
 309:Core/Src/main.c **** }
 310:Core/Src/main.c **** 
 311:Core/Src/main.c **** 
 312:Core/Src/main.c **** void LTDC_IRQHandler(void){
 313:Core/Src/main.c ****   if(__HAL_LTDC_GET_FLAG(&hltdc, LTDC_FLAG_LI)){
 314:Core/Src/main.c ****     __HAL_LTDC_CLEAR_FLAG(&hltdc, LTDC_FLAG_LI);
 315:Core/Src/main.c ****     current_strip++;
 316:Core/Src/main.c ****     if(current_strip < TOTAL_STRIPS){
 317:Core/Src/main.c ****       FillStrip(strip_buffer1);
 318:Core/Src/main.c ****       HAL_LTDC_ProgramLineEvent(&hltdc, (current_strip+1) * STRIP_HEIGHT);
 319:Core/Src/main.c ****     }
 320:Core/Src/main.c ****     else{
 321:Core/Src/main.c ****       current_strip = 0;
 322:Core/Src/main.c ****       FillStrip(strip_buffer1);
 323:Core/Src/main.c ****       HAL_LTDC_ProgramLineEvent(&hltdc, STRIP_HEIGHT);
 324:Core/Src/main.c ****     }
 325:Core/Src/main.c ****   }
 326:Core/Src/main.c **** 
 327:Core/Src/main.c **** }    
 328:Core/Src/main.c **** 
 329:Core/Src/main.c **** 
 330:Core/Src/main.c **** /* USER CODE END 4 */
 331:Core/Src/main.c **** 
 332:Core/Src/main.c ****  /* MPU Configuration */
 333:Core/Src/main.c **** 
 334:Core/Src/main.c **** void MPU_Config(void)
 335:Core/Src/main.c **** {
 160              		.loc 1 335 1 is_stmt 1 view -0
 161              		.cfi_startproc
 162              		@ args = 0, pretend = 0, frame = 16
 163              		@ frame_needed = 0, uses_anonymous_args = 0
 164 0000 30B5     		push	{r4, r5, lr}
 165              		.cfi_def_cfa_offset 12
 166              		.cfi_offset 4, -12
 167              		.cfi_offset 5, -8
 168              		.cfi_offset 14, -4
 169 0002 85B0     		sub	sp, sp, #20
 170              		.cfi_def_cfa_offset 32
 336:Core/Src/main.c ****   MPU_Region_InitTypeDef MPU_InitStruct = {0};
 171              		.loc 1 336 3 view .LVU45
 172              		.loc 1 336 26 is_stmt 0 view .LVU46
 173 0004 0024     		movs	r4, #0
 174 0006 0094     		str	r4, [sp]
 175 0008 0194     		str	r4, [sp, #4]
 176 000a 0294     		str	r4, [sp, #8]
 177 000c 0394     		str	r4, [sp, #12]
 337:Core/Src/main.c **** 
 338:Core/Src/main.c ****   /* Disables the MPU */
 339:Core/Src/main.c ****   HAL_MPU_Disable();
ARM GAS  /var/folders/l4/6w9kflz11csb_6qsyz46nv3c0000gp/T//cc9ksRSZ.s 			page 10


 178              		.loc 1 339 3 is_stmt 1 view .LVU47
 179 000e FFF7FEFF 		bl	HAL_MPU_Disable
 180              	.LVL0:
 340:Core/Src/main.c **** 
 341:Core/Src/main.c ****   /** Initializes and configures the Region and the memory to be protected
 342:Core/Src/main.c ****   */
 343:Core/Src/main.c ****   MPU_InitStruct.Enable = MPU_REGION_ENABLE;
 181              		.loc 1 343 3 view .LVU48
 182              		.loc 1 343 25 is_stmt 0 view .LVU49
 183 0012 0123     		movs	r3, #1
 184 0014 8DF80030 		strb	r3, [sp]
 344:Core/Src/main.c ****   MPU_InitStruct.Number = MPU_REGION_NUMBER0;
 185              		.loc 1 344 3 is_stmt 1 view .LVU50
 186              		.loc 1 344 25 is_stmt 0 view .LVU51
 187 0018 8DF80140 		strb	r4, [sp, #1]
 345:Core/Src/main.c ****   MPU_InitStruct.BaseAddress = 0x0;
 188              		.loc 1 345 3 is_stmt 1 view .LVU52
 189              		.loc 1 345 30 is_stmt 0 view .LVU53
 190 001c 0194     		str	r4, [sp, #4]
 346:Core/Src/main.c ****   MPU_InitStruct.Size = MPU_REGION_SIZE_4GB;
 191              		.loc 1 346 3 is_stmt 1 view .LVU54
 192              		.loc 1 346 23 is_stmt 0 view .LVU55
 193 001e 1F22     		movs	r2, #31
 194 0020 8DF80820 		strb	r2, [sp, #8]
 347:Core/Src/main.c ****   MPU_InitStruct.SubRegionDisable = 0x87;
 195              		.loc 1 347 3 is_stmt 1 view .LVU56
 196              		.loc 1 347 35 is_stmt 0 view .LVU57
 197 0024 8722     		movs	r2, #135
 198 0026 8DF80920 		strb	r2, [sp, #9]
 348:Core/Src/main.c ****   MPU_InitStruct.TypeExtField = MPU_TEX_LEVEL0;
 199              		.loc 1 348 3 is_stmt 1 view .LVU58
 200              		.loc 1 348 31 is_stmt 0 view .LVU59
 201 002a 8DF80A40 		strb	r4, [sp, #10]
 349:Core/Src/main.c ****   MPU_InitStruct.AccessPermission = MPU_REGION_NO_ACCESS;
 202              		.loc 1 349 3 is_stmt 1 view .LVU60
 203              		.loc 1 349 35 is_stmt 0 view .LVU61
 204 002e 8DF80B40 		strb	r4, [sp, #11]
 350:Core/Src/main.c ****   MPU_InitStruct.DisableExec = MPU_INSTRUCTION_ACCESS_DISABLE;
 205              		.loc 1 350 3 is_stmt 1 view .LVU62
 206              		.loc 1 350 30 is_stmt 0 view .LVU63
 207 0032 8DF80C30 		strb	r3, [sp, #12]
 351:Core/Src/main.c ****   MPU_InitStruct.IsShareable = MPU_ACCESS_SHAREABLE;
 208              		.loc 1 351 3 is_stmt 1 view .LVU64
 209              		.loc 1 351 30 is_stmt 0 view .LVU65
 210 0036 8DF80D30 		strb	r3, [sp, #13]
 352:Core/Src/main.c ****   MPU_InitStruct.IsCacheable = MPU_ACCESS_NOT_CACHEABLE;
 211              		.loc 1 352 3 is_stmt 1 view .LVU66
 212              		.loc 1 352 30 is_stmt 0 view .LVU67
 213 003a 8DF80E40 		strb	r4, [sp, #14]
 353:Core/Src/main.c ****   MPU_InitStruct.IsBufferable = MPU_ACCESS_NOT_BUFFERABLE;
 214              		.loc 1 353 3 is_stmt 1 view .LVU68
 215              		.loc 1 353 31 is_stmt 0 view .LVU69
 216 003e 8DF80F40 		strb	r4, [sp, #15]
 354:Core/Src/main.c **** 
 355:Core/Src/main.c ****   HAL_MPU_ConfigRegion(&MPU_InitStruct);
 217              		.loc 1 355 3 is_stmt 1 view .LVU70
 218 0042 6846     		mov	r0, sp
ARM GAS  /var/folders/l4/6w9kflz11csb_6qsyz46nv3c0000gp/T//cc9ksRSZ.s 			page 11


 219 0044 FFF7FEFF 		bl	HAL_MPU_ConfigRegion
 220              	.LVL1:
 356:Core/Src/main.c ****   /* Enables the MPU */
 357:Core/Src/main.c ****   HAL_MPU_Enable(MPU_PRIVILEGED_DEFAULT);
 221              		.loc 1 357 3 view .LVU71
 222 0048 0420     		movs	r0, #4
 223 004a FFF7FEFF 		bl	HAL_MPU_Enable
 224              	.LVL2:
 358:Core/Src/main.c **** 
 359:Core/Src/main.c **** }
 225              		.loc 1 359 1 is_stmt 0 view .LVU72
 226 004e 05B0     		add	sp, sp, #20
 227              		.cfi_def_cfa_offset 12
 228              		@ sp needed
 229 0050 30BD     		pop	{r4, r5, pc}
 230              		.cfi_endproc
 231              	.LFE150:
 233              		.section	.text.FillStrip,"ax",%progbits
 234              		.align	1
 235              		.global	FillStrip
 236              		.syntax unified
 237              		.thumb
 238              		.thumb_func
 240              	FillStrip:
 241              	.LVL3:
 242              	.LFB148:
 303:Core/Src/main.c ****   for(uint32_t row = 0 ; row < STRIP_HEIGHT; row++){
 243              		.loc 1 303 32 is_stmt 1 view -0
 244              		.cfi_startproc
 245              		@ args = 0, pretend = 0, frame = 0
 246              		@ frame_needed = 0, uses_anonymous_args = 0
 247              		@ link register save eliminated.
 303:Core/Src/main.c ****   for(uint32_t row = 0 ; row < STRIP_HEIGHT; row++){
 248              		.loc 1 303 32 is_stmt 0 view .LVU74
 249 0000 8446     		mov	ip, r0
 304:Core/Src/main.c ****     for(uint32_t column = 0; column < LCD_ACTIVE_WIDTH; column++){
 250              		.loc 1 304 3 is_stmt 1 view .LVU75
 251              	.LBB11:
 304:Core/Src/main.c ****     for(uint32_t column = 0; column < LCD_ACTIVE_WIDTH; column++){
 252              		.loc 1 304 7 view .LVU76
 253              	.LVL4:
 304:Core/Src/main.c ****     for(uint32_t column = 0; column < LCD_ACTIVE_WIDTH; column++){
 254              		.loc 1 304 16 is_stmt 0 view .LVU77
 255 0002 0021     		movs	r1, #0
 304:Core/Src/main.c ****     for(uint32_t column = 0; column < LCD_ACTIVE_WIDTH; column++){
 256              		.loc 1 304 3 view .LVU78
 257 0004 0BE0     		b	.L8
 258              	.LVL5:
 259              	.L9:
 260              	.LBB12:
 306:Core/Src/main.c ****     }
 261              		.loc 1 306 7 is_stmt 1 view .LVU79
 306:Core/Src/main.c ****     }
 262              		.loc 1 306 17 is_stmt 0 view .LVU80
 263 0006 01EB8102 		add	r2, r1, r1, lsl #2
 306:Core/Src/main.c ****     }
 264              		.loc 1 306 35 view .LVU81
ARM GAS  /var/folders/l4/6w9kflz11csb_6qsyz46nv3c0000gp/T//cc9ksRSZ.s 			page 12


 265 000a 03EB0222 		add	r2, r3, r2, lsl #8
 306:Core/Src/main.c ****     }
 266              		.loc 1 306 44 view .LVU82
 267 000e FF20     		movs	r0, #255
 268 0010 0CF80200 		strb	r0, [ip, r2]
 305:Core/Src/main.c ****       buffer[row*LCD_ACTIVE_WIDTH + column]= 0xFF;
 269              		.loc 1 305 63 is_stmt 1 discriminator 3 view .LVU83
 270 0014 0133     		adds	r3, r3, #1
 271              	.LVL6:
 272              	.L10:
 305:Core/Src/main.c ****       buffer[row*LCD_ACTIVE_WIDTH + column]= 0xFF;
 273              		.loc 1 305 37 discriminator 1 view .LVU84
 274 0016 B3F5A06F 		cmp	r3, #1280
 275 001a F4D3     		bcc	.L9
 276              	.LBE12:
 304:Core/Src/main.c ****     for(uint32_t column = 0; column < LCD_ACTIVE_WIDTH; column++){
 277              		.loc 1 304 49 discriminator 2 view .LVU85
 278 001c 0131     		adds	r1, r1, #1
 279              	.LVL7:
 280              	.L8:
 304:Core/Src/main.c ****     for(uint32_t column = 0; column < LCD_ACTIVE_WIDTH; column++){
 281              		.loc 1 304 30 discriminator 1 view .LVU86
 282 001e B1F5C87F 		cmp	r1, #400
 283 0022 01D2     		bcs	.L12
 284              	.LBB13:
 305:Core/Src/main.c ****       buffer[row*LCD_ACTIVE_WIDTH + column]= 0xFF;
 285              		.loc 1 305 18 is_stmt 0 view .LVU87
 286 0024 0023     		movs	r3, #0
 287 0026 F6E7     		b	.L10
 288              	.L12:
 289              	.LBE13:
 290              	.LBE11:
 309:Core/Src/main.c **** 
 291              		.loc 1 309 1 view .LVU88
 292 0028 7047     		bx	lr
 293              		.cfi_endproc
 294              	.LFE148:
 296              		.section	.text.LTDC_IRQHandler,"ax",%progbits
 297              		.align	1
 298              		.global	LTDC_IRQHandler
 299              		.syntax unified
 300              		.thumb
 301              		.thumb_func
 303              	LTDC_IRQHandler:
 304              	.LFB149:
 312:Core/Src/main.c ****   if(__HAL_LTDC_GET_FLAG(&hltdc, LTDC_FLAG_LI)){
 305              		.loc 1 312 27 is_stmt 1 view -0
 306              		.cfi_startproc
 307              		@ args = 0, pretend = 0, frame = 0
 308              		@ frame_needed = 0, uses_anonymous_args = 0
 309 0000 08B5     		push	{r3, lr}
 310              		.cfi_def_cfa_offset 8
 311              		.cfi_offset 3, -8
 312              		.cfi_offset 14, -4
 313:Core/Src/main.c ****     __HAL_LTDC_CLEAR_FLAG(&hltdc, LTDC_FLAG_LI);
 313              		.loc 1 313 3 view .LVU90
 313:Core/Src/main.c ****     __HAL_LTDC_CLEAR_FLAG(&hltdc, LTDC_FLAG_LI);
ARM GAS  /var/folders/l4/6w9kflz11csb_6qsyz46nv3c0000gp/T//cc9ksRSZ.s 			page 13


 314              		.loc 1 313 6 is_stmt 0 view .LVU91
 315 0002 144B     		ldr	r3, .L17
 316 0004 1B68     		ldr	r3, [r3]
 317 0006 9A6B     		ldr	r2, [r3, #56]
 313:Core/Src/main.c ****     __HAL_LTDC_CLEAR_FLAG(&hltdc, LTDC_FLAG_LI);
 318              		.loc 1 313 5 view .LVU92
 319 0008 12F0010F 		tst	r2, #1
 320 000c 14D0     		beq	.L13
 314:Core/Src/main.c ****     current_strip++;
 321              		.loc 1 314 5 is_stmt 1 view .LVU93
 322 000e 0122     		movs	r2, #1
 323 0010 DA63     		str	r2, [r3, #60]
 315:Core/Src/main.c ****     if(current_strip < TOTAL_STRIPS){
 324              		.loc 1 315 5 view .LVU94
 315:Core/Src/main.c ****     if(current_strip < TOTAL_STRIPS){
 325              		.loc 1 315 18 is_stmt 0 view .LVU95
 326 0012 114B     		ldr	r3, .L17+4
 327 0014 1A68     		ldr	r2, [r3]
 328 0016 0132     		adds	r2, r2, #1
 329 0018 1A60     		str	r2, [r3]
 316:Core/Src/main.c ****       FillStrip(strip_buffer1);
 330              		.loc 1 316 5 is_stmt 1 view .LVU96
 316:Core/Src/main.c ****       FillStrip(strip_buffer1);
 331              		.loc 1 316 22 is_stmt 0 view .LVU97
 332 001a 1B68     		ldr	r3, [r3]
 316:Core/Src/main.c ****       FillStrip(strip_buffer1);
 333              		.loc 1 316 7 view .LVU98
 334 001c 052B     		cmp	r3, #5
 335 001e 0CD8     		bhi	.L15
 317:Core/Src/main.c ****       HAL_LTDC_ProgramLineEvent(&hltdc, (current_strip+1) * STRIP_HEIGHT);
 336              		.loc 1 317 7 is_stmt 1 view .LVU99
 337 0020 0E48     		ldr	r0, .L17+8
 338 0022 FFF7FEFF 		bl	FillStrip
 339              	.LVL8:
 318:Core/Src/main.c ****     }
 340              		.loc 1 318 7 view .LVU100
 341 0026 0C4B     		ldr	r3, .L17+4
 342 0028 1B68     		ldr	r3, [r3]
 343 002a 4FF4C871 		mov	r1, #400
 344 002e 03FB0111 		mla	r1, r3, r1, r1
 345 0032 0848     		ldr	r0, .L17
 346 0034 FFF7FEFF 		bl	HAL_LTDC_ProgramLineEvent
 347              	.LVL9:
 348              	.L13:
 327:Core/Src/main.c **** 
 349              		.loc 1 327 1 is_stmt 0 view .LVU101
 350 0038 08BD     		pop	{r3, pc}
 351              	.L15:
 321:Core/Src/main.c ****       FillStrip(strip_buffer1);
 352              		.loc 1 321 7 is_stmt 1 view .LVU102
 321:Core/Src/main.c ****       FillStrip(strip_buffer1);
 353              		.loc 1 321 21 is_stmt 0 view .LVU103
 354 003a 074B     		ldr	r3, .L17+4
 355 003c 0022     		movs	r2, #0
 356 003e 1A60     		str	r2, [r3]
 322:Core/Src/main.c ****       HAL_LTDC_ProgramLineEvent(&hltdc, STRIP_HEIGHT);
 357              		.loc 1 322 7 is_stmt 1 view .LVU104
ARM GAS  /var/folders/l4/6w9kflz11csb_6qsyz46nv3c0000gp/T//cc9ksRSZ.s 			page 14


 358 0040 0648     		ldr	r0, .L17+8
 359 0042 FFF7FEFF 		bl	FillStrip
 360              	.LVL10:
 323:Core/Src/main.c ****     }
 361              		.loc 1 323 7 view .LVU105
 362 0046 4FF4C871 		mov	r1, #400
 363 004a 0248     		ldr	r0, .L17
 364 004c FFF7FEFF 		bl	HAL_LTDC_ProgramLineEvent
 365              	.LVL11:
 327:Core/Src/main.c **** 
 366              		.loc 1 327 1 is_stmt 0 view .LVU106
 367 0050 F2E7     		b	.L13
 368              	.L18:
 369 0052 00BF     		.align	2
 370              	.L17:
 371 0054 00000000 		.word	hltdc
 372 0058 00000000 		.word	current_strip
 373 005c 00000000 		.word	strip_buffer1
 374              		.cfi_endproc
 375              	.LFE149:
 377              		.section	.text.Error_Handler,"ax",%progbits
 378              		.align	1
 379              		.global	Error_Handler
 380              		.syntax unified
 381              		.thumb
 382              		.thumb_func
 384              	Error_Handler:
 385              	.LFB151:
 360:Core/Src/main.c **** 
 361:Core/Src/main.c **** /**
 362:Core/Src/main.c ****   * @brief  This function is executed in case of error occurrence.
 363:Core/Src/main.c ****   * @retval None
 364:Core/Src/main.c ****   */
 365:Core/Src/main.c **** void Error_Handler(void)
 366:Core/Src/main.c **** {
 386              		.loc 1 366 1 is_stmt 1 view -0
 387              		.cfi_startproc
 388              		@ Volatile: function does not return.
 389              		@ args = 0, pretend = 0, frame = 0
 390              		@ frame_needed = 0, uses_anonymous_args = 0
 391              		@ link register save eliminated.
 367:Core/Src/main.c ****   /* USER CODE BEGIN Error_Handler_Debug */
 368:Core/Src/main.c ****   /* User can add his own implementation to report the HAL error return state */
 369:Core/Src/main.c ****   __disable_irq();
 392              		.loc 1 369 3 view .LVU108
 393              	.LBB14:
 394              	.LBI14:
 395              		.file 2 "Drivers/CMSIS/Include/cmsis_gcc.h"
   1:Drivers/CMSIS/Include/cmsis_gcc.h **** /**************************************************************************//**
   2:Drivers/CMSIS/Include/cmsis_gcc.h ****  * @file     cmsis_gcc.h
   3:Drivers/CMSIS/Include/cmsis_gcc.h ****  * @brief    CMSIS compiler GCC header file
   4:Drivers/CMSIS/Include/cmsis_gcc.h ****  * @version  V5.2.0
   5:Drivers/CMSIS/Include/cmsis_gcc.h ****  * @date     08. May 2019
   6:Drivers/CMSIS/Include/cmsis_gcc.h ****  ******************************************************************************/
   7:Drivers/CMSIS/Include/cmsis_gcc.h **** /*
   8:Drivers/CMSIS/Include/cmsis_gcc.h ****  * Copyright (c) 2009-2019 Arm Limited. All rights reserved.
   9:Drivers/CMSIS/Include/cmsis_gcc.h ****  *
ARM GAS  /var/folders/l4/6w9kflz11csb_6qsyz46nv3c0000gp/T//cc9ksRSZ.s 			page 15


  10:Drivers/CMSIS/Include/cmsis_gcc.h ****  * SPDX-License-Identifier: Apache-2.0
  11:Drivers/CMSIS/Include/cmsis_gcc.h ****  *
  12:Drivers/CMSIS/Include/cmsis_gcc.h ****  * Licensed under the Apache License, Version 2.0 (the License); you may
  13:Drivers/CMSIS/Include/cmsis_gcc.h ****  * not use this file except in compliance with the License.
  14:Drivers/CMSIS/Include/cmsis_gcc.h ****  * You may obtain a copy of the License at
  15:Drivers/CMSIS/Include/cmsis_gcc.h ****  *
  16:Drivers/CMSIS/Include/cmsis_gcc.h ****  * www.apache.org/licenses/LICENSE-2.0
  17:Drivers/CMSIS/Include/cmsis_gcc.h ****  *
  18:Drivers/CMSIS/Include/cmsis_gcc.h ****  * Unless required by applicable law or agreed to in writing, software
  19:Drivers/CMSIS/Include/cmsis_gcc.h ****  * distributed under the License is distributed on an AS IS BASIS, WITHOUT
  20:Drivers/CMSIS/Include/cmsis_gcc.h ****  * WARRANTIES OR CONDITIONS OF ANY KIND, either express or implied.
  21:Drivers/CMSIS/Include/cmsis_gcc.h ****  * See the License for the specific language governing permissions and
  22:Drivers/CMSIS/Include/cmsis_gcc.h ****  * limitations under the License.
  23:Drivers/CMSIS/Include/cmsis_gcc.h ****  */
  24:Drivers/CMSIS/Include/cmsis_gcc.h **** 
  25:Drivers/CMSIS/Include/cmsis_gcc.h **** #ifndef __CMSIS_GCC_H
  26:Drivers/CMSIS/Include/cmsis_gcc.h **** #define __CMSIS_GCC_H
  27:Drivers/CMSIS/Include/cmsis_gcc.h **** 
  28:Drivers/CMSIS/Include/cmsis_gcc.h **** /* ignore some GCC warnings */
  29:Drivers/CMSIS/Include/cmsis_gcc.h **** #pragma GCC diagnostic push
  30:Drivers/CMSIS/Include/cmsis_gcc.h **** #pragma GCC diagnostic ignored "-Wsign-conversion"
  31:Drivers/CMSIS/Include/cmsis_gcc.h **** #pragma GCC diagnostic ignored "-Wconversion"
  32:Drivers/CMSIS/Include/cmsis_gcc.h **** #pragma GCC diagnostic ignored "-Wunused-parameter"
  33:Drivers/CMSIS/Include/cmsis_gcc.h **** 
  34:Drivers/CMSIS/Include/cmsis_gcc.h **** /* Fallback for __has_builtin */
  35:Drivers/CMSIS/Include/cmsis_gcc.h **** #ifndef __has_builtin
  36:Drivers/CMSIS/Include/cmsis_gcc.h ****   #define __has_builtin(x) (0)
  37:Drivers/CMSIS/Include/cmsis_gcc.h **** #endif
  38:Drivers/CMSIS/Include/cmsis_gcc.h **** 
  39:Drivers/CMSIS/Include/cmsis_gcc.h **** /* CMSIS compiler specific defines */
  40:Drivers/CMSIS/Include/cmsis_gcc.h **** #ifndef   __ASM
  41:Drivers/CMSIS/Include/cmsis_gcc.h ****   #define __ASM                                  __asm
  42:Drivers/CMSIS/Include/cmsis_gcc.h **** #endif
  43:Drivers/CMSIS/Include/cmsis_gcc.h **** #ifndef   __INLINE
  44:Drivers/CMSIS/Include/cmsis_gcc.h ****   #define __INLINE                               inline
  45:Drivers/CMSIS/Include/cmsis_gcc.h **** #endif
  46:Drivers/CMSIS/Include/cmsis_gcc.h **** #ifndef   __STATIC_INLINE
  47:Drivers/CMSIS/Include/cmsis_gcc.h ****   #define __STATIC_INLINE                        static inline
  48:Drivers/CMSIS/Include/cmsis_gcc.h **** #endif
  49:Drivers/CMSIS/Include/cmsis_gcc.h **** #ifndef   __STATIC_FORCEINLINE                 
  50:Drivers/CMSIS/Include/cmsis_gcc.h ****   #define __STATIC_FORCEINLINE                   __attribute__((always_inline)) static inline
  51:Drivers/CMSIS/Include/cmsis_gcc.h **** #endif                                           
  52:Drivers/CMSIS/Include/cmsis_gcc.h **** #ifndef   __NO_RETURN
  53:Drivers/CMSIS/Include/cmsis_gcc.h ****   #define __NO_RETURN                            __attribute__((__noreturn__))
  54:Drivers/CMSIS/Include/cmsis_gcc.h **** #endif
  55:Drivers/CMSIS/Include/cmsis_gcc.h **** #ifndef   __USED
  56:Drivers/CMSIS/Include/cmsis_gcc.h ****   #define __USED                                 __attribute__((used))
  57:Drivers/CMSIS/Include/cmsis_gcc.h **** #endif
  58:Drivers/CMSIS/Include/cmsis_gcc.h **** #ifndef   __WEAK
  59:Drivers/CMSIS/Include/cmsis_gcc.h ****   #define __WEAK                                 __attribute__((weak))
  60:Drivers/CMSIS/Include/cmsis_gcc.h **** #endif
  61:Drivers/CMSIS/Include/cmsis_gcc.h **** #ifndef   __PACKED
  62:Drivers/CMSIS/Include/cmsis_gcc.h ****   #define __PACKED                               __attribute__((packed, aligned(1)))
  63:Drivers/CMSIS/Include/cmsis_gcc.h **** #endif
  64:Drivers/CMSIS/Include/cmsis_gcc.h **** #ifndef   __PACKED_STRUCT
  65:Drivers/CMSIS/Include/cmsis_gcc.h ****   #define __PACKED_STRUCT                        struct __attribute__((packed, aligned(1)))
  66:Drivers/CMSIS/Include/cmsis_gcc.h **** #endif
ARM GAS  /var/folders/l4/6w9kflz11csb_6qsyz46nv3c0000gp/T//cc9ksRSZ.s 			page 16


  67:Drivers/CMSIS/Include/cmsis_gcc.h **** #ifndef   __PACKED_UNION
  68:Drivers/CMSIS/Include/cmsis_gcc.h ****   #define __PACKED_UNION                         union __attribute__((packed, aligned(1)))
  69:Drivers/CMSIS/Include/cmsis_gcc.h **** #endif
  70:Drivers/CMSIS/Include/cmsis_gcc.h **** #ifndef   __UNALIGNED_UINT32        /* deprecated */
  71:Drivers/CMSIS/Include/cmsis_gcc.h ****   #pragma GCC diagnostic push
  72:Drivers/CMSIS/Include/cmsis_gcc.h ****   #pragma GCC diagnostic ignored "-Wpacked"
  73:Drivers/CMSIS/Include/cmsis_gcc.h ****   #pragma GCC diagnostic ignored "-Wattributes"
  74:Drivers/CMSIS/Include/cmsis_gcc.h ****   struct __attribute__((packed)) T_UINT32 { uint32_t v; };
  75:Drivers/CMSIS/Include/cmsis_gcc.h ****   #pragma GCC diagnostic pop
  76:Drivers/CMSIS/Include/cmsis_gcc.h ****   #define __UNALIGNED_UINT32(x)                  (((struct T_UINT32 *)(x))->v)
  77:Drivers/CMSIS/Include/cmsis_gcc.h **** #endif
  78:Drivers/CMSIS/Include/cmsis_gcc.h **** #ifndef   __UNALIGNED_UINT16_WRITE
  79:Drivers/CMSIS/Include/cmsis_gcc.h ****   #pragma GCC diagnostic push
  80:Drivers/CMSIS/Include/cmsis_gcc.h ****   #pragma GCC diagnostic ignored "-Wpacked"
  81:Drivers/CMSIS/Include/cmsis_gcc.h ****   #pragma GCC diagnostic ignored "-Wattributes"
  82:Drivers/CMSIS/Include/cmsis_gcc.h ****   __PACKED_STRUCT T_UINT16_WRITE { uint16_t v; };
  83:Drivers/CMSIS/Include/cmsis_gcc.h ****   #pragma GCC diagnostic pop
  84:Drivers/CMSIS/Include/cmsis_gcc.h ****   #define __UNALIGNED_UINT16_WRITE(addr, val)    (void)((((struct T_UINT16_WRITE *)(void *)(addr))-
  85:Drivers/CMSIS/Include/cmsis_gcc.h **** #endif
  86:Drivers/CMSIS/Include/cmsis_gcc.h **** #ifndef   __UNALIGNED_UINT16_READ
  87:Drivers/CMSIS/Include/cmsis_gcc.h ****   #pragma GCC diagnostic push
  88:Drivers/CMSIS/Include/cmsis_gcc.h ****   #pragma GCC diagnostic ignored "-Wpacked"
  89:Drivers/CMSIS/Include/cmsis_gcc.h ****   #pragma GCC diagnostic ignored "-Wattributes"
  90:Drivers/CMSIS/Include/cmsis_gcc.h ****   __PACKED_STRUCT T_UINT16_READ { uint16_t v; };
  91:Drivers/CMSIS/Include/cmsis_gcc.h ****   #pragma GCC diagnostic pop
  92:Drivers/CMSIS/Include/cmsis_gcc.h ****   #define __UNALIGNED_UINT16_READ(addr)          (((const struct T_UINT16_READ *)(const void *)(add
  93:Drivers/CMSIS/Include/cmsis_gcc.h **** #endif
  94:Drivers/CMSIS/Include/cmsis_gcc.h **** #ifndef   __UNALIGNED_UINT32_WRITE
  95:Drivers/CMSIS/Include/cmsis_gcc.h ****   #pragma GCC diagnostic push
  96:Drivers/CMSIS/Include/cmsis_gcc.h ****   #pragma GCC diagnostic ignored "-Wpacked"
  97:Drivers/CMSIS/Include/cmsis_gcc.h ****   #pragma GCC diagnostic ignored "-Wattributes"
  98:Drivers/CMSIS/Include/cmsis_gcc.h ****   __PACKED_STRUCT T_UINT32_WRITE { uint32_t v; };
  99:Drivers/CMSIS/Include/cmsis_gcc.h ****   #pragma GCC diagnostic pop
 100:Drivers/CMSIS/Include/cmsis_gcc.h ****   #define __UNALIGNED_UINT32_WRITE(addr, val)    (void)((((struct T_UINT32_WRITE *)(void *)(addr))-
 101:Drivers/CMSIS/Include/cmsis_gcc.h **** #endif
 102:Drivers/CMSIS/Include/cmsis_gcc.h **** #ifndef   __UNALIGNED_UINT32_READ
 103:Drivers/CMSIS/Include/cmsis_gcc.h ****   #pragma GCC diagnostic push
 104:Drivers/CMSIS/Include/cmsis_gcc.h ****   #pragma GCC diagnostic ignored "-Wpacked"
 105:Drivers/CMSIS/Include/cmsis_gcc.h ****   #pragma GCC diagnostic ignored "-Wattributes"
 106:Drivers/CMSIS/Include/cmsis_gcc.h ****   __PACKED_STRUCT T_UINT32_READ { uint32_t v; };
 107:Drivers/CMSIS/Include/cmsis_gcc.h ****   #pragma GCC diagnostic pop
 108:Drivers/CMSIS/Include/cmsis_gcc.h ****   #define __UNALIGNED_UINT32_READ(addr)          (((const struct T_UINT32_READ *)(const void *)(add
 109:Drivers/CMSIS/Include/cmsis_gcc.h **** #endif
 110:Drivers/CMSIS/Include/cmsis_gcc.h **** #ifndef   __ALIGNED
 111:Drivers/CMSIS/Include/cmsis_gcc.h ****   #define __ALIGNED(x)                           __attribute__((aligned(x)))
 112:Drivers/CMSIS/Include/cmsis_gcc.h **** #endif
 113:Drivers/CMSIS/Include/cmsis_gcc.h **** #ifndef   __RESTRICT
 114:Drivers/CMSIS/Include/cmsis_gcc.h ****   #define __RESTRICT                             __restrict
 115:Drivers/CMSIS/Include/cmsis_gcc.h **** #endif
 116:Drivers/CMSIS/Include/cmsis_gcc.h **** #ifndef   __COMPILER_BARRIER
 117:Drivers/CMSIS/Include/cmsis_gcc.h ****   #define __COMPILER_BARRIER()                   __ASM volatile("":::"memory")
 118:Drivers/CMSIS/Include/cmsis_gcc.h **** #endif
 119:Drivers/CMSIS/Include/cmsis_gcc.h **** 
 120:Drivers/CMSIS/Include/cmsis_gcc.h **** /* #########################  Startup and Lowlevel Init  ######################## */
 121:Drivers/CMSIS/Include/cmsis_gcc.h **** 
 122:Drivers/CMSIS/Include/cmsis_gcc.h **** #ifndef __PROGRAM_START
 123:Drivers/CMSIS/Include/cmsis_gcc.h **** 
ARM GAS  /var/folders/l4/6w9kflz11csb_6qsyz46nv3c0000gp/T//cc9ksRSZ.s 			page 17


 124:Drivers/CMSIS/Include/cmsis_gcc.h **** /**
 125:Drivers/CMSIS/Include/cmsis_gcc.h ****   \brief   Initializes data and bss sections
 126:Drivers/CMSIS/Include/cmsis_gcc.h ****   \details This default implementations initialized all data and additional bss
 127:Drivers/CMSIS/Include/cmsis_gcc.h ****            sections relying on .copy.table and .zero.table specified properly
 128:Drivers/CMSIS/Include/cmsis_gcc.h ****            in the used linker script.
 129:Drivers/CMSIS/Include/cmsis_gcc.h ****   
 130:Drivers/CMSIS/Include/cmsis_gcc.h ****  */
 131:Drivers/CMSIS/Include/cmsis_gcc.h **** __STATIC_FORCEINLINE __NO_RETURN void __cmsis_start(void)
 132:Drivers/CMSIS/Include/cmsis_gcc.h **** {
 133:Drivers/CMSIS/Include/cmsis_gcc.h ****   extern void _start(void) __NO_RETURN;
 134:Drivers/CMSIS/Include/cmsis_gcc.h ****   
 135:Drivers/CMSIS/Include/cmsis_gcc.h ****   typedef struct {
 136:Drivers/CMSIS/Include/cmsis_gcc.h ****     uint32_t const* src;
 137:Drivers/CMSIS/Include/cmsis_gcc.h ****     uint32_t* dest;
 138:Drivers/CMSIS/Include/cmsis_gcc.h ****     uint32_t  wlen;
 139:Drivers/CMSIS/Include/cmsis_gcc.h ****   } __copy_table_t;
 140:Drivers/CMSIS/Include/cmsis_gcc.h ****   
 141:Drivers/CMSIS/Include/cmsis_gcc.h ****   typedef struct {
 142:Drivers/CMSIS/Include/cmsis_gcc.h ****     uint32_t* dest;
 143:Drivers/CMSIS/Include/cmsis_gcc.h ****     uint32_t  wlen;
 144:Drivers/CMSIS/Include/cmsis_gcc.h ****   } __zero_table_t;
 145:Drivers/CMSIS/Include/cmsis_gcc.h ****   
 146:Drivers/CMSIS/Include/cmsis_gcc.h ****   extern const __copy_table_t __copy_table_start__;
 147:Drivers/CMSIS/Include/cmsis_gcc.h ****   extern const __copy_table_t __copy_table_end__;
 148:Drivers/CMSIS/Include/cmsis_gcc.h ****   extern const __zero_table_t __zero_table_start__;
 149:Drivers/CMSIS/Include/cmsis_gcc.h ****   extern const __zero_table_t __zero_table_end__;
 150:Drivers/CMSIS/Include/cmsis_gcc.h **** 
 151:Drivers/CMSIS/Include/cmsis_gcc.h ****   for (__copy_table_t const* pTable = &__copy_table_start__; pTable < &__copy_table_end__; ++pTable
 152:Drivers/CMSIS/Include/cmsis_gcc.h ****     for(uint32_t i=0u; i<pTable->wlen; ++i) {
 153:Drivers/CMSIS/Include/cmsis_gcc.h ****       pTable->dest[i] = pTable->src[i];
 154:Drivers/CMSIS/Include/cmsis_gcc.h ****     }
 155:Drivers/CMSIS/Include/cmsis_gcc.h ****   }
 156:Drivers/CMSIS/Include/cmsis_gcc.h ****  
 157:Drivers/CMSIS/Include/cmsis_gcc.h ****   for (__zero_table_t const* pTable = &__zero_table_start__; pTable < &__zero_table_end__; ++pTable
 158:Drivers/CMSIS/Include/cmsis_gcc.h ****     for(uint32_t i=0u; i<pTable->wlen; ++i) {
 159:Drivers/CMSIS/Include/cmsis_gcc.h ****       pTable->dest[i] = 0u;
 160:Drivers/CMSIS/Include/cmsis_gcc.h ****     }
 161:Drivers/CMSIS/Include/cmsis_gcc.h ****   }
 162:Drivers/CMSIS/Include/cmsis_gcc.h ****  
 163:Drivers/CMSIS/Include/cmsis_gcc.h ****   _start();
 164:Drivers/CMSIS/Include/cmsis_gcc.h **** }
 165:Drivers/CMSIS/Include/cmsis_gcc.h ****   
 166:Drivers/CMSIS/Include/cmsis_gcc.h **** #define __PROGRAM_START           __cmsis_start
 167:Drivers/CMSIS/Include/cmsis_gcc.h **** #endif
 168:Drivers/CMSIS/Include/cmsis_gcc.h **** 
 169:Drivers/CMSIS/Include/cmsis_gcc.h **** #ifndef __INITIAL_SP
 170:Drivers/CMSIS/Include/cmsis_gcc.h **** #define __INITIAL_SP              __StackTop
 171:Drivers/CMSIS/Include/cmsis_gcc.h **** #endif
 172:Drivers/CMSIS/Include/cmsis_gcc.h **** 
 173:Drivers/CMSIS/Include/cmsis_gcc.h **** #ifndef __STACK_LIMIT
 174:Drivers/CMSIS/Include/cmsis_gcc.h **** #define __STACK_LIMIT             __StackLimit
 175:Drivers/CMSIS/Include/cmsis_gcc.h **** #endif
 176:Drivers/CMSIS/Include/cmsis_gcc.h **** 
 177:Drivers/CMSIS/Include/cmsis_gcc.h **** #ifndef __VECTOR_TABLE
 178:Drivers/CMSIS/Include/cmsis_gcc.h **** #define __VECTOR_TABLE            __Vectors
 179:Drivers/CMSIS/Include/cmsis_gcc.h **** #endif
 180:Drivers/CMSIS/Include/cmsis_gcc.h **** 
ARM GAS  /var/folders/l4/6w9kflz11csb_6qsyz46nv3c0000gp/T//cc9ksRSZ.s 			page 18


 181:Drivers/CMSIS/Include/cmsis_gcc.h **** #ifndef __VECTOR_TABLE_ATTRIBUTE
 182:Drivers/CMSIS/Include/cmsis_gcc.h **** #define __VECTOR_TABLE_ATTRIBUTE  __attribute((used, section(".vectors")))
 183:Drivers/CMSIS/Include/cmsis_gcc.h **** #endif
 184:Drivers/CMSIS/Include/cmsis_gcc.h **** 
 185:Drivers/CMSIS/Include/cmsis_gcc.h **** /* ###########################  Core Function Access  ########################### */
 186:Drivers/CMSIS/Include/cmsis_gcc.h **** /** \ingroup  CMSIS_Core_FunctionInterface
 187:Drivers/CMSIS/Include/cmsis_gcc.h ****     \defgroup CMSIS_Core_RegAccFunctions CMSIS Core Register Access Functions
 188:Drivers/CMSIS/Include/cmsis_gcc.h ****   @{
 189:Drivers/CMSIS/Include/cmsis_gcc.h ****  */
 190:Drivers/CMSIS/Include/cmsis_gcc.h **** 
 191:Drivers/CMSIS/Include/cmsis_gcc.h **** /**
 192:Drivers/CMSIS/Include/cmsis_gcc.h ****   \brief   Enable IRQ Interrupts
 193:Drivers/CMSIS/Include/cmsis_gcc.h ****   \details Enables IRQ interrupts by clearing the I-bit in the CPSR.
 194:Drivers/CMSIS/Include/cmsis_gcc.h ****            Can only be executed in Privileged modes.
 195:Drivers/CMSIS/Include/cmsis_gcc.h ****  */
 196:Drivers/CMSIS/Include/cmsis_gcc.h **** __STATIC_FORCEINLINE void __enable_irq(void)
 197:Drivers/CMSIS/Include/cmsis_gcc.h **** {
 198:Drivers/CMSIS/Include/cmsis_gcc.h ****   __ASM volatile ("cpsie i" : : : "memory");
 199:Drivers/CMSIS/Include/cmsis_gcc.h **** }
 200:Drivers/CMSIS/Include/cmsis_gcc.h **** 
 201:Drivers/CMSIS/Include/cmsis_gcc.h **** 
 202:Drivers/CMSIS/Include/cmsis_gcc.h **** /**
 203:Drivers/CMSIS/Include/cmsis_gcc.h ****   \brief   Disable IRQ Interrupts
 204:Drivers/CMSIS/Include/cmsis_gcc.h ****   \details Disables IRQ interrupts by setting the I-bit in the CPSR.
 205:Drivers/CMSIS/Include/cmsis_gcc.h ****            Can only be executed in Privileged modes.
 206:Drivers/CMSIS/Include/cmsis_gcc.h ****  */
 207:Drivers/CMSIS/Include/cmsis_gcc.h **** __STATIC_FORCEINLINE void __disable_irq(void)
 396              		.loc 2 207 27 view .LVU109
 397              	.LBB15:
 208:Drivers/CMSIS/Include/cmsis_gcc.h **** {
 209:Drivers/CMSIS/Include/cmsis_gcc.h ****   __ASM volatile ("cpsid i" : : : "memory");
 398              		.loc 2 209 3 view .LVU110
 399              		.syntax unified
 400              	@ 209 "Drivers/CMSIS/Include/cmsis_gcc.h" 1
 401 0000 72B6     		cpsid i
 402              	@ 0 "" 2
 403              		.thumb
 404              		.syntax unified
 405              	.L20:
 406              	.LBE15:
 407              	.LBE14:
 370:Core/Src/main.c ****   while (1)
 408              		.loc 1 370 3 view .LVU111
 371:Core/Src/main.c ****   {
 372:Core/Src/main.c ****   }
 409              		.loc 1 372 3 view .LVU112
 370:Core/Src/main.c ****   while (1)
 410              		.loc 1 370 9 view .LVU113
 411 0002 FEE7     		b	.L20
 412              		.cfi_endproc
 413              	.LFE151:
 415              		.section	.text.MX_LTDC_Init,"ax",%progbits
 416              		.align	1
 417              		.syntax unified
 418              		.thumb
 419              		.thumb_func
 421              	MX_LTDC_Init:
ARM GAS  /var/folders/l4/6w9kflz11csb_6qsyz46nv3c0000gp/T//cc9ksRSZ.s 			page 19


 422              	.LFB146:
 217:Core/Src/main.c **** 
 423              		.loc 1 217 1 view -0
 424              		.cfi_startproc
 425              		@ args = 0, pretend = 0, frame = 56
 426              		@ frame_needed = 0, uses_anonymous_args = 0
 427 0000 00B5     		push	{lr}
 428              		.cfi_def_cfa_offset 4
 429              		.cfi_offset 14, -4
 430 0002 8FB0     		sub	sp, sp, #60
 431              		.cfi_def_cfa_offset 64
 223:Core/Src/main.c **** 
 432              		.loc 1 223 3 view .LVU115
 223:Core/Src/main.c **** 
 433              		.loc 1 223 24 is_stmt 0 view .LVU116
 434 0004 3422     		movs	r2, #52
 435 0006 0021     		movs	r1, #0
 436 0008 01A8     		add	r0, sp, #4
 437 000a FFF7FEFF 		bl	memset
 438              	.LVL12:
 229:Core/Src/main.c ****   hltdc.Init.HSPolarity = LTDC_HSPOLARITY_AL;
 439              		.loc 1 229 3 is_stmt 1 view .LVU117
 229:Core/Src/main.c ****   hltdc.Init.HSPolarity = LTDC_HSPOLARITY_AL;
 440              		.loc 1 229 18 is_stmt 0 view .LVU118
 441 000e 3048     		ldr	r0, .L29
 442 0010 304B     		ldr	r3, .L29+4
 443 0012 0360     		str	r3, [r0]
 230:Core/Src/main.c ****   hltdc.Init.VSPolarity = LTDC_VSPOLARITY_AL;
 444              		.loc 1 230 3 is_stmt 1 view .LVU119
 230:Core/Src/main.c ****   hltdc.Init.VSPolarity = LTDC_VSPOLARITY_AL;
 445              		.loc 1 230 25 is_stmt 0 view .LVU120
 446 0014 0023     		movs	r3, #0
 447 0016 4360     		str	r3, [r0, #4]
 231:Core/Src/main.c ****   hltdc.Init.DEPolarity = LTDC_DEPOLARITY_AL;
 448              		.loc 1 231 3 is_stmt 1 view .LVU121
 231:Core/Src/main.c ****   hltdc.Init.DEPolarity = LTDC_DEPOLARITY_AL;
 449              		.loc 1 231 25 is_stmt 0 view .LVU122
 450 0018 8360     		str	r3, [r0, #8]
 232:Core/Src/main.c ****   hltdc.Init.PCPolarity = LTDC_PCPOLARITY_IPC;
 451              		.loc 1 232 3 is_stmt 1 view .LVU123
 232:Core/Src/main.c ****   hltdc.Init.PCPolarity = LTDC_PCPOLARITY_IPC;
 452              		.loc 1 232 25 is_stmt 0 view .LVU124
 453 001a C360     		str	r3, [r0, #12]
 233:Core/Src/main.c ****   hltdc.Init.HorizontalSync = H_SYNC_WIDTH - 1;
 454              		.loc 1 233 3 is_stmt 1 view .LVU125
 233:Core/Src/main.c ****   hltdc.Init.HorizontalSync = H_SYNC_WIDTH - 1;
 455              		.loc 1 233 25 is_stmt 0 view .LVU126
 456 001c 0361     		str	r3, [r0, #16]
 234:Core/Src/main.c ****   hltdc.Init.VerticalSync = V_SYNC_WIDTH - 1;
 457              		.loc 1 234 3 is_stmt 1 view .LVU127
 234:Core/Src/main.c ****   hltdc.Init.VerticalSync = V_SYNC_WIDTH - 1;
 458              		.loc 1 234 29 is_stmt 0 view .LVU128
 459 001e 3122     		movs	r2, #49
 460 0020 4261     		str	r2, [r0, #20]
 235:Core/Src/main.c ****   hltdc.Init.AccumulatedHBP = H_SYNC_WIDTH + H_BACK_PORCH - 1;
 461              		.loc 1 235 3 is_stmt 1 view .LVU129
 235:Core/Src/main.c ****   hltdc.Init.AccumulatedHBP = H_SYNC_WIDTH + H_BACK_PORCH - 1;
ARM GAS  /var/folders/l4/6w9kflz11csb_6qsyz46nv3c0000gp/T//cc9ksRSZ.s 			page 20


 462              		.loc 1 235 27 is_stmt 0 view .LVU130
 463 0022 8261     		str	r2, [r0, #24]
 236:Core/Src/main.c ****   hltdc.Init.AccumulatedVBP = V_SYNC_WIDTH + V_BACK_PORCH - 1;
 464              		.loc 1 236 3 is_stmt 1 view .LVU131
 236:Core/Src/main.c ****   hltdc.Init.AccumulatedVBP = V_SYNC_WIDTH + V_BACK_PORCH - 1;
 465              		.loc 1 236 29 is_stmt 0 view .LVU132
 466 0024 6322     		movs	r2, #99
 467 0026 C261     		str	r2, [r0, #28]
 237:Core/Src/main.c ****   hltdc.Init.AccumulatedActiveW = H_SYNC_WIDTH + H_BACK_PORCH + LCD_ACTIVE_WIDTH - 1;
 468              		.loc 1 237 3 is_stmt 1 view .LVU133
 237:Core/Src/main.c ****   hltdc.Init.AccumulatedActiveW = H_SYNC_WIDTH + H_BACK_PORCH + LCD_ACTIVE_WIDTH - 1;
 469              		.loc 1 237 29 is_stmt 0 view .LVU134
 470 0028 0262     		str	r2, [r0, #32]
 238:Core/Src/main.c ****   hltdc.Init.AccumulatedActiveH = V_SYNC_WIDTH + V_BACK_PORCH + LCD_ACTIVE_HEIGHT - 1;
 471              		.loc 1 238 3 is_stmt 1 view .LVU135
 238:Core/Src/main.c ****   hltdc.Init.AccumulatedActiveH = V_SYNC_WIDTH + V_BACK_PORCH + LCD_ACTIVE_HEIGHT - 1;
 472              		.loc 1 238 33 is_stmt 0 view .LVU136
 473 002a 40F26352 		movw	r2, #1379
 474 002e 4262     		str	r2, [r0, #36]
 239:Core/Src/main.c ****   hltdc.Init.TotalWidth = H_TOTAL - 1;
 475              		.loc 1 239 3 is_stmt 1 view .LVU137
 239:Core/Src/main.c ****   hltdc.Init.TotalWidth = H_TOTAL - 1;
 476              		.loc 1 239 33 is_stmt 0 view .LVU138
 477 0030 40F6C312 		movw	r2, #2499
 478 0034 8262     		str	r2, [r0, #40]
 240:Core/Src/main.c ****   hltdc.Init.TotalHeigh = V_TOTAL - 1;
 479              		.loc 1 240 3 is_stmt 1 view .LVU139
 240:Core/Src/main.c ****   hltdc.Init.TotalHeigh = V_TOTAL - 1;
 480              		.loc 1 240 25 is_stmt 0 view .LVU140
 481 0036 40F29552 		movw	r2, #1429
 482 003a C262     		str	r2, [r0, #44]
 241:Core/Src/main.c ****   hltdc.Init.Backcolor.Blue = 0;
 483              		.loc 1 241 3 is_stmt 1 view .LVU141
 241:Core/Src/main.c ****   hltdc.Init.Backcolor.Blue = 0;
 484              		.loc 1 241 25 is_stmt 0 view .LVU142
 485 003c 40F6F512 		movw	r2, #2549
 486 0040 0263     		str	r2, [r0, #48]
 242:Core/Src/main.c ****   hltdc.Init.Backcolor.Green = 0;
 487              		.loc 1 242 3 is_stmt 1 view .LVU143
 242:Core/Src/main.c ****   hltdc.Init.Backcolor.Green = 0;
 488              		.loc 1 242 29 is_stmt 0 view .LVU144
 489 0042 80F83430 		strb	r3, [r0, #52]
 243:Core/Src/main.c ****   hltdc.Init.Backcolor.Red = 0;
 490              		.loc 1 243 3 is_stmt 1 view .LVU145
 243:Core/Src/main.c ****   hltdc.Init.Backcolor.Red = 0;
 491              		.loc 1 243 30 is_stmt 0 view .LVU146
 492 0046 80F83530 		strb	r3, [r0, #53]
 244:Core/Src/main.c ****   if (HAL_LTDC_Init(&hltdc) != HAL_OK)
 493              		.loc 1 244 3 is_stmt 1 view .LVU147
 244:Core/Src/main.c ****   if (HAL_LTDC_Init(&hltdc) != HAL_OK)
 494              		.loc 1 244 28 is_stmt 0 view .LVU148
 495 004a 80F83630 		strb	r3, [r0, #54]
 245:Core/Src/main.c ****   {
 496              		.loc 1 245 3 is_stmt 1 view .LVU149
 245:Core/Src/main.c ****   {
 497              		.loc 1 245 7 is_stmt 0 view .LVU150
 498 004e FFF7FEFF 		bl	HAL_LTDC_Init
ARM GAS  /var/folders/l4/6w9kflz11csb_6qsyz46nv3c0000gp/T//cc9ksRSZ.s 			page 21


 499              	.LVL13:
 245:Core/Src/main.c ****   {
 500              		.loc 1 245 6 discriminator 1 view .LVU151
 501 0052 20BB     		cbnz	r0, .L27
 249:Core/Src/main.c ****   pLayerCfg.WindowX1 = LCD_ACTIVE_WIDTH;
 502              		.loc 1 249 3 is_stmt 1 view .LVU152
 249:Core/Src/main.c ****   pLayerCfg.WindowX1 = LCD_ACTIVE_WIDTH;
 503              		.loc 1 249 22 is_stmt 0 view .LVU153
 504 0054 0023     		movs	r3, #0
 505 0056 0193     		str	r3, [sp, #4]
 250:Core/Src/main.c ****   pLayerCfg.WindowY0 = 0;
 506              		.loc 1 250 3 is_stmt 1 view .LVU154
 250:Core/Src/main.c ****   pLayerCfg.WindowY0 = 0;
 507              		.loc 1 250 22 is_stmt 0 view .LVU155
 508 0058 4FF4A061 		mov	r1, #1280
 509 005c 0291     		str	r1, [sp, #8]
 251:Core/Src/main.c ****   pLayerCfg.WindowY1 = LCD_ACTIVE_HEIGHT;
 510              		.loc 1 251 3 is_stmt 1 view .LVU156
 251:Core/Src/main.c ****   pLayerCfg.WindowY1 = LCD_ACTIVE_HEIGHT;
 511              		.loc 1 251 22 is_stmt 0 view .LVU157
 512 005e 0393     		str	r3, [sp, #12]
 252:Core/Src/main.c ****   pLayerCfg.PixelFormat = LTDC_PIXEL_FORMAT_L8;
 513              		.loc 1 252 3 is_stmt 1 view .LVU158
 252:Core/Src/main.c ****   pLayerCfg.PixelFormat = LTDC_PIXEL_FORMAT_L8;
 514              		.loc 1 252 22 is_stmt 0 view .LVU159
 515 0060 4FF41662 		mov	r2, #2400
 516 0064 0492     		str	r2, [sp, #16]
 253:Core/Src/main.c ****   pLayerCfg.Alpha = 255;
 517              		.loc 1 253 3 is_stmt 1 view .LVU160
 253:Core/Src/main.c ****   pLayerCfg.Alpha = 255;
 518              		.loc 1 253 25 is_stmt 0 view .LVU161
 519 0066 0520     		movs	r0, #5
 520 0068 0590     		str	r0, [sp, #20]
 254:Core/Src/main.c ****   pLayerCfg.Alpha0 = 0;
 521              		.loc 1 254 3 is_stmt 1 view .LVU162
 254:Core/Src/main.c ****   pLayerCfg.Alpha0 = 0;
 522              		.loc 1 254 19 is_stmt 0 view .LVU163
 523 006a FF20     		movs	r0, #255
 524 006c 0690     		str	r0, [sp, #24]
 255:Core/Src/main.c ****   pLayerCfg.BlendingFactor1 = LTDC_BLENDING_FACTOR1_PAxCA;
 525              		.loc 1 255 3 is_stmt 1 view .LVU164
 255:Core/Src/main.c ****   pLayerCfg.BlendingFactor1 = LTDC_BLENDING_FACTOR1_PAxCA;
 526              		.loc 1 255 20 is_stmt 0 view .LVU165
 527 006e 0793     		str	r3, [sp, #28]
 256:Core/Src/main.c ****   pLayerCfg.BlendingFactor2 = LTDC_BLENDING_FACTOR2_PAxCA;
 528              		.loc 1 256 3 is_stmt 1 view .LVU166
 256:Core/Src/main.c ****   pLayerCfg.BlendingFactor2 = LTDC_BLENDING_FACTOR2_PAxCA;
 529              		.loc 1 256 29 is_stmt 0 view .LVU167
 530 0070 4FF4C060 		mov	r0, #1536
 531 0074 0890     		str	r0, [sp, #32]
 257:Core/Src/main.c ****   pLayerCfg.FBStartAdress = (uint32_t)strip_buffer1;
 532              		.loc 1 257 3 is_stmt 1 view .LVU168
 257:Core/Src/main.c ****   pLayerCfg.FBStartAdress = (uint32_t)strip_buffer1;
 533              		.loc 1 257 29 is_stmt 0 view .LVU169
 534 0076 0720     		movs	r0, #7
 535 0078 0990     		str	r0, [sp, #36]
 258:Core/Src/main.c ****   pLayerCfg.ImageWidth = LCD_ACTIVE_WIDTH;
ARM GAS  /var/folders/l4/6w9kflz11csb_6qsyz46nv3c0000gp/T//cc9ksRSZ.s 			page 22


 536              		.loc 1 258 3 is_stmt 1 view .LVU170
 258:Core/Src/main.c ****   pLayerCfg.ImageWidth = LCD_ACTIVE_WIDTH;
 537              		.loc 1 258 29 is_stmt 0 view .LVU171
 538 007a 1748     		ldr	r0, .L29+8
 258:Core/Src/main.c ****   pLayerCfg.ImageWidth = LCD_ACTIVE_WIDTH;
 539              		.loc 1 258 27 view .LVU172
 540 007c 0A90     		str	r0, [sp, #40]
 259:Core/Src/main.c ****   pLayerCfg.ImageHeight = LCD_ACTIVE_HEIGHT;
 541              		.loc 1 259 3 is_stmt 1 view .LVU173
 259:Core/Src/main.c ****   pLayerCfg.ImageHeight = LCD_ACTIVE_HEIGHT;
 542              		.loc 1 259 24 is_stmt 0 view .LVU174
 543 007e 0B91     		str	r1, [sp, #44]
 260:Core/Src/main.c ****   pLayerCfg.Backcolor.Blue = 0;
 544              		.loc 1 260 3 is_stmt 1 view .LVU175
 260:Core/Src/main.c ****   pLayerCfg.Backcolor.Blue = 0;
 545              		.loc 1 260 25 is_stmt 0 view .LVU176
 546 0080 0C92     		str	r2, [sp, #48]
 261:Core/Src/main.c ****   pLayerCfg.Backcolor.Green = 0;
 547              		.loc 1 261 3 is_stmt 1 view .LVU177
 261:Core/Src/main.c ****   pLayerCfg.Backcolor.Green = 0;
 548              		.loc 1 261 28 is_stmt 0 view .LVU178
 549 0082 8DF83430 		strb	r3, [sp, #52]
 262:Core/Src/main.c ****   pLayerCfg.Backcolor.Red = 0;
 550              		.loc 1 262 3 is_stmt 1 view .LVU179
 262:Core/Src/main.c ****   pLayerCfg.Backcolor.Red = 0;
 551              		.loc 1 262 29 is_stmt 0 view .LVU180
 552 0086 8DF83530 		strb	r3, [sp, #53]
 263:Core/Src/main.c ****   if (HAL_LTDC_ConfigLayer(&hltdc, &pLayerCfg, 1) != HAL_OK)
 553              		.loc 1 263 3 is_stmt 1 view .LVU181
 263:Core/Src/main.c ****   if (HAL_LTDC_ConfigLayer(&hltdc, &pLayerCfg, 1) != HAL_OK)
 554              		.loc 1 263 27 is_stmt 0 view .LVU182
 555 008a 8DF83630 		strb	r3, [sp, #54]
 264:Core/Src/main.c ****   {
 556              		.loc 1 264 3 is_stmt 1 view .LVU183
 264:Core/Src/main.c ****   {
 557              		.loc 1 264 7 is_stmt 0 view .LVU184
 558 008e 0122     		movs	r2, #1
 559 0090 01A9     		add	r1, sp, #4
 560 0092 0F48     		ldr	r0, .L29
 561 0094 FFF7FEFF 		bl	HAL_LTDC_ConfigLayer
 562              	.LVL14:
 264:Core/Src/main.c ****   {
 563              		.loc 1 264 6 discriminator 1 view .LVU185
 564 0098 18B9     		cbnz	r0, .L28
 565              	.LBB16:
 269:Core/Src/main.c ****     clut[i] = i << 16 | i << 8 | i; 
 566              		.loc 1 269 11 view .LVU186
 567 009a 0023     		movs	r3, #0
 568 009c 0BE0     		b	.L23
 569              	.L27:
 570              	.LBE16:
 247:Core/Src/main.c ****   }
 571              		.loc 1 247 5 is_stmt 1 view .LVU187
 572 009e FFF7FEFF 		bl	Error_Handler
 573              	.LVL15:
 574              	.L28:
 266:Core/Src/main.c ****   }
ARM GAS  /var/folders/l4/6w9kflz11csb_6qsyz46nv3c0000gp/T//cc9ksRSZ.s 			page 23


 575              		.loc 1 266 5 view .LVU188
 576 00a2 FFF7FEFF 		bl	Error_Handler
 577              	.LVL16:
 578              	.L24:
 579              	.LBB17:
 270:Core/Src/main.c ****   }
 580              		.loc 1 270 5 view .LVU189
 270:Core/Src/main.c ****   }
 581              		.loc 1 270 27 is_stmt 0 view .LVU190
 582 00a6 1A02     		lsls	r2, r3, #8
 270:Core/Src/main.c ****   }
 583              		.loc 1 270 23 view .LVU191
 584 00a8 42EA0342 		orr	r2, r2, r3, lsl #16
 270:Core/Src/main.c ****   }
 585              		.loc 1 270 32 view .LVU192
 586 00ac 1A43     		orrs	r2, r2, r3
 270:Core/Src/main.c ****   }
 587              		.loc 1 270 13 view .LVU193
 588 00ae 0B49     		ldr	r1, .L29+12
 589 00b0 41F82320 		str	r2, [r1, r3, lsl #2]
 269:Core/Src/main.c ****     clut[i] = i << 16 | i << 8 | i; 
 590              		.loc 1 269 29 is_stmt 1 discriminator 3 view .LVU194
 591 00b4 0133     		adds	r3, r3, #1
 592              	.LVL17:
 593              	.L23:
 269:Core/Src/main.c ****     clut[i] = i << 16 | i << 8 | i; 
 594              		.loc 1 269 21 discriminator 1 view .LVU195
 595 00b6 FF2B     		cmp	r3, #255
 596 00b8 F5DD     		ble	.L24
 597              	.LBE17:
 272:Core/Src/main.c ****   /* USER CODE END LTDC_Init 2 */
 598              		.loc 1 272 3 view .LVU196
 599 00ba 0023     		movs	r3, #0
 600              	.LVL18:
 272:Core/Src/main.c ****   /* USER CODE END LTDC_Init 2 */
 601              		.loc 1 272 3 is_stmt 0 view .LVU197
 602 00bc 4FF48072 		mov	r2, #256
 603 00c0 0649     		ldr	r1, .L29+12
 604 00c2 0348     		ldr	r0, .L29
 605 00c4 FFF7FEFF 		bl	HAL_LTDC_ConfigCLUT
 606              	.LVL19:
 275:Core/Src/main.c **** 
 607              		.loc 1 275 1 view .LVU198
 608 00c8 0FB0     		add	sp, sp, #60
 609              		.cfi_def_cfa_offset 4
 610              		@ sp needed
 611 00ca 5DF804FB 		ldr	pc, [sp], #4
 612              	.L30:
 613 00ce 00BF     		.align	2
 614              	.L29:
 615 00d0 00000000 		.word	hltdc
 616 00d4 00100050 		.word	1342181376
 617 00d8 00000000 		.word	strip_buffer1
 618 00dc 00000000 		.word	clut
 619              		.cfi_endproc
 620              	.LFE146:
 622              		.section	.text.SystemClock_Config,"ax",%progbits
ARM GAS  /var/folders/l4/6w9kflz11csb_6qsyz46nv3c0000gp/T//cc9ksRSZ.s 			page 24


 623              		.align	1
 624              		.global	SystemClock_Config
 625              		.syntax unified
 626              		.thumb
 627              		.thumb_func
 629              	SystemClock_Config:
 630              	.LFB145:
 157:Core/Src/main.c ****   RCC_OscInitTypeDef RCC_OscInitStruct = {0};
 631              		.loc 1 157 1 is_stmt 1 view -0
 632              		.cfi_startproc
 633              		@ args = 0, pretend = 0, frame = 112
 634              		@ frame_needed = 0, uses_anonymous_args = 0
 635 0000 00B5     		push	{lr}
 636              		.cfi_def_cfa_offset 4
 637              		.cfi_offset 14, -4
 638 0002 9DB0     		sub	sp, sp, #116
 639              		.cfi_def_cfa_offset 120
 158:Core/Src/main.c ****   RCC_ClkInitTypeDef RCC_ClkInitStruct = {0};
 640              		.loc 1 158 3 view .LVU200
 158:Core/Src/main.c ****   RCC_ClkInitTypeDef RCC_ClkInitStruct = {0};
 641              		.loc 1 158 22 is_stmt 0 view .LVU201
 642 0004 4C22     		movs	r2, #76
 643 0006 0021     		movs	r1, #0
 644 0008 09A8     		add	r0, sp, #36
 645 000a FFF7FEFF 		bl	memset
 646              	.LVL20:
 159:Core/Src/main.c **** 
 647              		.loc 1 159 3 is_stmt 1 view .LVU202
 159:Core/Src/main.c **** 
 648              		.loc 1 159 22 is_stmt 0 view .LVU203
 649 000e 2022     		movs	r2, #32
 650 0010 0021     		movs	r1, #0
 651 0012 01A8     		add	r0, sp, #4
 652 0014 FFF7FEFF 		bl	memset
 653              	.LVL21:
 163:Core/Src/main.c **** 
 654              		.loc 1 163 3 is_stmt 1 view .LVU204
 655 0018 0220     		movs	r0, #2
 656 001a FFF7FEFF 		bl	HAL_PWREx_ConfigSupply
 657              	.LVL22:
 167:Core/Src/main.c **** 
 658              		.loc 1 167 3 view .LVU205
 659              	.LBB18:
 167:Core/Src/main.c **** 
 660              		.loc 1 167 3 view .LVU206
 661 001e 0023     		movs	r3, #0
 662 0020 0093     		str	r3, [sp]
 167:Core/Src/main.c **** 
 663              		.loc 1 167 3 view .LVU207
 167:Core/Src/main.c **** 
 664              		.loc 1 167 3 discriminator 2 view .LVU208
 665 0022 264B     		ldr	r3, .L38
 666 0024 DA6A     		ldr	r2, [r3, #44]
 667 0026 22F00102 		bic	r2, r2, #1
 668 002a DA62     		str	r2, [r3, #44]
 167:Core/Src/main.c **** 
 669              		.loc 1 167 3 view .LVU209
ARM GAS  /var/folders/l4/6w9kflz11csb_6qsyz46nv3c0000gp/T//cc9ksRSZ.s 			page 25


 167:Core/Src/main.c **** 
 670              		.loc 1 167 3 is_stmt 0 discriminator 2 view .LVU210
 671 002c DB6A     		ldr	r3, [r3, #44]
 672 002e 03F00103 		and	r3, r3, #1
 673 0032 0093     		str	r3, [sp]
 167:Core/Src/main.c **** 
 674              		.loc 1 167 3 is_stmt 1 view .LVU211
 167:Core/Src/main.c **** 
 675              		.loc 1 167 3 is_stmt 0 discriminator 2 view .LVU212
 676 0034 224B     		ldr	r3, .L38+4
 677 0036 9A69     		ldr	r2, [r3, #24]
 678 0038 42F44042 		orr	r2, r2, #49152
 679 003c 9A61     		str	r2, [r3, #24]
 167:Core/Src/main.c **** 
 680              		.loc 1 167 3 is_stmt 1 view .LVU213
 167:Core/Src/main.c **** 
 681              		.loc 1 167 3 is_stmt 0 discriminator 2 view .LVU214
 682 003e 9B69     		ldr	r3, [r3, #24]
 683 0040 03F44043 		and	r3, r3, #49152
 684 0044 0093     		str	r3, [sp]
 167:Core/Src/main.c **** 
 685              		.loc 1 167 3 is_stmt 1 discriminator 4 view .LVU215
 686 0046 009B     		ldr	r3, [sp]
 687              	.LBE18:
 167:Core/Src/main.c **** 
 688              		.loc 1 167 3 view .LVU216
 169:Core/Src/main.c **** 
 689              		.loc 1 169 3 view .LVU217
 690              	.L32:
 169:Core/Src/main.c **** 
 691              		.loc 1 169 48 discriminator 1 view .LVU218
 169:Core/Src/main.c **** 
 692              		.loc 1 169 9 discriminator 1 view .LVU219
 169:Core/Src/main.c **** 
 693              		.loc 1 169 10 is_stmt 0 discriminator 1 view .LVU220
 694 0048 1D4B     		ldr	r3, .L38+4
 695 004a 9B69     		ldr	r3, [r3, #24]
 169:Core/Src/main.c **** 
 696              		.loc 1 169 9 discriminator 1 view .LVU221
 697 004c 13F4005F 		tst	r3, #8192
 698 0050 FAD0     		beq	.L32
 174:Core/Src/main.c ****   RCC_OscInitStruct.HSIState = RCC_HSI_DIV1;
 699              		.loc 1 174 3 is_stmt 1 view .LVU222
 174:Core/Src/main.c ****   RCC_OscInitStruct.HSIState = RCC_HSI_DIV1;
 700              		.loc 1 174 36 is_stmt 0 view .LVU223
 701 0052 0223     		movs	r3, #2
 702 0054 0993     		str	r3, [sp, #36]
 175:Core/Src/main.c ****   RCC_OscInitStruct.HSICalibrationValue = RCC_HSICALIBRATION_DEFAULT;
 703              		.loc 1 175 3 is_stmt 1 view .LVU224
 175:Core/Src/main.c ****   RCC_OscInitStruct.HSICalibrationValue = RCC_HSICALIBRATION_DEFAULT;
 704              		.loc 1 175 30 is_stmt 0 view .LVU225
 705 0056 0122     		movs	r2, #1
 706 0058 0C92     		str	r2, [sp, #48]
 176:Core/Src/main.c ****   RCC_OscInitStruct.PLL.PLLState = RCC_PLL_ON;
 707              		.loc 1 176 3 is_stmt 1 view .LVU226
 176:Core/Src/main.c ****   RCC_OscInitStruct.PLL.PLLState = RCC_PLL_ON;
 708              		.loc 1 176 41 is_stmt 0 view .LVU227
ARM GAS  /var/folders/l4/6w9kflz11csb_6qsyz46nv3c0000gp/T//cc9ksRSZ.s 			page 26


 709 005a 4022     		movs	r2, #64
 710 005c 0D92     		str	r2, [sp, #52]
 177:Core/Src/main.c ****   RCC_OscInitStruct.PLL.PLLSource = RCC_PLLSOURCE_HSI;
 711              		.loc 1 177 3 is_stmt 1 view .LVU228
 177:Core/Src/main.c ****   RCC_OscInitStruct.PLL.PLLSource = RCC_PLLSOURCE_HSI;
 712              		.loc 1 177 34 is_stmt 0 view .LVU229
 713 005e 1293     		str	r3, [sp, #72]
 178:Core/Src/main.c ****   RCC_OscInitStruct.PLL.PLLM = 32;
 714              		.loc 1 178 3 is_stmt 1 view .LVU230
 178:Core/Src/main.c ****   RCC_OscInitStruct.PLL.PLLM = 32;
 715              		.loc 1 178 35 is_stmt 0 view .LVU231
 716 0060 0022     		movs	r2, #0
 717 0062 1392     		str	r2, [sp, #76]
 179:Core/Src/main.c ****   RCC_OscInitStruct.PLL.PLLN = 400;
 718              		.loc 1 179 3 is_stmt 1 view .LVU232
 179:Core/Src/main.c ****   RCC_OscInitStruct.PLL.PLLN = 400;
 719              		.loc 1 179 30 is_stmt 0 view .LVU233
 720 0064 2021     		movs	r1, #32
 721 0066 1491     		str	r1, [sp, #80]
 180:Core/Src/main.c ****   RCC_OscInitStruct.PLL.PLLP = 2;
 722              		.loc 1 180 3 is_stmt 1 view .LVU234
 180:Core/Src/main.c ****   RCC_OscInitStruct.PLL.PLLP = 2;
 723              		.loc 1 180 30 is_stmt 0 view .LVU235
 724 0068 4FF4C871 		mov	r1, #400
 725 006c 1591     		str	r1, [sp, #84]
 181:Core/Src/main.c ****   RCC_OscInitStruct.PLL.PLLQ = 2;
 726              		.loc 1 181 3 is_stmt 1 view .LVU236
 181:Core/Src/main.c ****   RCC_OscInitStruct.PLL.PLLQ = 2;
 727              		.loc 1 181 30 is_stmt 0 view .LVU237
 728 006e 1693     		str	r3, [sp, #88]
 182:Core/Src/main.c ****   RCC_OscInitStruct.PLL.PLLR = 2;
 729              		.loc 1 182 3 is_stmt 1 view .LVU238
 182:Core/Src/main.c ****   RCC_OscInitStruct.PLL.PLLR = 2;
 730              		.loc 1 182 30 is_stmt 0 view .LVU239
 731 0070 1793     		str	r3, [sp, #92]
 183:Core/Src/main.c ****   RCC_OscInitStruct.PLL.PLLRGE = RCC_PLL1VCIRANGE_1;
 732              		.loc 1 183 3 is_stmt 1 view .LVU240
 183:Core/Src/main.c ****   RCC_OscInitStruct.PLL.PLLRGE = RCC_PLL1VCIRANGE_1;
 733              		.loc 1 183 30 is_stmt 0 view .LVU241
 734 0072 1893     		str	r3, [sp, #96]
 184:Core/Src/main.c ****   RCC_OscInitStruct.PLL.PLLVCOSEL = RCC_PLL1VCOWIDE;
 735              		.loc 1 184 3 is_stmt 1 view .LVU242
 184:Core/Src/main.c ****   RCC_OscInitStruct.PLL.PLLVCOSEL = RCC_PLL1VCOWIDE;
 736              		.loc 1 184 32 is_stmt 0 view .LVU243
 737 0074 0423     		movs	r3, #4
 738 0076 1993     		str	r3, [sp, #100]
 185:Core/Src/main.c ****   RCC_OscInitStruct.PLL.PLLFRACN = 0;
 739              		.loc 1 185 3 is_stmt 1 view .LVU244
 185:Core/Src/main.c ****   RCC_OscInitStruct.PLL.PLLFRACN = 0;
 740              		.loc 1 185 35 is_stmt 0 view .LVU245
 741 0078 1A92     		str	r2, [sp, #104]
 186:Core/Src/main.c ****   if (HAL_RCC_OscConfig(&RCC_OscInitStruct) != HAL_OK)
 742              		.loc 1 186 3 is_stmt 1 view .LVU246
 186:Core/Src/main.c ****   if (HAL_RCC_OscConfig(&RCC_OscInitStruct) != HAL_OK)
 743              		.loc 1 186 34 is_stmt 0 view .LVU247
 744 007a 1B92     		str	r2, [sp, #108]
 187:Core/Src/main.c ****   {
ARM GAS  /var/folders/l4/6w9kflz11csb_6qsyz46nv3c0000gp/T//cc9ksRSZ.s 			page 27


 745              		.loc 1 187 3 is_stmt 1 view .LVU248
 187:Core/Src/main.c ****   {
 746              		.loc 1 187 7 is_stmt 0 view .LVU249
 747 007c 09A8     		add	r0, sp, #36
 748 007e FFF7FEFF 		bl	HAL_RCC_OscConfig
 749              	.LVL23:
 187:Core/Src/main.c ****   {
 750              		.loc 1 187 6 discriminator 1 view .LVU250
 751 0082 B8B9     		cbnz	r0, .L36
 194:Core/Src/main.c ****                               |RCC_CLOCKTYPE_PCLK1|RCC_CLOCKTYPE_PCLK2
 752              		.loc 1 194 3 is_stmt 1 view .LVU251
 194:Core/Src/main.c ****                               |RCC_CLOCKTYPE_PCLK1|RCC_CLOCKTYPE_PCLK2
 753              		.loc 1 194 31 is_stmt 0 view .LVU252
 754 0084 3F23     		movs	r3, #63
 755 0086 0193     		str	r3, [sp, #4]
 197:Core/Src/main.c ****   RCC_ClkInitStruct.SYSCLKDivider = RCC_SYSCLK_DIV1;
 756              		.loc 1 197 3 is_stmt 1 view .LVU253
 197:Core/Src/main.c ****   RCC_ClkInitStruct.SYSCLKDivider = RCC_SYSCLK_DIV1;
 757              		.loc 1 197 34 is_stmt 0 view .LVU254
 758 0088 0323     		movs	r3, #3
 759 008a 0293     		str	r3, [sp, #8]
 198:Core/Src/main.c ****   RCC_ClkInitStruct.AHBCLKDivider = RCC_HCLK_DIV2;
 760              		.loc 1 198 3 is_stmt 1 view .LVU255
 198:Core/Src/main.c ****   RCC_ClkInitStruct.AHBCLKDivider = RCC_HCLK_DIV2;
 761              		.loc 1 198 35 is_stmt 0 view .LVU256
 762 008c 0023     		movs	r3, #0
 763 008e 0393     		str	r3, [sp, #12]
 199:Core/Src/main.c ****   RCC_ClkInitStruct.APB3CLKDivider = RCC_APB3_DIV4;
 764              		.loc 1 199 3 is_stmt 1 view .LVU257
 199:Core/Src/main.c ****   RCC_ClkInitStruct.APB3CLKDivider = RCC_APB3_DIV4;
 765              		.loc 1 199 35 is_stmt 0 view .LVU258
 766 0090 0823     		movs	r3, #8
 767 0092 0493     		str	r3, [sp, #16]
 200:Core/Src/main.c ****   RCC_ClkInitStruct.APB1CLKDivider = RCC_APB1_DIV4;
 768              		.loc 1 200 3 is_stmt 1 view .LVU259
 200:Core/Src/main.c ****   RCC_ClkInitStruct.APB1CLKDivider = RCC_APB1_DIV4;
 769              		.loc 1 200 36 is_stmt 0 view .LVU260
 770 0094 5023     		movs	r3, #80
 771 0096 0593     		str	r3, [sp, #20]
 201:Core/Src/main.c ****   RCC_ClkInitStruct.APB2CLKDivider = RCC_APB2_DIV2;
 772              		.loc 1 201 3 is_stmt 1 view .LVU261
 201:Core/Src/main.c ****   RCC_ClkInitStruct.APB2CLKDivider = RCC_APB2_DIV2;
 773              		.loc 1 201 36 is_stmt 0 view .LVU262
 774 0098 0693     		str	r3, [sp, #24]
 202:Core/Src/main.c ****   RCC_ClkInitStruct.APB4CLKDivider = RCC_APB4_DIV2;
 775              		.loc 1 202 3 is_stmt 1 view .LVU263
 202:Core/Src/main.c ****   RCC_ClkInitStruct.APB4CLKDivider = RCC_APB4_DIV2;
 776              		.loc 1 202 36 is_stmt 0 view .LVU264
 777 009a 4FF48063 		mov	r3, #1024
 778 009e 0793     		str	r3, [sp, #28]
 203:Core/Src/main.c **** 
 779              		.loc 1 203 3 is_stmt 1 view .LVU265
 203:Core/Src/main.c **** 
 780              		.loc 1 203 36 is_stmt 0 view .LVU266
 781 00a0 4023     		movs	r3, #64
 782 00a2 0893     		str	r3, [sp, #32]
 205:Core/Src/main.c ****   {
ARM GAS  /var/folders/l4/6w9kflz11csb_6qsyz46nv3c0000gp/T//cc9ksRSZ.s 			page 28


 783              		.loc 1 205 3 is_stmt 1 view .LVU267
 205:Core/Src/main.c ****   {
 784              		.loc 1 205 7 is_stmt 0 view .LVU268
 785 00a4 0221     		movs	r1, #2
 786 00a6 01A8     		add	r0, sp, #4
 787 00a8 FFF7FEFF 		bl	HAL_RCC_ClockConfig
 788              	.LVL24:
 205:Core/Src/main.c ****   {
 789              		.loc 1 205 6 discriminator 1 view .LVU269
 790 00ac 20B9     		cbnz	r0, .L37
 209:Core/Src/main.c **** 
 791              		.loc 1 209 1 view .LVU270
 792 00ae 1DB0     		add	sp, sp, #116
 793              		.cfi_remember_state
 794              		.cfi_def_cfa_offset 4
 795              		@ sp needed
 796 00b0 5DF804FB 		ldr	pc, [sp], #4
 797              	.L36:
 798              		.cfi_restore_state
 189:Core/Src/main.c ****   }
 799              		.loc 1 189 5 is_stmt 1 view .LVU271
 800 00b4 FFF7FEFF 		bl	Error_Handler
 801              	.LVL25:
 802              	.L37:
 207:Core/Src/main.c ****   }
 803              		.loc 1 207 5 view .LVU272
 804 00b8 FFF7FEFF 		bl	Error_Handler
 805              	.LVL26:
 806              	.L39:
 807              		.align	2
 808              	.L38:
 809 00bc 00040058 		.word	1476396032
 810 00c0 00480258 		.word	1476544512
 811              		.cfi_endproc
 812              	.LFE145:
 814              		.section	.text.main,"ax",%progbits
 815              		.align	1
 816              		.global	main
 817              		.syntax unified
 818              		.thumb
 819              		.thumb_func
 821              	main:
 822              	.LFB144:
 100:Core/Src/main.c **** 
 823              		.loc 1 100 1 view -0
 824              		.cfi_startproc
 825              		@ Volatile: function does not return.
 826              		@ args = 0, pretend = 0, frame = 0
 827              		@ frame_needed = 0, uses_anonymous_args = 0
 828 0000 08B5     		push	{r3, lr}
 829              		.cfi_def_cfa_offset 8
 830              		.cfi_offset 3, -8
 831              		.cfi_offset 14, -4
 107:Core/Src/main.c **** 
 832              		.loc 1 107 3 view .LVU274
 833 0002 FFF7FEFF 		bl	MPU_Config
 834              	.LVL27:
ARM GAS  /var/folders/l4/6w9kflz11csb_6qsyz46nv3c0000gp/T//cc9ksRSZ.s 			page 29


 112:Core/Src/main.c **** 
 835              		.loc 1 112 3 view .LVU275
 836 0006 FFF7FEFF 		bl	HAL_Init
 837              	.LVL28:
 119:Core/Src/main.c **** 
 838              		.loc 1 119 3 view .LVU276
 839 000a FFF7FEFF 		bl	SystemClock_Config
 840              	.LVL29:
 126:Core/Src/main.c ****   MX_LTDC_Init();
 841              		.loc 1 126 3 view .LVU277
 842 000e FFF7FEFF 		bl	MX_GPIO_Init
 843              	.LVL30:
 127:Core/Src/main.c ****   /* USER CODE BEGIN 2 */
 844              		.loc 1 127 3 view .LVU278
 845 0012 FFF7FEFF 		bl	MX_LTDC_Init
 846              	.LVL31:
 131:Core/Src/main.c ****   HAL_LTDC_SetAddress(&hltdc, (uint32_t)strip_buffer1, LTDC_LAYER_1);
 847              		.loc 1 131 3 view .LVU279
 848 0016 0A4D     		ldr	r5, .L43
 849 0018 2846     		mov	r0, r5
 850 001a FFF7FEFF 		bl	FillStrip
 851              	.LVL32:
 132:Core/Src/main.c **** 
 852              		.loc 1 132 3 view .LVU280
 853 001e 094C     		ldr	r4, .L43+4
 854 0020 0022     		movs	r2, #0
 855 0022 2946     		mov	r1, r5
 856 0024 2046     		mov	r0, r4
 857 0026 FFF7FEFF 		bl	HAL_LTDC_SetAddress
 858              	.LVL33:
 136:Core/Src/main.c ****   HAL_LTDC_Reload(&hltdc, LTDC_RELOAD_IMMEDIATE);
 859              		.loc 1 136 3 view .LVU281
 860 002a 4FF4C871 		mov	r1, #400
 861 002e 2046     		mov	r0, r4
 862 0030 FFF7FEFF 		bl	HAL_LTDC_ProgramLineEvent
 863              	.LVL34:
 137:Core/Src/main.c **** 
 864              		.loc 1 137 3 view .LVU282
 865 0034 0121     		movs	r1, #1
 866 0036 2046     		mov	r0, r4
 867 0038 FFF7FEFF 		bl	HAL_LTDC_Reload
 868              	.LVL35:
 869              	.L41:
 143:Core/Src/main.c ****   {
 870              		.loc 1 143 3 view .LVU283
 146:Core/Src/main.c ****     /* USER CODE BEGIN 3 */
 871              		.loc 1 146 5 discriminator 1 view .LVU284
 872              		.syntax unified
 873              	@ 146 "Core/Src/main.c" 1
 874 003c 30BF     		wfi
 875              	@ 0 "" 2
 143:Core/Src/main.c ****   {
 876              		.loc 1 143 9 view .LVU285
 877              		.thumb
 878              		.syntax unified
 879 003e FDE7     		b	.L41
 880              	.L44:
ARM GAS  /var/folders/l4/6w9kflz11csb_6qsyz46nv3c0000gp/T//cc9ksRSZ.s 			page 30


 881              		.align	2
 882              	.L43:
 883 0040 00000000 		.word	strip_buffer1
 884 0044 00000000 		.word	hltdc
 885              		.cfi_endproc
 886              	.LFE144:
 888              		.global	active_buffer
 889              		.section	.bss.active_buffer,"aw",%nobits
 892              	active_buffer:
 893 0000 00       		.space	1
 894              		.global	need_fill
 895              		.section	.bss.need_fill,"aw",%nobits
 898              	need_fill:
 899 0000 00       		.space	1
 900              		.global	current_strip
 901              		.section	.bss.current_strip,"aw",%nobits
 902              		.align	2
 905              	current_strip:
 906 0000 00000000 		.space	4
 907              		.section	.video_buffers,"aw"
 908              		.align	5
 911              	strip_buffer1:
 912 0000 00000000 		.space	512000
 912      00000000 
 912      00000000 
 912      00000000 
 912      00000000 
 913              		.global	clut
 914              		.section	.bss.clut,"aw",%nobits
 915              		.align	2
 918              	clut:
 919 0000 00000000 		.space	1024
 919      00000000 
 919      00000000 
 919      00000000 
 919      00000000 
 920              		.global	hltdc
 921              		.section	.bss.hltdc,"aw",%nobits
 922              		.align	2
 925              	hltdc:
 926 0000 00000000 		.space	168
 926      00000000 
 926      00000000 
 926      00000000 
 926      00000000 
 927              		.text
 928              	.Letext0:
 929              		.file 3 "/Users/rasil/Library/Application Support/Code/User/globalStorage/bmd.stm32-for-vscode/@xp
 930              		.file 4 "/Users/rasil/Library/Application Support/Code/User/globalStorage/bmd.stm32-for-vscode/@xp
 931              		.file 5 "Drivers/CMSIS/Device/ST/STM32H7xx/Include/stm32h743xx.h"
 932              		.file 6 "Drivers/STM32H7xx_HAL_Driver/Inc/stm32h7xx_hal_def.h"
 933              		.file 7 "Drivers/STM32H7xx_HAL_Driver/Inc/stm32h7xx_hal_rcc.h"
 934              		.file 8 "Drivers/STM32H7xx_HAL_Driver/Inc/stm32h7xx_hal_cortex.h"
 935              		.file 9 "Drivers/STM32H7xx_HAL_Driver/Inc/stm32h7xx_hal_ltdc.h"
 936              		.file 10 "Drivers/STM32H7xx_HAL_Driver/Inc/stm32h7xx_hal_pwr_ex.h"
 937              		.file 11 "Drivers/STM32H7xx_HAL_Driver/Inc/stm32h7xx_hal.h"
 938              		.file 12 "<built-in>"
ARM GAS  /var/folders/l4/6w9kflz11csb_6qsyz46nv3c0000gp/T//cc9ksRSZ.s 			page 31


ARM GAS  /var/folders/l4/6w9kflz11csb_6qsyz46nv3c0000gp/T//cc9ksRSZ.s 			page 32

