ARM GAS  /var/folders/l4/6w9kflz11csb_6qsyz46nv3c0000gp/T//ccfEea6P.s 			page 1


   1              		.cpu cortex-m7
   2              		.arch armv7e-m
   3              		.fpu fpv5-d16
   4              		.eabi_attribute 28, 1
   5              		.eabi_attribute 20, 1
   6              		.eabi_attribute 21, 1
   7              		.eabi_attribute 23, 3
   8              		.eabi_attribute 24, 1
   9              		.eabi_attribute 25, 1
  10              		.eabi_attribute 26, 1
  11              		.eabi_attribute 30, 1
  12              		.eabi_attribute 34, 1
  13              		.eabi_attribute 18, 4
  14              		.file	"stm32h7xx_hal_msp.c"
  15              		.text
  16              	.Ltext0:
  17              		.cfi_sections	.debug_frame
  18              		.file 1 "Core/Src/stm32h7xx_hal_msp.c"
  19              		.section	.text.HAL_MspInit,"ax",%progbits
  20              		.align	1
  21              		.global	HAL_MspInit
  22              		.syntax unified
  23              		.thumb
  24              		.thumb_func
  26              	HAL_MspInit:
  27              	.LFB144:
   1:Core/Src/stm32h7xx_hal_msp.c **** /* USER CODE BEGIN Header */
   2:Core/Src/stm32h7xx_hal_msp.c **** /**
   3:Core/Src/stm32h7xx_hal_msp.c ****   ******************************************************************************
   4:Core/Src/stm32h7xx_hal_msp.c ****   * @file         stm32h7xx_hal_msp.c
   5:Core/Src/stm32h7xx_hal_msp.c ****   * @brief        This file provides code for the MSP Initialization
   6:Core/Src/stm32h7xx_hal_msp.c ****   *               and de-Initialization codes.
   7:Core/Src/stm32h7xx_hal_msp.c ****   ******************************************************************************
   8:Core/Src/stm32h7xx_hal_msp.c ****   * @attention
   9:Core/Src/stm32h7xx_hal_msp.c ****   *
  10:Core/Src/stm32h7xx_hal_msp.c ****   * Copyright (c) 2026 STMicroelectronics.
  11:Core/Src/stm32h7xx_hal_msp.c ****   * All rights reserved.
  12:Core/Src/stm32h7xx_hal_msp.c ****   *
  13:Core/Src/stm32h7xx_hal_msp.c ****   * This software is licensed under terms that can be found in the LICENSE file
  14:Core/Src/stm32h7xx_hal_msp.c ****   * in the root directory of this software component.
  15:Core/Src/stm32h7xx_hal_msp.c ****   * If no LICENSE file comes with this software, it is provided AS-IS.
  16:Core/Src/stm32h7xx_hal_msp.c ****   *
  17:Core/Src/stm32h7xx_hal_msp.c ****   ******************************************************************************
  18:Core/Src/stm32h7xx_hal_msp.c ****   */
  19:Core/Src/stm32h7xx_hal_msp.c **** /* USER CODE END Header */
  20:Core/Src/stm32h7xx_hal_msp.c **** 
  21:Core/Src/stm32h7xx_hal_msp.c **** /* Includes ------------------------------------------------------------------*/
  22:Core/Src/stm32h7xx_hal_msp.c **** #include "main.h"
  23:Core/Src/stm32h7xx_hal_msp.c **** /* USER CODE BEGIN Includes */
  24:Core/Src/stm32h7xx_hal_msp.c **** 
  25:Core/Src/stm32h7xx_hal_msp.c **** /* USER CODE END Includes */
  26:Core/Src/stm32h7xx_hal_msp.c **** 
  27:Core/Src/stm32h7xx_hal_msp.c **** /* Private typedef -----------------------------------------------------------*/
  28:Core/Src/stm32h7xx_hal_msp.c **** /* USER CODE BEGIN TD */
  29:Core/Src/stm32h7xx_hal_msp.c **** 
  30:Core/Src/stm32h7xx_hal_msp.c **** /* USER CODE END TD */
  31:Core/Src/stm32h7xx_hal_msp.c **** 
ARM GAS  /var/folders/l4/6w9kflz11csb_6qsyz46nv3c0000gp/T//ccfEea6P.s 			page 2


  32:Core/Src/stm32h7xx_hal_msp.c **** /* Private define ------------------------------------------------------------*/
  33:Core/Src/stm32h7xx_hal_msp.c **** /* USER CODE BEGIN Define */
  34:Core/Src/stm32h7xx_hal_msp.c **** 
  35:Core/Src/stm32h7xx_hal_msp.c **** /* USER CODE END Define */
  36:Core/Src/stm32h7xx_hal_msp.c **** 
  37:Core/Src/stm32h7xx_hal_msp.c **** /* Private macro -------------------------------------------------------------*/
  38:Core/Src/stm32h7xx_hal_msp.c **** /* USER CODE BEGIN Macro */
  39:Core/Src/stm32h7xx_hal_msp.c **** 
  40:Core/Src/stm32h7xx_hal_msp.c **** /* USER CODE END Macro */
  41:Core/Src/stm32h7xx_hal_msp.c **** 
  42:Core/Src/stm32h7xx_hal_msp.c **** /* Private variables ---------------------------------------------------------*/
  43:Core/Src/stm32h7xx_hal_msp.c **** /* USER CODE BEGIN PV */
  44:Core/Src/stm32h7xx_hal_msp.c **** 
  45:Core/Src/stm32h7xx_hal_msp.c **** /* USER CODE END PV */
  46:Core/Src/stm32h7xx_hal_msp.c **** 
  47:Core/Src/stm32h7xx_hal_msp.c **** /* Private function prototypes -----------------------------------------------*/
  48:Core/Src/stm32h7xx_hal_msp.c **** /* USER CODE BEGIN PFP */
  49:Core/Src/stm32h7xx_hal_msp.c **** 
  50:Core/Src/stm32h7xx_hal_msp.c **** /* USER CODE END PFP */
  51:Core/Src/stm32h7xx_hal_msp.c **** 
  52:Core/Src/stm32h7xx_hal_msp.c **** /* External functions --------------------------------------------------------*/
  53:Core/Src/stm32h7xx_hal_msp.c **** /* USER CODE BEGIN ExternalFunctions */
  54:Core/Src/stm32h7xx_hal_msp.c **** 
  55:Core/Src/stm32h7xx_hal_msp.c **** /* USER CODE END ExternalFunctions */
  56:Core/Src/stm32h7xx_hal_msp.c **** 
  57:Core/Src/stm32h7xx_hal_msp.c **** /* USER CODE BEGIN 0 */
  58:Core/Src/stm32h7xx_hal_msp.c **** 
  59:Core/Src/stm32h7xx_hal_msp.c **** /* USER CODE END 0 */
  60:Core/Src/stm32h7xx_hal_msp.c **** /**
  61:Core/Src/stm32h7xx_hal_msp.c ****   * Initializes the Global MSP.
  62:Core/Src/stm32h7xx_hal_msp.c ****   */
  63:Core/Src/stm32h7xx_hal_msp.c **** void HAL_MspInit(void)
  64:Core/Src/stm32h7xx_hal_msp.c **** {
  28              		.loc 1 64 1 view -0
  29              		.cfi_startproc
  30              		@ args = 0, pretend = 0, frame = 8
  31              		@ frame_needed = 0, uses_anonymous_args = 0
  32              		@ link register save eliminated.
  33 0000 82B0     		sub	sp, sp, #8
  34              		.cfi_def_cfa_offset 8
  65:Core/Src/stm32h7xx_hal_msp.c **** 
  66:Core/Src/stm32h7xx_hal_msp.c ****   /* USER CODE BEGIN MspInit 0 */
  67:Core/Src/stm32h7xx_hal_msp.c **** 
  68:Core/Src/stm32h7xx_hal_msp.c ****   /* USER CODE END MspInit 0 */
  69:Core/Src/stm32h7xx_hal_msp.c **** 
  70:Core/Src/stm32h7xx_hal_msp.c ****   __HAL_RCC_SYSCFG_CLK_ENABLE();
  35              		.loc 1 70 3 view .LVU1
  36              	.LBB2:
  37              		.loc 1 70 3 view .LVU2
  38              		.loc 1 70 3 view .LVU3
  39 0002 074B     		ldr	r3, .L3
  40 0004 D3F8F420 		ldr	r2, [r3, #244]
  41 0008 42F00202 		orr	r2, r2, #2
  42 000c C3F8F420 		str	r2, [r3, #244]
  43              		.loc 1 70 3 view .LVU4
  44 0010 D3F8F430 		ldr	r3, [r3, #244]
  45 0014 03F00203 		and	r3, r3, #2
ARM GAS  /var/folders/l4/6w9kflz11csb_6qsyz46nv3c0000gp/T//ccfEea6P.s 			page 3


  46 0018 0193     		str	r3, [sp, #4]
  47              		.loc 1 70 3 view .LVU5
  48 001a 019B     		ldr	r3, [sp, #4]
  49              	.LBE2:
  50              		.loc 1 70 3 view .LVU6
  71:Core/Src/stm32h7xx_hal_msp.c **** 
  72:Core/Src/stm32h7xx_hal_msp.c ****   /* System interrupt init*/
  73:Core/Src/stm32h7xx_hal_msp.c **** 
  74:Core/Src/stm32h7xx_hal_msp.c ****   /* USER CODE BEGIN MspInit 1 */
  75:Core/Src/stm32h7xx_hal_msp.c **** 
  76:Core/Src/stm32h7xx_hal_msp.c ****   /* USER CODE END MspInit 1 */
  77:Core/Src/stm32h7xx_hal_msp.c **** }
  51              		.loc 1 77 1 is_stmt 0 view .LVU7
  52 001c 02B0     		add	sp, sp, #8
  53              		.cfi_def_cfa_offset 0
  54              		@ sp needed
  55 001e 7047     		bx	lr
  56              	.L4:
  57              		.align	2
  58              	.L3:
  59 0020 00440258 		.word	1476543488
  60              		.cfi_endproc
  61              	.LFE144:
  63              		.section	.text.HAL_LTDC_MspInit,"ax",%progbits
  64              		.align	1
  65              		.global	HAL_LTDC_MspInit
  66              		.syntax unified
  67              		.thumb
  68              		.thumb_func
  70              	HAL_LTDC_MspInit:
  71              	.LVL0:
  72              	.LFB145:
  78:Core/Src/stm32h7xx_hal_msp.c **** 
  79:Core/Src/stm32h7xx_hal_msp.c **** /**
  80:Core/Src/stm32h7xx_hal_msp.c ****   * @brief LTDC MSP Initialization
  81:Core/Src/stm32h7xx_hal_msp.c ****   * This function configures the hardware resources used in this example
  82:Core/Src/stm32h7xx_hal_msp.c ****   * @param hltdc: LTDC handle pointer
  83:Core/Src/stm32h7xx_hal_msp.c ****   * @retval None
  84:Core/Src/stm32h7xx_hal_msp.c ****   */
  85:Core/Src/stm32h7xx_hal_msp.c **** void HAL_LTDC_MspInit(LTDC_HandleTypeDef* hltdc)
  86:Core/Src/stm32h7xx_hal_msp.c **** {
  73              		.loc 1 86 1 is_stmt 1 view -0
  74              		.cfi_startproc
  75              		@ args = 0, pretend = 0, frame = 248
  76              		@ frame_needed = 0, uses_anonymous_args = 0
  77              		.loc 1 86 1 is_stmt 0 view .LVU9
  78 0000 2DE9F043 		push	{r4, r5, r6, r7, r8, r9, lr}
  79              		.cfi_def_cfa_offset 28
  80              		.cfi_offset 4, -28
  81              		.cfi_offset 5, -24
  82              		.cfi_offset 6, -20
  83              		.cfi_offset 7, -16
  84              		.cfi_offset 8, -12
  85              		.cfi_offset 9, -8
  86              		.cfi_offset 14, -4
  87 0004 BFB0     		sub	sp, sp, #252
  88              		.cfi_def_cfa_offset 280
ARM GAS  /var/folders/l4/6w9kflz11csb_6qsyz46nv3c0000gp/T//ccfEea6P.s 			page 4


  89 0006 0446     		mov	r4, r0
  87:Core/Src/stm32h7xx_hal_msp.c ****   GPIO_InitTypeDef GPIO_InitStruct = {0};
  90              		.loc 1 87 3 is_stmt 1 view .LVU10
  91              		.loc 1 87 20 is_stmt 0 view .LVU11
  92 0008 0021     		movs	r1, #0
  93 000a 3991     		str	r1, [sp, #228]
  94 000c 3A91     		str	r1, [sp, #232]
  95 000e 3B91     		str	r1, [sp, #236]
  96 0010 3C91     		str	r1, [sp, #240]
  97 0012 3D91     		str	r1, [sp, #244]
  88:Core/Src/stm32h7xx_hal_msp.c ****   RCC_PeriphCLKInitTypeDef PeriphClkInitStruct = {0};
  98              		.loc 1 88 3 is_stmt 1 view .LVU12
  99              		.loc 1 88 28 is_stmt 0 view .LVU13
 100 0014 C022     		movs	r2, #192
 101 0016 08A8     		add	r0, sp, #32
 102              	.LVL1:
 103              		.loc 1 88 28 view .LVU14
 104 0018 FFF7FEFF 		bl	memset
 105              	.LVL2:
  89:Core/Src/stm32h7xx_hal_msp.c ****   if(hltdc->Instance==LTDC)
 106              		.loc 1 89 3 is_stmt 1 view .LVU15
 107              		.loc 1 89 11 is_stmt 0 view .LVU16
 108 001c 2268     		ldr	r2, [r4]
 109              		.loc 1 89 5 view .LVU17
 110 001e 754B     		ldr	r3, .L11
 111 0020 9A42     		cmp	r2, r3
 112 0022 02D0     		beq	.L9
 113              	.LVL3:
 114              	.L5:
  90:Core/Src/stm32h7xx_hal_msp.c ****   {
  91:Core/Src/stm32h7xx_hal_msp.c ****     /* USER CODE BEGIN LTDC_MspInit 0 */
  92:Core/Src/stm32h7xx_hal_msp.c **** 
  93:Core/Src/stm32h7xx_hal_msp.c ****     /* USER CODE END LTDC_MspInit 0 */
  94:Core/Src/stm32h7xx_hal_msp.c **** 
  95:Core/Src/stm32h7xx_hal_msp.c ****   /** Initializes the peripherals clock
  96:Core/Src/stm32h7xx_hal_msp.c ****   */
  97:Core/Src/stm32h7xx_hal_msp.c ****     PeriphClkInitStruct.PeriphClockSelection = RCC_PERIPHCLK_LTDC;
  98:Core/Src/stm32h7xx_hal_msp.c ****     PeriphClkInitStruct.PLL3.PLL3M = 1;
  99:Core/Src/stm32h7xx_hal_msp.c ****     PeriphClkInitStruct.PLL3.PLL3N = 4;
 100:Core/Src/stm32h7xx_hal_msp.c ****     PeriphClkInitStruct.PLL3.PLL3P = 2;
 101:Core/Src/stm32h7xx_hal_msp.c ****     PeriphClkInitStruct.PLL3.PLL3Q = 2;
 102:Core/Src/stm32h7xx_hal_msp.c ****     PeriphClkInitStruct.PLL3.PLL3R = 26;
 103:Core/Src/stm32h7xx_hal_msp.c ****     PeriphClkInitStruct.PLL3.PLL3RGE = RCC_PLL3VCIRANGE_3;
 104:Core/Src/stm32h7xx_hal_msp.c ****     PeriphClkInitStruct.PLL3.PLL3VCOSEL = RCC_PLL3VCOWIDE;
 105:Core/Src/stm32h7xx_hal_msp.c ****     PeriphClkInitStruct.PLL3.PLL3FRACN = 512.0;
 106:Core/Src/stm32h7xx_hal_msp.c ****     if (HAL_RCCEx_PeriphCLKConfig(&PeriphClkInitStruct) != HAL_OK)
 107:Core/Src/stm32h7xx_hal_msp.c ****     {
 108:Core/Src/stm32h7xx_hal_msp.c ****       Error_Handler();
 109:Core/Src/stm32h7xx_hal_msp.c ****     }
 110:Core/Src/stm32h7xx_hal_msp.c **** 
 111:Core/Src/stm32h7xx_hal_msp.c ****     /* Peripheral clock enable */
 112:Core/Src/stm32h7xx_hal_msp.c ****     __HAL_RCC_LTDC_CLK_ENABLE();
 113:Core/Src/stm32h7xx_hal_msp.c **** 
 114:Core/Src/stm32h7xx_hal_msp.c ****     __HAL_RCC_GPIOE_CLK_ENABLE();
 115:Core/Src/stm32h7xx_hal_msp.c ****     __HAL_RCC_GPIOF_CLK_ENABLE();
 116:Core/Src/stm32h7xx_hal_msp.c ****     __HAL_RCC_GPIOC_CLK_ENABLE();
 117:Core/Src/stm32h7xx_hal_msp.c ****     __HAL_RCC_GPIOA_CLK_ENABLE();
ARM GAS  /var/folders/l4/6w9kflz11csb_6qsyz46nv3c0000gp/T//ccfEea6P.s 			page 5


 118:Core/Src/stm32h7xx_hal_msp.c ****     __HAL_RCC_GPIOB_CLK_ENABLE();
 119:Core/Src/stm32h7xx_hal_msp.c ****     __HAL_RCC_GPIOD_CLK_ENABLE();
 120:Core/Src/stm32h7xx_hal_msp.c ****     __HAL_RCC_GPIOG_CLK_ENABLE();
 121:Core/Src/stm32h7xx_hal_msp.c ****     /**LTDC GPIO Configuration
 122:Core/Src/stm32h7xx_hal_msp.c ****     PE4     ------> LTDC_B0
 123:Core/Src/stm32h7xx_hal_msp.c ****     PE5     ------> LTDC_G0
 124:Core/Src/stm32h7xx_hal_msp.c ****     PE6     ------> LTDC_G1
 125:Core/Src/stm32h7xx_hal_msp.c ****     PF10     ------> LTDC_DE
 126:Core/Src/stm32h7xx_hal_msp.c ****     PC0     ------> LTDC_R5
 127:Core/Src/stm32h7xx_hal_msp.c ****     PA1     ------> LTDC_R2
 128:Core/Src/stm32h7xx_hal_msp.c ****     PA2     ------> LTDC_R1
 129:Core/Src/stm32h7xx_hal_msp.c ****     PA3     ------> LTDC_B5
 130:Core/Src/stm32h7xx_hal_msp.c ****     PA4     ------> LTDC_VSYNC
 131:Core/Src/stm32h7xx_hal_msp.c ****     PA5     ------> LTDC_R4
 132:Core/Src/stm32h7xx_hal_msp.c ****     PA6     ------> LTDC_G2
 133:Core/Src/stm32h7xx_hal_msp.c ****     PB0     ------> LTDC_R3
 134:Core/Src/stm32h7xx_hal_msp.c ****     PB1     ------> LTDC_R6
 135:Core/Src/stm32h7xx_hal_msp.c ****     PE11     ------> LTDC_G3
 136:Core/Src/stm32h7xx_hal_msp.c ****     PE12     ------> LTDC_B4
 137:Core/Src/stm32h7xx_hal_msp.c ****     PE14     ------> LTDC_CLK
 138:Core/Src/stm32h7xx_hal_msp.c ****     PE15     ------> LTDC_R7
 139:Core/Src/stm32h7xx_hal_msp.c ****     PB10     ------> LTDC_G4
 140:Core/Src/stm32h7xx_hal_msp.c ****     PB11     ------> LTDC_G5
 141:Core/Src/stm32h7xx_hal_msp.c ****     PD10     ------> LTDC_B3
 142:Core/Src/stm32h7xx_hal_msp.c ****     PG8     ------> LTDC_G7
 143:Core/Src/stm32h7xx_hal_msp.c ****     PC6     ------> LTDC_HSYNC
 144:Core/Src/stm32h7xx_hal_msp.c ****     PC7     ------> LTDC_G6
 145:Core/Src/stm32h7xx_hal_msp.c ****     PC9     ------> LTDC_B2
 146:Core/Src/stm32h7xx_hal_msp.c ****     PA10     ------> LTDC_B1
 147:Core/Src/stm32h7xx_hal_msp.c ****     PG13     ------> LTDC_R0
 148:Core/Src/stm32h7xx_hal_msp.c ****     PB8     ------> LTDC_B6
 149:Core/Src/stm32h7xx_hal_msp.c ****     PB9     ------> LTDC_B7
 150:Core/Src/stm32h7xx_hal_msp.c ****     */
 151:Core/Src/stm32h7xx_hal_msp.c ****     GPIO_InitStruct.Pin = GPIO_PIN_4|GPIO_PIN_5|GPIO_PIN_6|GPIO_PIN_11
 152:Core/Src/stm32h7xx_hal_msp.c ****                           |GPIO_PIN_12|GPIO_PIN_14|GPIO_PIN_15;
 153:Core/Src/stm32h7xx_hal_msp.c ****     GPIO_InitStruct.Mode = GPIO_MODE_AF_PP;
 154:Core/Src/stm32h7xx_hal_msp.c ****     GPIO_InitStruct.Pull = GPIO_NOPULL;
 155:Core/Src/stm32h7xx_hal_msp.c ****     GPIO_InitStruct.Speed = GPIO_SPEED_FREQ_LOW;
 156:Core/Src/stm32h7xx_hal_msp.c ****     GPIO_InitStruct.Alternate = GPIO_AF14_LTDC;
 157:Core/Src/stm32h7xx_hal_msp.c ****     HAL_GPIO_Init(GPIOE, &GPIO_InitStruct);
 158:Core/Src/stm32h7xx_hal_msp.c **** 
 159:Core/Src/stm32h7xx_hal_msp.c ****     GPIO_InitStruct.Pin = GPIO_PIN_10;
 160:Core/Src/stm32h7xx_hal_msp.c ****     GPIO_InitStruct.Mode = GPIO_MODE_AF_PP;
 161:Core/Src/stm32h7xx_hal_msp.c ****     GPIO_InitStruct.Pull = GPIO_NOPULL;
 162:Core/Src/stm32h7xx_hal_msp.c ****     GPIO_InitStruct.Speed = GPIO_SPEED_FREQ_LOW;
 163:Core/Src/stm32h7xx_hal_msp.c ****     GPIO_InitStruct.Alternate = GPIO_AF14_LTDC;
 164:Core/Src/stm32h7xx_hal_msp.c ****     HAL_GPIO_Init(GPIOF, &GPIO_InitStruct);
 165:Core/Src/stm32h7xx_hal_msp.c **** 
 166:Core/Src/stm32h7xx_hal_msp.c ****     GPIO_InitStruct.Pin = GPIO_PIN_0|GPIO_PIN_6|GPIO_PIN_7|GPIO_PIN_9;
 167:Core/Src/stm32h7xx_hal_msp.c ****     GPIO_InitStruct.Mode = GPIO_MODE_AF_PP;
 168:Core/Src/stm32h7xx_hal_msp.c ****     GPIO_InitStruct.Pull = GPIO_NOPULL;
 169:Core/Src/stm32h7xx_hal_msp.c ****     GPIO_InitStruct.Speed = GPIO_SPEED_FREQ_LOW;
 170:Core/Src/stm32h7xx_hal_msp.c ****     GPIO_InitStruct.Alternate = GPIO_AF14_LTDC;
 171:Core/Src/stm32h7xx_hal_msp.c ****     HAL_GPIO_Init(GPIOC, &GPIO_InitStruct);
 172:Core/Src/stm32h7xx_hal_msp.c **** 
 173:Core/Src/stm32h7xx_hal_msp.c ****     GPIO_InitStruct.Pin = GPIO_PIN_1|GPIO_PIN_2|GPIO_PIN_3|GPIO_PIN_4
 174:Core/Src/stm32h7xx_hal_msp.c ****                           |GPIO_PIN_5|GPIO_PIN_6|GPIO_PIN_10;
ARM GAS  /var/folders/l4/6w9kflz11csb_6qsyz46nv3c0000gp/T//ccfEea6P.s 			page 6


 175:Core/Src/stm32h7xx_hal_msp.c ****     GPIO_InitStruct.Mode = GPIO_MODE_AF_PP;
 176:Core/Src/stm32h7xx_hal_msp.c ****     GPIO_InitStruct.Pull = GPIO_NOPULL;
 177:Core/Src/stm32h7xx_hal_msp.c ****     GPIO_InitStruct.Speed = GPIO_SPEED_FREQ_LOW;
 178:Core/Src/stm32h7xx_hal_msp.c ****     GPIO_InitStruct.Alternate = GPIO_AF14_LTDC;
 179:Core/Src/stm32h7xx_hal_msp.c ****     HAL_GPIO_Init(GPIOA, &GPIO_InitStruct);
 180:Core/Src/stm32h7xx_hal_msp.c **** 
 181:Core/Src/stm32h7xx_hal_msp.c ****     GPIO_InitStruct.Pin = GPIO_PIN_0|GPIO_PIN_1;
 182:Core/Src/stm32h7xx_hal_msp.c ****     GPIO_InitStruct.Mode = GPIO_MODE_AF_PP;
 183:Core/Src/stm32h7xx_hal_msp.c ****     GPIO_InitStruct.Pull = GPIO_NOPULL;
 184:Core/Src/stm32h7xx_hal_msp.c ****     GPIO_InitStruct.Speed = GPIO_SPEED_FREQ_LOW;
 185:Core/Src/stm32h7xx_hal_msp.c ****     GPIO_InitStruct.Alternate = GPIO_AF9_LTDC;
 186:Core/Src/stm32h7xx_hal_msp.c ****     HAL_GPIO_Init(GPIOB, &GPIO_InitStruct);
 187:Core/Src/stm32h7xx_hal_msp.c **** 
 188:Core/Src/stm32h7xx_hal_msp.c ****     GPIO_InitStruct.Pin = GPIO_PIN_10|GPIO_PIN_11|GPIO_PIN_8|GPIO_PIN_9;
 189:Core/Src/stm32h7xx_hal_msp.c ****     GPIO_InitStruct.Mode = GPIO_MODE_AF_PP;
 190:Core/Src/stm32h7xx_hal_msp.c ****     GPIO_InitStruct.Pull = GPIO_NOPULL;
 191:Core/Src/stm32h7xx_hal_msp.c ****     GPIO_InitStruct.Speed = GPIO_SPEED_FREQ_LOW;
 192:Core/Src/stm32h7xx_hal_msp.c ****     GPIO_InitStruct.Alternate = GPIO_AF14_LTDC;
 193:Core/Src/stm32h7xx_hal_msp.c ****     HAL_GPIO_Init(GPIOB, &GPIO_InitStruct);
 194:Core/Src/stm32h7xx_hal_msp.c **** 
 195:Core/Src/stm32h7xx_hal_msp.c ****     GPIO_InitStruct.Pin = GPIO_PIN_10;
 196:Core/Src/stm32h7xx_hal_msp.c ****     GPIO_InitStruct.Mode = GPIO_MODE_AF_PP;
 197:Core/Src/stm32h7xx_hal_msp.c ****     GPIO_InitStruct.Pull = GPIO_NOPULL;
 198:Core/Src/stm32h7xx_hal_msp.c ****     GPIO_InitStruct.Speed = GPIO_SPEED_FREQ_LOW;
 199:Core/Src/stm32h7xx_hal_msp.c ****     GPIO_InitStruct.Alternate = GPIO_AF14_LTDC;
 200:Core/Src/stm32h7xx_hal_msp.c ****     HAL_GPIO_Init(GPIOD, &GPIO_InitStruct);
 201:Core/Src/stm32h7xx_hal_msp.c **** 
 202:Core/Src/stm32h7xx_hal_msp.c ****     GPIO_InitStruct.Pin = GPIO_PIN_8|GPIO_PIN_13;
 203:Core/Src/stm32h7xx_hal_msp.c ****     GPIO_InitStruct.Mode = GPIO_MODE_AF_PP;
 204:Core/Src/stm32h7xx_hal_msp.c ****     GPIO_InitStruct.Pull = GPIO_NOPULL;
 205:Core/Src/stm32h7xx_hal_msp.c ****     GPIO_InitStruct.Speed = GPIO_SPEED_FREQ_LOW;
 206:Core/Src/stm32h7xx_hal_msp.c ****     GPIO_InitStruct.Alternate = GPIO_AF14_LTDC;
 207:Core/Src/stm32h7xx_hal_msp.c ****     HAL_GPIO_Init(GPIOG, &GPIO_InitStruct);
 208:Core/Src/stm32h7xx_hal_msp.c **** 
 209:Core/Src/stm32h7xx_hal_msp.c ****     /* LTDC interrupt Init */
 210:Core/Src/stm32h7xx_hal_msp.c ****     HAL_NVIC_SetPriority(LTDC_IRQn, 0, 0);
 211:Core/Src/stm32h7xx_hal_msp.c ****     HAL_NVIC_EnableIRQ(LTDC_IRQn);
 212:Core/Src/stm32h7xx_hal_msp.c ****     /* USER CODE BEGIN LTDC_MspInit 1 */
 213:Core/Src/stm32h7xx_hal_msp.c **** 
 214:Core/Src/stm32h7xx_hal_msp.c ****     /* USER CODE END LTDC_MspInit 1 */
 215:Core/Src/stm32h7xx_hal_msp.c **** 
 216:Core/Src/stm32h7xx_hal_msp.c ****   }
 217:Core/Src/stm32h7xx_hal_msp.c **** 
 218:Core/Src/stm32h7xx_hal_msp.c **** }
 115              		.loc 1 218 1 view .LVU18
 116 0024 3FB0     		add	sp, sp, #252
 117              		.cfi_remember_state
 118              		.cfi_def_cfa_offset 28
 119              		@ sp needed
 120 0026 BDE8F083 		pop	{r4, r5, r6, r7, r8, r9, pc}
 121              	.LVL4:
 122              	.L9:
 123              		.cfi_restore_state
  97:Core/Src/stm32h7xx_hal_msp.c ****     PeriphClkInitStruct.PLL3.PLL3M = 1;
 124              		.loc 1 97 5 is_stmt 1 view .LVU19
  97:Core/Src/stm32h7xx_hal_msp.c ****     PeriphClkInitStruct.PLL3.PLL3M = 1;
 125              		.loc 1 97 46 is_stmt 0 view .LVU20
ARM GAS  /var/folders/l4/6w9kflz11csb_6qsyz46nv3c0000gp/T//ccfEea6P.s 			page 7


 126 002a 4FF00052 		mov	r2, #536870912
 127 002e 0023     		movs	r3, #0
 128 0030 CDE90823 		strd	r2, [sp, #32]
  98:Core/Src/stm32h7xx_hal_msp.c ****     PeriphClkInitStruct.PLL3.PLL3N = 4;
 129              		.loc 1 98 5 is_stmt 1 view .LVU21
  98:Core/Src/stm32h7xx_hal_msp.c ****     PeriphClkInitStruct.PLL3.PLL3N = 4;
 130              		.loc 1 98 36 is_stmt 0 view .LVU22
 131 0034 0123     		movs	r3, #1
 132 0036 1293     		str	r3, [sp, #72]
  99:Core/Src/stm32h7xx_hal_msp.c ****     PeriphClkInitStruct.PLL3.PLL3P = 2;
 133              		.loc 1 99 5 is_stmt 1 view .LVU23
  99:Core/Src/stm32h7xx_hal_msp.c ****     PeriphClkInitStruct.PLL3.PLL3P = 2;
 134              		.loc 1 99 36 is_stmt 0 view .LVU24
 135 0038 0423     		movs	r3, #4
 136 003a 1393     		str	r3, [sp, #76]
 100:Core/Src/stm32h7xx_hal_msp.c ****     PeriphClkInitStruct.PLL3.PLL3Q = 2;
 137              		.loc 1 100 5 is_stmt 1 view .LVU25
 100:Core/Src/stm32h7xx_hal_msp.c ****     PeriphClkInitStruct.PLL3.PLL3Q = 2;
 138              		.loc 1 100 36 is_stmt 0 view .LVU26
 139 003c 0223     		movs	r3, #2
 140 003e 1493     		str	r3, [sp, #80]
 101:Core/Src/stm32h7xx_hal_msp.c ****     PeriphClkInitStruct.PLL3.PLL3R = 26;
 141              		.loc 1 101 5 is_stmt 1 view .LVU27
 101:Core/Src/stm32h7xx_hal_msp.c ****     PeriphClkInitStruct.PLL3.PLL3R = 26;
 142              		.loc 1 101 36 is_stmt 0 view .LVU28
 143 0040 1593     		str	r3, [sp, #84]
 102:Core/Src/stm32h7xx_hal_msp.c ****     PeriphClkInitStruct.PLL3.PLL3RGE = RCC_PLL3VCIRANGE_3;
 144              		.loc 1 102 5 is_stmt 1 view .LVU29
 102:Core/Src/stm32h7xx_hal_msp.c ****     PeriphClkInitStruct.PLL3.PLL3RGE = RCC_PLL3VCIRANGE_3;
 145              		.loc 1 102 36 is_stmt 0 view .LVU30
 146 0042 1A23     		movs	r3, #26
 147 0044 1693     		str	r3, [sp, #88]
 103:Core/Src/stm32h7xx_hal_msp.c ****     PeriphClkInitStruct.PLL3.PLL3VCOSEL = RCC_PLL3VCOWIDE;
 148              		.loc 1 103 5 is_stmt 1 view .LVU31
 103:Core/Src/stm32h7xx_hal_msp.c ****     PeriphClkInitStruct.PLL3.PLL3VCOSEL = RCC_PLL3VCOWIDE;
 149              		.loc 1 103 38 is_stmt 0 view .LVU32
 150 0046 4FF44063 		mov	r3, #3072
 151 004a 1793     		str	r3, [sp, #92]
 104:Core/Src/stm32h7xx_hal_msp.c ****     PeriphClkInitStruct.PLL3.PLL3FRACN = 512.0;
 152              		.loc 1 104 5 is_stmt 1 view .LVU33
 105:Core/Src/stm32h7xx_hal_msp.c ****     if (HAL_RCCEx_PeriphCLKConfig(&PeriphClkInitStruct) != HAL_OK)
 153              		.loc 1 105 5 view .LVU34
 105:Core/Src/stm32h7xx_hal_msp.c ****     if (HAL_RCCEx_PeriphCLKConfig(&PeriphClkInitStruct) != HAL_OK)
 154              		.loc 1 105 40 is_stmt 0 view .LVU35
 155 004c 4FF40073 		mov	r3, #512
 156 0050 1993     		str	r3, [sp, #100]
 106:Core/Src/stm32h7xx_hal_msp.c ****     {
 157              		.loc 1 106 5 is_stmt 1 view .LVU36
 106:Core/Src/stm32h7xx_hal_msp.c ****     {
 158              		.loc 1 106 9 is_stmt 0 view .LVU37
 159 0052 08A8     		add	r0, sp, #32
 160 0054 FFF7FEFF 		bl	HAL_RCCEx_PeriphCLKConfig
 161              	.LVL5:
 106:Core/Src/stm32h7xx_hal_msp.c ****     {
 162              		.loc 1 106 8 discriminator 1 view .LVU38
 163 0058 0028     		cmp	r0, #0
 164 005a 40F0C880 		bne	.L10
ARM GAS  /var/folders/l4/6w9kflz11csb_6qsyz46nv3c0000gp/T//ccfEea6P.s 			page 8


 165              	.L7:
 112:Core/Src/stm32h7xx_hal_msp.c **** 
 166              		.loc 1 112 5 is_stmt 1 view .LVU39
 167              	.LBB3:
 112:Core/Src/stm32h7xx_hal_msp.c **** 
 168              		.loc 1 112 5 view .LVU40
 112:Core/Src/stm32h7xx_hal_msp.c **** 
 169              		.loc 1 112 5 view .LVU41
 170 005e 664B     		ldr	r3, .L11+4
 171 0060 D3F8E420 		ldr	r2, [r3, #228]
 172 0064 42F00802 		orr	r2, r2, #8
 173 0068 C3F8E420 		str	r2, [r3, #228]
 112:Core/Src/stm32h7xx_hal_msp.c **** 
 174              		.loc 1 112 5 view .LVU42
 175 006c D3F8E420 		ldr	r2, [r3, #228]
 176 0070 02F00802 		and	r2, r2, #8
 177 0074 0092     		str	r2, [sp]
 112:Core/Src/stm32h7xx_hal_msp.c **** 
 178              		.loc 1 112 5 view .LVU43
 179 0076 009A     		ldr	r2, [sp]
 180              	.LBE3:
 112:Core/Src/stm32h7xx_hal_msp.c **** 
 181              		.loc 1 112 5 view .LVU44
 114:Core/Src/stm32h7xx_hal_msp.c ****     __HAL_RCC_GPIOF_CLK_ENABLE();
 182              		.loc 1 114 5 view .LVU45
 183              	.LBB4:
 114:Core/Src/stm32h7xx_hal_msp.c ****     __HAL_RCC_GPIOF_CLK_ENABLE();
 184              		.loc 1 114 5 view .LVU46
 114:Core/Src/stm32h7xx_hal_msp.c ****     __HAL_RCC_GPIOF_CLK_ENABLE();
 185              		.loc 1 114 5 view .LVU47
 186 0078 D3F8E020 		ldr	r2, [r3, #224]
 187 007c 42F01002 		orr	r2, r2, #16
 188 0080 C3F8E020 		str	r2, [r3, #224]
 114:Core/Src/stm32h7xx_hal_msp.c ****     __HAL_RCC_GPIOF_CLK_ENABLE();
 189              		.loc 1 114 5 view .LVU48
 190 0084 D3F8E020 		ldr	r2, [r3, #224]
 191 0088 02F01002 		and	r2, r2, #16
 192 008c 0192     		str	r2, [sp, #4]
 114:Core/Src/stm32h7xx_hal_msp.c ****     __HAL_RCC_GPIOF_CLK_ENABLE();
 193              		.loc 1 114 5 view .LVU49
 194 008e 019A     		ldr	r2, [sp, #4]
 195              	.LBE4:
 114:Core/Src/stm32h7xx_hal_msp.c ****     __HAL_RCC_GPIOF_CLK_ENABLE();
 196              		.loc 1 114 5 view .LVU50
 115:Core/Src/stm32h7xx_hal_msp.c ****     __HAL_RCC_GPIOC_CLK_ENABLE();
 197              		.loc 1 115 5 view .LVU51
 198              	.LBB5:
 115:Core/Src/stm32h7xx_hal_msp.c ****     __HAL_RCC_GPIOC_CLK_ENABLE();
 199              		.loc 1 115 5 view .LVU52
 115:Core/Src/stm32h7xx_hal_msp.c ****     __HAL_RCC_GPIOC_CLK_ENABLE();
 200              		.loc 1 115 5 view .LVU53
 201 0090 D3F8E020 		ldr	r2, [r3, #224]
 202 0094 42F02002 		orr	r2, r2, #32
 203 0098 C3F8E020 		str	r2, [r3, #224]
 115:Core/Src/stm32h7xx_hal_msp.c ****     __HAL_RCC_GPIOC_CLK_ENABLE();
 204              		.loc 1 115 5 view .LVU54
 205 009c D3F8E020 		ldr	r2, [r3, #224]
ARM GAS  /var/folders/l4/6w9kflz11csb_6qsyz46nv3c0000gp/T//ccfEea6P.s 			page 9


 206 00a0 02F02002 		and	r2, r2, #32
 207 00a4 0292     		str	r2, [sp, #8]
 115:Core/Src/stm32h7xx_hal_msp.c ****     __HAL_RCC_GPIOC_CLK_ENABLE();
 208              		.loc 1 115 5 view .LVU55
 209 00a6 029A     		ldr	r2, [sp, #8]
 210              	.LBE5:
 115:Core/Src/stm32h7xx_hal_msp.c ****     __HAL_RCC_GPIOC_CLK_ENABLE();
 211              		.loc 1 115 5 view .LVU56
 116:Core/Src/stm32h7xx_hal_msp.c ****     __HAL_RCC_GPIOA_CLK_ENABLE();
 212              		.loc 1 116 5 view .LVU57
 213              	.LBB6:
 116:Core/Src/stm32h7xx_hal_msp.c ****     __HAL_RCC_GPIOA_CLK_ENABLE();
 214              		.loc 1 116 5 view .LVU58
 116:Core/Src/stm32h7xx_hal_msp.c ****     __HAL_RCC_GPIOA_CLK_ENABLE();
 215              		.loc 1 116 5 view .LVU59
 216 00a8 D3F8E020 		ldr	r2, [r3, #224]
 217 00ac 42F00402 		orr	r2, r2, #4
 218 00b0 C3F8E020 		str	r2, [r3, #224]
 116:Core/Src/stm32h7xx_hal_msp.c ****     __HAL_RCC_GPIOA_CLK_ENABLE();
 219              		.loc 1 116 5 view .LVU60
 220 00b4 D3F8E020 		ldr	r2, [r3, #224]
 221 00b8 02F00402 		and	r2, r2, #4
 222 00bc 0392     		str	r2, [sp, #12]
 116:Core/Src/stm32h7xx_hal_msp.c ****     __HAL_RCC_GPIOA_CLK_ENABLE();
 223              		.loc 1 116 5 view .LVU61
 224 00be 039A     		ldr	r2, [sp, #12]
 225              	.LBE6:
 116:Core/Src/stm32h7xx_hal_msp.c ****     __HAL_RCC_GPIOA_CLK_ENABLE();
 226              		.loc 1 116 5 view .LVU62
 117:Core/Src/stm32h7xx_hal_msp.c ****     __HAL_RCC_GPIOB_CLK_ENABLE();
 227              		.loc 1 117 5 view .LVU63
 228              	.LBB7:
 117:Core/Src/stm32h7xx_hal_msp.c ****     __HAL_RCC_GPIOB_CLK_ENABLE();
 229              		.loc 1 117 5 view .LVU64
 117:Core/Src/stm32h7xx_hal_msp.c ****     __HAL_RCC_GPIOB_CLK_ENABLE();
 230              		.loc 1 117 5 view .LVU65
 231 00c0 D3F8E020 		ldr	r2, [r3, #224]
 232 00c4 42F00102 		orr	r2, r2, #1
 233 00c8 C3F8E020 		str	r2, [r3, #224]
 117:Core/Src/stm32h7xx_hal_msp.c ****     __HAL_RCC_GPIOB_CLK_ENABLE();
 234              		.loc 1 117 5 view .LVU66
 235 00cc D3F8E020 		ldr	r2, [r3, #224]
 236 00d0 02F00102 		and	r2, r2, #1
 237 00d4 0492     		str	r2, [sp, #16]
 117:Core/Src/stm32h7xx_hal_msp.c ****     __HAL_RCC_GPIOB_CLK_ENABLE();
 238              		.loc 1 117 5 view .LVU67
 239 00d6 049A     		ldr	r2, [sp, #16]
 240              	.LBE7:
 117:Core/Src/stm32h7xx_hal_msp.c ****     __HAL_RCC_GPIOB_CLK_ENABLE();
 241              		.loc 1 117 5 view .LVU68
 118:Core/Src/stm32h7xx_hal_msp.c ****     __HAL_RCC_GPIOD_CLK_ENABLE();
 242              		.loc 1 118 5 view .LVU69
 243              	.LBB8:
 118:Core/Src/stm32h7xx_hal_msp.c ****     __HAL_RCC_GPIOD_CLK_ENABLE();
 244              		.loc 1 118 5 view .LVU70
 118:Core/Src/stm32h7xx_hal_msp.c ****     __HAL_RCC_GPIOD_CLK_ENABLE();
 245              		.loc 1 118 5 view .LVU71
ARM GAS  /var/folders/l4/6w9kflz11csb_6qsyz46nv3c0000gp/T//ccfEea6P.s 			page 10


 246 00d8 D3F8E020 		ldr	r2, [r3, #224]
 247 00dc 42F00202 		orr	r2, r2, #2
 248 00e0 C3F8E020 		str	r2, [r3, #224]
 118:Core/Src/stm32h7xx_hal_msp.c ****     __HAL_RCC_GPIOD_CLK_ENABLE();
 249              		.loc 1 118 5 view .LVU72
 250 00e4 D3F8E020 		ldr	r2, [r3, #224]
 251 00e8 02F00202 		and	r2, r2, #2
 252 00ec 0592     		str	r2, [sp, #20]
 118:Core/Src/stm32h7xx_hal_msp.c ****     __HAL_RCC_GPIOD_CLK_ENABLE();
 253              		.loc 1 118 5 view .LVU73
 254 00ee 059A     		ldr	r2, [sp, #20]
 255              	.LBE8:
 118:Core/Src/stm32h7xx_hal_msp.c ****     __HAL_RCC_GPIOD_CLK_ENABLE();
 256              		.loc 1 118 5 view .LVU74
 119:Core/Src/stm32h7xx_hal_msp.c ****     __HAL_RCC_GPIOG_CLK_ENABLE();
 257              		.loc 1 119 5 view .LVU75
 258              	.LBB9:
 119:Core/Src/stm32h7xx_hal_msp.c ****     __HAL_RCC_GPIOG_CLK_ENABLE();
 259              		.loc 1 119 5 view .LVU76
 119:Core/Src/stm32h7xx_hal_msp.c ****     __HAL_RCC_GPIOG_CLK_ENABLE();
 260              		.loc 1 119 5 view .LVU77
 261 00f0 D3F8E020 		ldr	r2, [r3, #224]
 262 00f4 42F00802 		orr	r2, r2, #8
 263 00f8 C3F8E020 		str	r2, [r3, #224]
 119:Core/Src/stm32h7xx_hal_msp.c ****     __HAL_RCC_GPIOG_CLK_ENABLE();
 264              		.loc 1 119 5 view .LVU78
 265 00fc D3F8E020 		ldr	r2, [r3, #224]
 266 0100 02F00802 		and	r2, r2, #8
 267 0104 0692     		str	r2, [sp, #24]
 119:Core/Src/stm32h7xx_hal_msp.c ****     __HAL_RCC_GPIOG_CLK_ENABLE();
 268              		.loc 1 119 5 view .LVU79
 269 0106 069A     		ldr	r2, [sp, #24]
 270              	.LBE9:
 119:Core/Src/stm32h7xx_hal_msp.c ****     __HAL_RCC_GPIOG_CLK_ENABLE();
 271              		.loc 1 119 5 view .LVU80
 120:Core/Src/stm32h7xx_hal_msp.c ****     /**LTDC GPIO Configuration
 272              		.loc 1 120 5 view .LVU81
 273              	.LBB10:
 120:Core/Src/stm32h7xx_hal_msp.c ****     /**LTDC GPIO Configuration
 274              		.loc 1 120 5 view .LVU82
 120:Core/Src/stm32h7xx_hal_msp.c ****     /**LTDC GPIO Configuration
 275              		.loc 1 120 5 view .LVU83
 276 0108 D3F8E020 		ldr	r2, [r3, #224]
 277 010c 42F04002 		orr	r2, r2, #64
 278 0110 C3F8E020 		str	r2, [r3, #224]
 120:Core/Src/stm32h7xx_hal_msp.c ****     /**LTDC GPIO Configuration
 279              		.loc 1 120 5 view .LVU84
 280 0114 D3F8E030 		ldr	r3, [r3, #224]
 281 0118 03F04003 		and	r3, r3, #64
 282 011c 0793     		str	r3, [sp, #28]
 120:Core/Src/stm32h7xx_hal_msp.c ****     /**LTDC GPIO Configuration
 283              		.loc 1 120 5 view .LVU85
 284 011e 079B     		ldr	r3, [sp, #28]
 285              	.LBE10:
 120:Core/Src/stm32h7xx_hal_msp.c ****     /**LTDC GPIO Configuration
 286              		.loc 1 120 5 view .LVU86
 151:Core/Src/stm32h7xx_hal_msp.c ****                           |GPIO_PIN_12|GPIO_PIN_14|GPIO_PIN_15;
ARM GAS  /var/folders/l4/6w9kflz11csb_6qsyz46nv3c0000gp/T//ccfEea6P.s 			page 11


 287              		.loc 1 151 5 view .LVU87
 151:Core/Src/stm32h7xx_hal_msp.c ****                           |GPIO_PIN_12|GPIO_PIN_14|GPIO_PIN_15;
 288              		.loc 1 151 25 is_stmt 0 view .LVU88
 289 0120 4DF67003 		movw	r3, #55408
 290 0124 3993     		str	r3, [sp, #228]
 153:Core/Src/stm32h7xx_hal_msp.c ****     GPIO_InitStruct.Pull = GPIO_NOPULL;
 291              		.loc 1 153 5 is_stmt 1 view .LVU89
 153:Core/Src/stm32h7xx_hal_msp.c ****     GPIO_InitStruct.Pull = GPIO_NOPULL;
 292              		.loc 1 153 26 is_stmt 0 view .LVU90
 293 0126 0226     		movs	r6, #2
 294 0128 3A96     		str	r6, [sp, #232]
 154:Core/Src/stm32h7xx_hal_msp.c ****     GPIO_InitStruct.Speed = GPIO_SPEED_FREQ_LOW;
 295              		.loc 1 154 5 is_stmt 1 view .LVU91
 154:Core/Src/stm32h7xx_hal_msp.c ****     GPIO_InitStruct.Speed = GPIO_SPEED_FREQ_LOW;
 296              		.loc 1 154 26 is_stmt 0 view .LVU92
 297 012a 0024     		movs	r4, #0
 298              	.LVL6:
 154:Core/Src/stm32h7xx_hal_msp.c ****     GPIO_InitStruct.Speed = GPIO_SPEED_FREQ_LOW;
 299              		.loc 1 154 26 view .LVU93
 300 012c 3B94     		str	r4, [sp, #236]
 155:Core/Src/stm32h7xx_hal_msp.c ****     GPIO_InitStruct.Alternate = GPIO_AF14_LTDC;
 301              		.loc 1 155 5 is_stmt 1 view .LVU94
 155:Core/Src/stm32h7xx_hal_msp.c ****     GPIO_InitStruct.Alternate = GPIO_AF14_LTDC;
 302              		.loc 1 155 27 is_stmt 0 view .LVU95
 303 012e 3C94     		str	r4, [sp, #240]
 156:Core/Src/stm32h7xx_hal_msp.c ****     HAL_GPIO_Init(GPIOE, &GPIO_InitStruct);
 304              		.loc 1 156 5 is_stmt 1 view .LVU96
 156:Core/Src/stm32h7xx_hal_msp.c ****     HAL_GPIO_Init(GPIOE, &GPIO_InitStruct);
 305              		.loc 1 156 31 is_stmt 0 view .LVU97
 306 0130 0E27     		movs	r7, #14
 307 0132 3D97     		str	r7, [sp, #244]
 157:Core/Src/stm32h7xx_hal_msp.c **** 
 308              		.loc 1 157 5 is_stmt 1 view .LVU98
 309 0134 39AD     		add	r5, sp, #228
 310 0136 2946     		mov	r1, r5
 311 0138 3048     		ldr	r0, .L11+8
 312 013a FFF7FEFF 		bl	HAL_GPIO_Init
 313              	.LVL7:
 159:Core/Src/stm32h7xx_hal_msp.c ****     GPIO_InitStruct.Mode = GPIO_MODE_AF_PP;
 314              		.loc 1 159 5 view .LVU99
 159:Core/Src/stm32h7xx_hal_msp.c ****     GPIO_InitStruct.Mode = GPIO_MODE_AF_PP;
 315              		.loc 1 159 25 is_stmt 0 view .LVU100
 316 013e 4FF48068 		mov	r8, #1024
 317 0142 CDF8E480 		str	r8, [sp, #228]
 160:Core/Src/stm32h7xx_hal_msp.c ****     GPIO_InitStruct.Pull = GPIO_NOPULL;
 318              		.loc 1 160 5 is_stmt 1 view .LVU101
 160:Core/Src/stm32h7xx_hal_msp.c ****     GPIO_InitStruct.Pull = GPIO_NOPULL;
 319              		.loc 1 160 26 is_stmt 0 view .LVU102
 320 0146 3A96     		str	r6, [sp, #232]
 161:Core/Src/stm32h7xx_hal_msp.c ****     GPIO_InitStruct.Speed = GPIO_SPEED_FREQ_LOW;
 321              		.loc 1 161 5 is_stmt 1 view .LVU103
 161:Core/Src/stm32h7xx_hal_msp.c ****     GPIO_InitStruct.Speed = GPIO_SPEED_FREQ_LOW;
 322              		.loc 1 161 26 is_stmt 0 view .LVU104
 323 0148 3B94     		str	r4, [sp, #236]
 162:Core/Src/stm32h7xx_hal_msp.c ****     GPIO_InitStruct.Alternate = GPIO_AF14_LTDC;
 324              		.loc 1 162 5 is_stmt 1 view .LVU105
 162:Core/Src/stm32h7xx_hal_msp.c ****     GPIO_InitStruct.Alternate = GPIO_AF14_LTDC;
ARM GAS  /var/folders/l4/6w9kflz11csb_6qsyz46nv3c0000gp/T//ccfEea6P.s 			page 12


 325              		.loc 1 162 27 is_stmt 0 view .LVU106
 326 014a 3C94     		str	r4, [sp, #240]
 163:Core/Src/stm32h7xx_hal_msp.c ****     HAL_GPIO_Init(GPIOF, &GPIO_InitStruct);
 327              		.loc 1 163 5 is_stmt 1 view .LVU107
 163:Core/Src/stm32h7xx_hal_msp.c ****     HAL_GPIO_Init(GPIOF, &GPIO_InitStruct);
 328              		.loc 1 163 31 is_stmt 0 view .LVU108
 329 014c 3D97     		str	r7, [sp, #244]
 164:Core/Src/stm32h7xx_hal_msp.c **** 
 330              		.loc 1 164 5 is_stmt 1 view .LVU109
 331 014e 2946     		mov	r1, r5
 332 0150 2B48     		ldr	r0, .L11+12
 333 0152 FFF7FEFF 		bl	HAL_GPIO_Init
 334              	.LVL8:
 166:Core/Src/stm32h7xx_hal_msp.c ****     GPIO_InitStruct.Mode = GPIO_MODE_AF_PP;
 335              		.loc 1 166 5 view .LVU110
 166:Core/Src/stm32h7xx_hal_msp.c ****     GPIO_InitStruct.Mode = GPIO_MODE_AF_PP;
 336              		.loc 1 166 25 is_stmt 0 view .LVU111
 337 0156 40F2C123 		movw	r3, #705
 338 015a 3993     		str	r3, [sp, #228]
 167:Core/Src/stm32h7xx_hal_msp.c ****     GPIO_InitStruct.Pull = GPIO_NOPULL;
 339              		.loc 1 167 5 is_stmt 1 view .LVU112
 167:Core/Src/stm32h7xx_hal_msp.c ****     GPIO_InitStruct.Pull = GPIO_NOPULL;
 340              		.loc 1 167 26 is_stmt 0 view .LVU113
 341 015c 3A96     		str	r6, [sp, #232]
 168:Core/Src/stm32h7xx_hal_msp.c ****     GPIO_InitStruct.Speed = GPIO_SPEED_FREQ_LOW;
 342              		.loc 1 168 5 is_stmt 1 view .LVU114
 168:Core/Src/stm32h7xx_hal_msp.c ****     GPIO_InitStruct.Speed = GPIO_SPEED_FREQ_LOW;
 343              		.loc 1 168 26 is_stmt 0 view .LVU115
 344 015e 3B94     		str	r4, [sp, #236]
 169:Core/Src/stm32h7xx_hal_msp.c ****     GPIO_InitStruct.Alternate = GPIO_AF14_LTDC;
 345              		.loc 1 169 5 is_stmt 1 view .LVU116
 169:Core/Src/stm32h7xx_hal_msp.c ****     GPIO_InitStruct.Alternate = GPIO_AF14_LTDC;
 346              		.loc 1 169 27 is_stmt 0 view .LVU117
 347 0160 3C94     		str	r4, [sp, #240]
 170:Core/Src/stm32h7xx_hal_msp.c ****     HAL_GPIO_Init(GPIOC, &GPIO_InitStruct);
 348              		.loc 1 170 5 is_stmt 1 view .LVU118
 170:Core/Src/stm32h7xx_hal_msp.c ****     HAL_GPIO_Init(GPIOC, &GPIO_InitStruct);
 349              		.loc 1 170 31 is_stmt 0 view .LVU119
 350 0162 3D97     		str	r7, [sp, #244]
 171:Core/Src/stm32h7xx_hal_msp.c **** 
 351              		.loc 1 171 5 is_stmt 1 view .LVU120
 352 0164 2946     		mov	r1, r5
 353 0166 2748     		ldr	r0, .L11+16
 354 0168 FFF7FEFF 		bl	HAL_GPIO_Init
 355              	.LVL9:
 173:Core/Src/stm32h7xx_hal_msp.c ****                           |GPIO_PIN_5|GPIO_PIN_6|GPIO_PIN_10;
 356              		.loc 1 173 5 view .LVU121
 173:Core/Src/stm32h7xx_hal_msp.c ****                           |GPIO_PIN_5|GPIO_PIN_6|GPIO_PIN_10;
 357              		.loc 1 173 25 is_stmt 0 view .LVU122
 358 016c 40F27E43 		movw	r3, #1150
 359 0170 3993     		str	r3, [sp, #228]
 175:Core/Src/stm32h7xx_hal_msp.c ****     GPIO_InitStruct.Pull = GPIO_NOPULL;
 360              		.loc 1 175 5 is_stmt 1 view .LVU123
 175:Core/Src/stm32h7xx_hal_msp.c ****     GPIO_InitStruct.Pull = GPIO_NOPULL;
 361              		.loc 1 175 26 is_stmt 0 view .LVU124
 362 0172 3A96     		str	r6, [sp, #232]
 176:Core/Src/stm32h7xx_hal_msp.c ****     GPIO_InitStruct.Speed = GPIO_SPEED_FREQ_LOW;
ARM GAS  /var/folders/l4/6w9kflz11csb_6qsyz46nv3c0000gp/T//ccfEea6P.s 			page 13


 363              		.loc 1 176 5 is_stmt 1 view .LVU125
 176:Core/Src/stm32h7xx_hal_msp.c ****     GPIO_InitStruct.Speed = GPIO_SPEED_FREQ_LOW;
 364              		.loc 1 176 26 is_stmt 0 view .LVU126
 365 0174 3B94     		str	r4, [sp, #236]
 177:Core/Src/stm32h7xx_hal_msp.c ****     GPIO_InitStruct.Alternate = GPIO_AF14_LTDC;
 366              		.loc 1 177 5 is_stmt 1 view .LVU127
 177:Core/Src/stm32h7xx_hal_msp.c ****     GPIO_InitStruct.Alternate = GPIO_AF14_LTDC;
 367              		.loc 1 177 27 is_stmt 0 view .LVU128
 368 0176 3C94     		str	r4, [sp, #240]
 178:Core/Src/stm32h7xx_hal_msp.c ****     HAL_GPIO_Init(GPIOA, &GPIO_InitStruct);
 369              		.loc 1 178 5 is_stmt 1 view .LVU129
 178:Core/Src/stm32h7xx_hal_msp.c ****     HAL_GPIO_Init(GPIOA, &GPIO_InitStruct);
 370              		.loc 1 178 31 is_stmt 0 view .LVU130
 371 0178 3D97     		str	r7, [sp, #244]
 179:Core/Src/stm32h7xx_hal_msp.c **** 
 372              		.loc 1 179 5 is_stmt 1 view .LVU131
 373 017a 2946     		mov	r1, r5
 374 017c 2248     		ldr	r0, .L11+20
 375 017e FFF7FEFF 		bl	HAL_GPIO_Init
 376              	.LVL10:
 181:Core/Src/stm32h7xx_hal_msp.c ****     GPIO_InitStruct.Mode = GPIO_MODE_AF_PP;
 377              		.loc 1 181 5 view .LVU132
 181:Core/Src/stm32h7xx_hal_msp.c ****     GPIO_InitStruct.Mode = GPIO_MODE_AF_PP;
 378              		.loc 1 181 25 is_stmt 0 view .LVU133
 379 0182 0323     		movs	r3, #3
 380 0184 3993     		str	r3, [sp, #228]
 182:Core/Src/stm32h7xx_hal_msp.c ****     GPIO_InitStruct.Pull = GPIO_NOPULL;
 381              		.loc 1 182 5 is_stmt 1 view .LVU134
 182:Core/Src/stm32h7xx_hal_msp.c ****     GPIO_InitStruct.Pull = GPIO_NOPULL;
 382              		.loc 1 182 26 is_stmt 0 view .LVU135
 383 0186 3A96     		str	r6, [sp, #232]
 183:Core/Src/stm32h7xx_hal_msp.c ****     GPIO_InitStruct.Speed = GPIO_SPEED_FREQ_LOW;
 384              		.loc 1 183 5 is_stmt 1 view .LVU136
 183:Core/Src/stm32h7xx_hal_msp.c ****     GPIO_InitStruct.Speed = GPIO_SPEED_FREQ_LOW;
 385              		.loc 1 183 26 is_stmt 0 view .LVU137
 386 0188 3B94     		str	r4, [sp, #236]
 184:Core/Src/stm32h7xx_hal_msp.c ****     GPIO_InitStruct.Alternate = GPIO_AF9_LTDC;
 387              		.loc 1 184 5 is_stmt 1 view .LVU138
 184:Core/Src/stm32h7xx_hal_msp.c ****     GPIO_InitStruct.Alternate = GPIO_AF9_LTDC;
 388              		.loc 1 184 27 is_stmt 0 view .LVU139
 389 018a 3C94     		str	r4, [sp, #240]
 185:Core/Src/stm32h7xx_hal_msp.c ****     HAL_GPIO_Init(GPIOB, &GPIO_InitStruct);
 390              		.loc 1 185 5 is_stmt 1 view .LVU140
 185:Core/Src/stm32h7xx_hal_msp.c ****     HAL_GPIO_Init(GPIOB, &GPIO_InitStruct);
 391              		.loc 1 185 31 is_stmt 0 view .LVU141
 392 018c 0923     		movs	r3, #9
 393 018e 3D93     		str	r3, [sp, #244]
 186:Core/Src/stm32h7xx_hal_msp.c **** 
 394              		.loc 1 186 5 is_stmt 1 view .LVU142
 395 0190 DFF88090 		ldr	r9, .L11+32
 396 0194 2946     		mov	r1, r5
 397 0196 4846     		mov	r0, r9
 398 0198 FFF7FEFF 		bl	HAL_GPIO_Init
 399              	.LVL11:
 188:Core/Src/stm32h7xx_hal_msp.c ****     GPIO_InitStruct.Mode = GPIO_MODE_AF_PP;
 400              		.loc 1 188 5 view .LVU143
 188:Core/Src/stm32h7xx_hal_msp.c ****     GPIO_InitStruct.Mode = GPIO_MODE_AF_PP;
ARM GAS  /var/folders/l4/6w9kflz11csb_6qsyz46nv3c0000gp/T//ccfEea6P.s 			page 14


 401              		.loc 1 188 25 is_stmt 0 view .LVU144
 402 019c 4FF47063 		mov	r3, #3840
 403 01a0 3993     		str	r3, [sp, #228]
 189:Core/Src/stm32h7xx_hal_msp.c ****     GPIO_InitStruct.Pull = GPIO_NOPULL;
 404              		.loc 1 189 5 is_stmt 1 view .LVU145
 189:Core/Src/stm32h7xx_hal_msp.c ****     GPIO_InitStruct.Pull = GPIO_NOPULL;
 405              		.loc 1 189 26 is_stmt 0 view .LVU146
 406 01a2 3A96     		str	r6, [sp, #232]
 190:Core/Src/stm32h7xx_hal_msp.c ****     GPIO_InitStruct.Speed = GPIO_SPEED_FREQ_LOW;
 407              		.loc 1 190 5 is_stmt 1 view .LVU147
 190:Core/Src/stm32h7xx_hal_msp.c ****     GPIO_InitStruct.Speed = GPIO_SPEED_FREQ_LOW;
 408              		.loc 1 190 26 is_stmt 0 view .LVU148
 409 01a4 3B94     		str	r4, [sp, #236]
 191:Core/Src/stm32h7xx_hal_msp.c ****     GPIO_InitStruct.Alternate = GPIO_AF14_LTDC;
 410              		.loc 1 191 5 is_stmt 1 view .LVU149
 191:Core/Src/stm32h7xx_hal_msp.c ****     GPIO_InitStruct.Alternate = GPIO_AF14_LTDC;
 411              		.loc 1 191 27 is_stmt 0 view .LVU150
 412 01a6 3C94     		str	r4, [sp, #240]
 192:Core/Src/stm32h7xx_hal_msp.c ****     HAL_GPIO_Init(GPIOB, &GPIO_InitStruct);
 413              		.loc 1 192 5 is_stmt 1 view .LVU151
 192:Core/Src/stm32h7xx_hal_msp.c ****     HAL_GPIO_Init(GPIOB, &GPIO_InitStruct);
 414              		.loc 1 192 31 is_stmt 0 view .LVU152
 415 01a8 3D97     		str	r7, [sp, #244]
 193:Core/Src/stm32h7xx_hal_msp.c **** 
 416              		.loc 1 193 5 is_stmt 1 view .LVU153
 417 01aa 2946     		mov	r1, r5
 418 01ac 4846     		mov	r0, r9
 419 01ae FFF7FEFF 		bl	HAL_GPIO_Init
 420              	.LVL12:
 195:Core/Src/stm32h7xx_hal_msp.c ****     GPIO_InitStruct.Mode = GPIO_MODE_AF_PP;
 421              		.loc 1 195 5 view .LVU154
 195:Core/Src/stm32h7xx_hal_msp.c ****     GPIO_InitStruct.Mode = GPIO_MODE_AF_PP;
 422              		.loc 1 195 25 is_stmt 0 view .LVU155
 423 01b2 CDF8E480 		str	r8, [sp, #228]
 196:Core/Src/stm32h7xx_hal_msp.c ****     GPIO_InitStruct.Pull = GPIO_NOPULL;
 424              		.loc 1 196 5 is_stmt 1 view .LVU156
 196:Core/Src/stm32h7xx_hal_msp.c ****     GPIO_InitStruct.Pull = GPIO_NOPULL;
 425              		.loc 1 196 26 is_stmt 0 view .LVU157
 426 01b6 3A96     		str	r6, [sp, #232]
 197:Core/Src/stm32h7xx_hal_msp.c ****     GPIO_InitStruct.Speed = GPIO_SPEED_FREQ_LOW;
 427              		.loc 1 197 5 is_stmt 1 view .LVU158
 197:Core/Src/stm32h7xx_hal_msp.c ****     GPIO_InitStruct.Speed = GPIO_SPEED_FREQ_LOW;
 428              		.loc 1 197 26 is_stmt 0 view .LVU159
 429 01b8 3B94     		str	r4, [sp, #236]
 198:Core/Src/stm32h7xx_hal_msp.c ****     GPIO_InitStruct.Alternate = GPIO_AF14_LTDC;
 430              		.loc 1 198 5 is_stmt 1 view .LVU160
 198:Core/Src/stm32h7xx_hal_msp.c ****     GPIO_InitStruct.Alternate = GPIO_AF14_LTDC;
 431              		.loc 1 198 27 is_stmt 0 view .LVU161
 432 01ba 3C94     		str	r4, [sp, #240]
 199:Core/Src/stm32h7xx_hal_msp.c ****     HAL_GPIO_Init(GPIOD, &GPIO_InitStruct);
 433              		.loc 1 199 5 is_stmt 1 view .LVU162
 199:Core/Src/stm32h7xx_hal_msp.c ****     HAL_GPIO_Init(GPIOD, &GPIO_InitStruct);
 434              		.loc 1 199 31 is_stmt 0 view .LVU163
 435 01bc 3D97     		str	r7, [sp, #244]
 200:Core/Src/stm32h7xx_hal_msp.c **** 
 436              		.loc 1 200 5 is_stmt 1 view .LVU164
 437 01be 2946     		mov	r1, r5
ARM GAS  /var/folders/l4/6w9kflz11csb_6qsyz46nv3c0000gp/T//ccfEea6P.s 			page 15


 438 01c0 1248     		ldr	r0, .L11+24
 439 01c2 FFF7FEFF 		bl	HAL_GPIO_Init
 440              	.LVL13:
 202:Core/Src/stm32h7xx_hal_msp.c ****     GPIO_InitStruct.Mode = GPIO_MODE_AF_PP;
 441              		.loc 1 202 5 view .LVU165
 202:Core/Src/stm32h7xx_hal_msp.c ****     GPIO_InitStruct.Mode = GPIO_MODE_AF_PP;
 442              		.loc 1 202 25 is_stmt 0 view .LVU166
 443 01c6 4FF40453 		mov	r3, #8448
 444 01ca 3993     		str	r3, [sp, #228]
 203:Core/Src/stm32h7xx_hal_msp.c ****     GPIO_InitStruct.Pull = GPIO_NOPULL;
 445              		.loc 1 203 5 is_stmt 1 view .LVU167
 203:Core/Src/stm32h7xx_hal_msp.c ****     GPIO_InitStruct.Pull = GPIO_NOPULL;
 446              		.loc 1 203 26 is_stmt 0 view .LVU168
 447 01cc 3A96     		str	r6, [sp, #232]
 204:Core/Src/stm32h7xx_hal_msp.c ****     GPIO_InitStruct.Speed = GPIO_SPEED_FREQ_LOW;
 448              		.loc 1 204 5 is_stmt 1 view .LVU169
 204:Core/Src/stm32h7xx_hal_msp.c ****     GPIO_InitStruct.Speed = GPIO_SPEED_FREQ_LOW;
 449              		.loc 1 204 26 is_stmt 0 view .LVU170
 450 01ce 3B94     		str	r4, [sp, #236]
 205:Core/Src/stm32h7xx_hal_msp.c ****     GPIO_InitStruct.Alternate = GPIO_AF14_LTDC;
 451              		.loc 1 205 5 is_stmt 1 view .LVU171
 205:Core/Src/stm32h7xx_hal_msp.c ****     GPIO_InitStruct.Alternate = GPIO_AF14_LTDC;
 452              		.loc 1 205 27 is_stmt 0 view .LVU172
 453 01d0 3C94     		str	r4, [sp, #240]
 206:Core/Src/stm32h7xx_hal_msp.c ****     HAL_GPIO_Init(GPIOG, &GPIO_InitStruct);
 454              		.loc 1 206 5 is_stmt 1 view .LVU173
 206:Core/Src/stm32h7xx_hal_msp.c ****     HAL_GPIO_Init(GPIOG, &GPIO_InitStruct);
 455              		.loc 1 206 31 is_stmt 0 view .LVU174
 456 01d2 3D97     		str	r7, [sp, #244]
 207:Core/Src/stm32h7xx_hal_msp.c **** 
 457              		.loc 1 207 5 is_stmt 1 view .LVU175
 458 01d4 2946     		mov	r1, r5
 459 01d6 0E48     		ldr	r0, .L11+28
 460 01d8 FFF7FEFF 		bl	HAL_GPIO_Init
 461              	.LVL14:
 210:Core/Src/stm32h7xx_hal_msp.c ****     HAL_NVIC_EnableIRQ(LTDC_IRQn);
 462              		.loc 1 210 5 view .LVU176
 463 01dc 2246     		mov	r2, r4
 464 01de 2146     		mov	r1, r4
 465 01e0 5820     		movs	r0, #88
 466 01e2 FFF7FEFF 		bl	HAL_NVIC_SetPriority
 467              	.LVL15:
 211:Core/Src/stm32h7xx_hal_msp.c ****     /* USER CODE BEGIN LTDC_MspInit 1 */
 468              		.loc 1 211 5 view .LVU177
 469 01e6 5820     		movs	r0, #88
 470 01e8 FFF7FEFF 		bl	HAL_NVIC_EnableIRQ
 471              	.LVL16:
 472              		.loc 1 218 1 is_stmt 0 view .LVU178
 473 01ec 1AE7     		b	.L5
 474              	.LVL17:
 475              	.L10:
 108:Core/Src/stm32h7xx_hal_msp.c ****     }
 476              		.loc 1 108 7 is_stmt 1 view .LVU179
 477 01ee FFF7FEFF 		bl	Error_Handler
 478              	.LVL18:
 479 01f2 34E7     		b	.L7
 480              	.L12:
ARM GAS  /var/folders/l4/6w9kflz11csb_6qsyz46nv3c0000gp/T//ccfEea6P.s 			page 16


 481              		.align	2
 482              	.L11:
 483 01f4 00100050 		.word	1342181376
 484 01f8 00440258 		.word	1476543488
 485 01fc 00100258 		.word	1476530176
 486 0200 00140258 		.word	1476531200
 487 0204 00080258 		.word	1476528128
 488 0208 00000258 		.word	1476526080
 489 020c 000C0258 		.word	1476529152
 490 0210 00180258 		.word	1476532224
 491 0214 00040258 		.word	1476527104
 492              		.cfi_endproc
 493              	.LFE145:
 495              		.section	.text.HAL_LTDC_MspDeInit,"ax",%progbits
 496              		.align	1
 497              		.global	HAL_LTDC_MspDeInit
 498              		.syntax unified
 499              		.thumb
 500              		.thumb_func
 502              	HAL_LTDC_MspDeInit:
 503              	.LVL19:
 504              	.LFB146:
 219:Core/Src/stm32h7xx_hal_msp.c **** 
 220:Core/Src/stm32h7xx_hal_msp.c **** /**
 221:Core/Src/stm32h7xx_hal_msp.c ****   * @brief LTDC MSP De-Initialization
 222:Core/Src/stm32h7xx_hal_msp.c ****   * This function freeze the hardware resources used in this example
 223:Core/Src/stm32h7xx_hal_msp.c ****   * @param hltdc: LTDC handle pointer
 224:Core/Src/stm32h7xx_hal_msp.c ****   * @retval None
 225:Core/Src/stm32h7xx_hal_msp.c ****   */
 226:Core/Src/stm32h7xx_hal_msp.c **** void HAL_LTDC_MspDeInit(LTDC_HandleTypeDef* hltdc)
 227:Core/Src/stm32h7xx_hal_msp.c **** {
 505              		.loc 1 227 1 view -0
 506              		.cfi_startproc
 507              		@ args = 0, pretend = 0, frame = 0
 508              		@ frame_needed = 0, uses_anonymous_args = 0
 509              		.loc 1 227 1 is_stmt 0 view .LVU181
 510 0000 08B5     		push	{r3, lr}
 511              		.cfi_def_cfa_offset 8
 512              		.cfi_offset 3, -8
 513              		.cfi_offset 14, -4
 228:Core/Src/stm32h7xx_hal_msp.c ****   if(hltdc->Instance==LTDC)
 514              		.loc 1 228 3 is_stmt 1 view .LVU182
 515              		.loc 1 228 11 is_stmt 0 view .LVU183
 516 0002 0268     		ldr	r2, [r0]
 517              		.loc 1 228 5 view .LVU184
 518 0004 184B     		ldr	r3, .L17
 519 0006 9A42     		cmp	r2, r3
 520 0008 00D0     		beq	.L16
 521              	.LVL20:
 522              	.L13:
 229:Core/Src/stm32h7xx_hal_msp.c ****   {
 230:Core/Src/stm32h7xx_hal_msp.c ****     /* USER CODE BEGIN LTDC_MspDeInit 0 */
 231:Core/Src/stm32h7xx_hal_msp.c **** 
 232:Core/Src/stm32h7xx_hal_msp.c ****     /* USER CODE END LTDC_MspDeInit 0 */
 233:Core/Src/stm32h7xx_hal_msp.c ****     /* Peripheral clock disable */
 234:Core/Src/stm32h7xx_hal_msp.c ****     __HAL_RCC_LTDC_CLK_DISABLE();
 235:Core/Src/stm32h7xx_hal_msp.c **** 
ARM GAS  /var/folders/l4/6w9kflz11csb_6qsyz46nv3c0000gp/T//ccfEea6P.s 			page 17


 236:Core/Src/stm32h7xx_hal_msp.c ****     /**LTDC GPIO Configuration
 237:Core/Src/stm32h7xx_hal_msp.c ****     PE4     ------> LTDC_B0
 238:Core/Src/stm32h7xx_hal_msp.c ****     PE5     ------> LTDC_G0
 239:Core/Src/stm32h7xx_hal_msp.c ****     PE6     ------> LTDC_G1
 240:Core/Src/stm32h7xx_hal_msp.c ****     PF10     ------> LTDC_DE
 241:Core/Src/stm32h7xx_hal_msp.c ****     PC0     ------> LTDC_R5
 242:Core/Src/stm32h7xx_hal_msp.c ****     PA1     ------> LTDC_R2
 243:Core/Src/stm32h7xx_hal_msp.c ****     PA2     ------> LTDC_R1
 244:Core/Src/stm32h7xx_hal_msp.c ****     PA3     ------> LTDC_B5
 245:Core/Src/stm32h7xx_hal_msp.c ****     PA4     ------> LTDC_VSYNC
 246:Core/Src/stm32h7xx_hal_msp.c ****     PA5     ------> LTDC_R4
 247:Core/Src/stm32h7xx_hal_msp.c ****     PA6     ------> LTDC_G2
 248:Core/Src/stm32h7xx_hal_msp.c ****     PB0     ------> LTDC_R3
 249:Core/Src/stm32h7xx_hal_msp.c ****     PB1     ------> LTDC_R6
 250:Core/Src/stm32h7xx_hal_msp.c ****     PE11     ------> LTDC_G3
 251:Core/Src/stm32h7xx_hal_msp.c ****     PE12     ------> LTDC_B4
 252:Core/Src/stm32h7xx_hal_msp.c ****     PE14     ------> LTDC_CLK
 253:Core/Src/stm32h7xx_hal_msp.c ****     PE15     ------> LTDC_R7
 254:Core/Src/stm32h7xx_hal_msp.c ****     PB10     ------> LTDC_G4
 255:Core/Src/stm32h7xx_hal_msp.c ****     PB11     ------> LTDC_G5
 256:Core/Src/stm32h7xx_hal_msp.c ****     PD10     ------> LTDC_B3
 257:Core/Src/stm32h7xx_hal_msp.c ****     PG8     ------> LTDC_G7
 258:Core/Src/stm32h7xx_hal_msp.c ****     PC6     ------> LTDC_HSYNC
 259:Core/Src/stm32h7xx_hal_msp.c ****     PC7     ------> LTDC_G6
 260:Core/Src/stm32h7xx_hal_msp.c ****     PC9     ------> LTDC_B2
 261:Core/Src/stm32h7xx_hal_msp.c ****     PA10     ------> LTDC_B1
 262:Core/Src/stm32h7xx_hal_msp.c ****     PG13     ------> LTDC_R0
 263:Core/Src/stm32h7xx_hal_msp.c ****     PB8     ------> LTDC_B6
 264:Core/Src/stm32h7xx_hal_msp.c ****     PB9     ------> LTDC_B7
 265:Core/Src/stm32h7xx_hal_msp.c ****     */
 266:Core/Src/stm32h7xx_hal_msp.c ****     HAL_GPIO_DeInit(GPIOE, GPIO_PIN_4|GPIO_PIN_5|GPIO_PIN_6|GPIO_PIN_11
 267:Core/Src/stm32h7xx_hal_msp.c ****                           |GPIO_PIN_12|GPIO_PIN_14|GPIO_PIN_15);
 268:Core/Src/stm32h7xx_hal_msp.c **** 
 269:Core/Src/stm32h7xx_hal_msp.c ****     HAL_GPIO_DeInit(GPIOF, GPIO_PIN_10);
 270:Core/Src/stm32h7xx_hal_msp.c **** 
 271:Core/Src/stm32h7xx_hal_msp.c ****     HAL_GPIO_DeInit(GPIOC, GPIO_PIN_0|GPIO_PIN_6|GPIO_PIN_7|GPIO_PIN_9);
 272:Core/Src/stm32h7xx_hal_msp.c **** 
 273:Core/Src/stm32h7xx_hal_msp.c ****     HAL_GPIO_DeInit(GPIOA, GPIO_PIN_1|GPIO_PIN_2|GPIO_PIN_3|GPIO_PIN_4
 274:Core/Src/stm32h7xx_hal_msp.c ****                           |GPIO_PIN_5|GPIO_PIN_6|GPIO_PIN_10);
 275:Core/Src/stm32h7xx_hal_msp.c **** 
 276:Core/Src/stm32h7xx_hal_msp.c ****     HAL_GPIO_DeInit(GPIOB, GPIO_PIN_0|GPIO_PIN_1|GPIO_PIN_10|GPIO_PIN_11
 277:Core/Src/stm32h7xx_hal_msp.c ****                           |GPIO_PIN_8|GPIO_PIN_9);
 278:Core/Src/stm32h7xx_hal_msp.c **** 
 279:Core/Src/stm32h7xx_hal_msp.c ****     HAL_GPIO_DeInit(GPIOD, GPIO_PIN_10);
 280:Core/Src/stm32h7xx_hal_msp.c **** 
 281:Core/Src/stm32h7xx_hal_msp.c ****     HAL_GPIO_DeInit(GPIOG, GPIO_PIN_8|GPIO_PIN_13);
 282:Core/Src/stm32h7xx_hal_msp.c **** 
 283:Core/Src/stm32h7xx_hal_msp.c ****     /* LTDC interrupt DeInit */
 284:Core/Src/stm32h7xx_hal_msp.c ****     HAL_NVIC_DisableIRQ(LTDC_IRQn);
 285:Core/Src/stm32h7xx_hal_msp.c ****     /* USER CODE BEGIN LTDC_MspDeInit 1 */
 286:Core/Src/stm32h7xx_hal_msp.c **** 
 287:Core/Src/stm32h7xx_hal_msp.c ****     /* USER CODE END LTDC_MspDeInit 1 */
 288:Core/Src/stm32h7xx_hal_msp.c ****   }
 289:Core/Src/stm32h7xx_hal_msp.c **** 
 290:Core/Src/stm32h7xx_hal_msp.c **** }
 523              		.loc 1 290 1 view .LVU185
 524 000a 08BD     		pop	{r3, pc}
ARM GAS  /var/folders/l4/6w9kflz11csb_6qsyz46nv3c0000gp/T//ccfEea6P.s 			page 18


 525              	.LVL21:
 526              	.L16:
 234:Core/Src/stm32h7xx_hal_msp.c **** 
 527              		.loc 1 234 5 is_stmt 1 view .LVU186
 528 000c 174A     		ldr	r2, .L17+4
 529 000e D2F8E430 		ldr	r3, [r2, #228]
 530 0012 23F00803 		bic	r3, r3, #8
 531 0016 C2F8E430 		str	r3, [r2, #228]
 266:Core/Src/stm32h7xx_hal_msp.c ****                           |GPIO_PIN_12|GPIO_PIN_14|GPIO_PIN_15);
 532              		.loc 1 266 5 view .LVU187
 533 001a 4DF67001 		movw	r1, #55408
 534 001e 1448     		ldr	r0, .L17+8
 535              	.LVL22:
 266:Core/Src/stm32h7xx_hal_msp.c ****                           |GPIO_PIN_12|GPIO_PIN_14|GPIO_PIN_15);
 536              		.loc 1 266 5 is_stmt 0 view .LVU188
 537 0020 FFF7FEFF 		bl	HAL_GPIO_DeInit
 538              	.LVL23:
 269:Core/Src/stm32h7xx_hal_msp.c **** 
 539              		.loc 1 269 5 is_stmt 1 view .LVU189
 540 0024 4FF48061 		mov	r1, #1024
 541 0028 1248     		ldr	r0, .L17+12
 542 002a FFF7FEFF 		bl	HAL_GPIO_DeInit
 543              	.LVL24:
 271:Core/Src/stm32h7xx_hal_msp.c **** 
 544              		.loc 1 271 5 view .LVU190
 545 002e 40F2C121 		movw	r1, #705
 546 0032 1148     		ldr	r0, .L17+16
 547 0034 FFF7FEFF 		bl	HAL_GPIO_DeInit
 548              	.LVL25:
 273:Core/Src/stm32h7xx_hal_msp.c ****                           |GPIO_PIN_5|GPIO_PIN_6|GPIO_PIN_10);
 549              		.loc 1 273 5 view .LVU191
 550 0038 40F27E41 		movw	r1, #1150
 551 003c 0F48     		ldr	r0, .L17+20
 552 003e FFF7FEFF 		bl	HAL_GPIO_DeInit
 553              	.LVL26:
 276:Core/Src/stm32h7xx_hal_msp.c ****                           |GPIO_PIN_8|GPIO_PIN_9);
 554              		.loc 1 276 5 view .LVU192
 555 0042 40F60371 		movw	r1, #3843
 556 0046 0E48     		ldr	r0, .L17+24
 557 0048 FFF7FEFF 		bl	HAL_GPIO_DeInit
 558              	.LVL27:
 279:Core/Src/stm32h7xx_hal_msp.c **** 
 559              		.loc 1 279 5 view .LVU193
 560 004c 4FF48061 		mov	r1, #1024
 561 0050 0C48     		ldr	r0, .L17+28
 562 0052 FFF7FEFF 		bl	HAL_GPIO_DeInit
 563              	.LVL28:
 281:Core/Src/stm32h7xx_hal_msp.c **** 
 564              		.loc 1 281 5 view .LVU194
 565 0056 4FF40451 		mov	r1, #8448
 566 005a 0B48     		ldr	r0, .L17+32
 567 005c FFF7FEFF 		bl	HAL_GPIO_DeInit
 568              	.LVL29:
 284:Core/Src/stm32h7xx_hal_msp.c ****     /* USER CODE BEGIN LTDC_MspDeInit 1 */
 569              		.loc 1 284 5 view .LVU195
 570 0060 5820     		movs	r0, #88
 571 0062 FFF7FEFF 		bl	HAL_NVIC_DisableIRQ
ARM GAS  /var/folders/l4/6w9kflz11csb_6qsyz46nv3c0000gp/T//ccfEea6P.s 			page 19


 572              	.LVL30:
 573              		.loc 1 290 1 is_stmt 0 view .LVU196
 574 0066 D0E7     		b	.L13
 575              	.L18:
 576              		.align	2
 577              	.L17:
 578 0068 00100050 		.word	1342181376
 579 006c 00440258 		.word	1476543488
 580 0070 00100258 		.word	1476530176
 581 0074 00140258 		.word	1476531200
 582 0078 00080258 		.word	1476528128
 583 007c 00000258 		.word	1476526080
 584 0080 00040258 		.word	1476527104
 585 0084 000C0258 		.word	1476529152
 586 0088 00180258 		.word	1476532224
 587              		.cfi_endproc
 588              	.LFE146:
 590              		.text
 591              	.Letext0:
 592              		.file 2 "Drivers/CMSIS/Device/ST/STM32H7xx/Include/stm32h743xx.h"
 593              		.file 3 "/Users/rasil/Library/Application Support/Code/User/globalStorage/bmd.stm32-for-vscode/@xp
 594              		.file 4 "/Users/rasil/Library/Application Support/Code/User/globalStorage/bmd.stm32-for-vscode/@xp
 595              		.file 5 "Drivers/STM32H7xx_HAL_Driver/Inc/stm32h7xx_hal_def.h"
 596              		.file 6 "Drivers/STM32H7xx_HAL_Driver/Inc/stm32h7xx_hal_rcc_ex.h"
 597              		.file 7 "Drivers/STM32H7xx_HAL_Driver/Inc/stm32h7xx_hal_gpio.h"
 598              		.file 8 "Drivers/STM32H7xx_HAL_Driver/Inc/stm32h7xx_hal_ltdc.h"
 599              		.file 9 "Drivers/STM32H7xx_HAL_Driver/Inc/stm32h7xx_hal_cortex.h"
 600              		.file 10 "Core/Inc/main.h"
 601              		.file 11 "<built-in>"
ARM GAS  /var/folders/l4/6w9kflz11csb_6qsyz46nv3c0000gp/T//ccfEea6P.s 			page 20


DEFINED SYMBOLS
                            *ABS*:00000000 stm32h7xx_hal_msp.c
/var/folders/l4/6w9kflz11csb_6qsyz46nv3c0000gp/T//ccfEea6P.s:20     .text.HAL_MspInit:00000000 $t
/var/folders/l4/6w9kflz11csb_6qsyz46nv3c0000gp/T//ccfEea6P.s:26     .text.HAL_MspInit:00000000 HAL_MspInit
/var/folders/l4/6w9kflz11csb_6qsyz46nv3c0000gp/T//ccfEea6P.s:59     .text.HAL_MspInit:00000020 $d
/var/folders/l4/6w9kflz11csb_6qsyz46nv3c0000gp/T//ccfEea6P.s:64     .text.HAL_LTDC_MspInit:00000000 $t
/var/folders/l4/6w9kflz11csb_6qsyz46nv3c0000gp/T//ccfEea6P.s:70     .text.HAL_LTDC_MspInit:00000000 HAL_LTDC_MspInit
/var/folders/l4/6w9kflz11csb_6qsyz46nv3c0000gp/T//ccfEea6P.s:483    .text.HAL_LTDC_MspInit:000001f4 $d
/var/folders/l4/6w9kflz11csb_6qsyz46nv3c0000gp/T//ccfEea6P.s:496    .text.HAL_LTDC_MspDeInit:00000000 $t
/var/folders/l4/6w9kflz11csb_6qsyz46nv3c0000gp/T//ccfEea6P.s:502    .text.HAL_LTDC_MspDeInit:00000000 HAL_LTDC_MspDeInit
/var/folders/l4/6w9kflz11csb_6qsyz46nv3c0000gp/T//ccfEea6P.s:578    .text.HAL_LTDC_MspDeInit:00000068 $d

UNDEFINED SYMBOLS
memset
HAL_RCCEx_PeriphCLKConfig
HAL_GPIO_Init
HAL_NVIC_SetPriority
HAL_NVIC_EnableIRQ
Error_Handler
HAL_GPIO_DeInit
HAL_NVIC_DisableIRQ
