ARM GAS  /var/folders/l4/6w9kflz11csb_6qsyz46nv3c0000gp/T//ccYKKSoe.s 			page 1


   1              		.cpu cortex-m7
   2              		.arch armv7e-m
   3              		.fpu fpv5-d16
   4              		.eabi_attribute 28, 1
   5              		.eabi_attribute 20, 1
   6              		.eabi_attribute 21, 1
   7              		.eabi_attribute 23, 3
   8              		.eabi_attribute 24, 1
   9              		.eabi_attribute 25, 1
  10              		.eabi_attribute 26, 1
  11              		.eabi_attribute 30, 1
  12              		.eabi_attribute 34, 1
  13              		.eabi_attribute 18, 4
  14              		.file	"stm32h7xx_hal_msp.c"
  15              		.text
  16              	.Ltext0:
  17              		.cfi_sections	.debug_frame
  18              		.file 1 "Core/Src/stm32h7xx_hal_msp.c"
  19              		.section	.text.HAL_MspInit,"ax",%progbits
  20              		.align	1
  21              		.global	HAL_MspInit
  22              		.syntax unified
  23              		.thumb
  24              		.thumb_func
  26              	HAL_MspInit:
  27              	.LFB144:
   1:Core/Src/stm32h7xx_hal_msp.c **** /* USER CODE BEGIN Header */
   2:Core/Src/stm32h7xx_hal_msp.c **** /**
   3:Core/Src/stm32h7xx_hal_msp.c ****   ******************************************************************************
   4:Core/Src/stm32h7xx_hal_msp.c ****   * @file         stm32h7xx_hal_msp.c
   5:Core/Src/stm32h7xx_hal_msp.c ****   * @brief        This file provides code for the MSP Initialization
   6:Core/Src/stm32h7xx_hal_msp.c ****   *               and de-Initialization codes.
   7:Core/Src/stm32h7xx_hal_msp.c ****   ******************************************************************************
   8:Core/Src/stm32h7xx_hal_msp.c ****   * @attention
   9:Core/Src/stm32h7xx_hal_msp.c ****   *
  10:Core/Src/stm32h7xx_hal_msp.c ****   * Copyright (c) 2026 STMicroelectronics.
  11:Core/Src/stm32h7xx_hal_msp.c ****   * All rights reserved.
  12:Core/Src/stm32h7xx_hal_msp.c ****   *
  13:Core/Src/stm32h7xx_hal_msp.c ****   * This software is licensed under terms that can be found in the LICENSE file
  14:Core/Src/stm32h7xx_hal_msp.c ****   * in the root directory of this software component.
  15:Core/Src/stm32h7xx_hal_msp.c ****   * If no LICENSE file comes with this software, it is provided AS-IS.
  16:Core/Src/stm32h7xx_hal_msp.c ****   *
  17:Core/Src/stm32h7xx_hal_msp.c ****   ******************************************************************************
  18:Core/Src/stm32h7xx_hal_msp.c ****   */
  19:Core/Src/stm32h7xx_hal_msp.c **** /* USER CODE END Header */
  20:Core/Src/stm32h7xx_hal_msp.c **** 
  21:Core/Src/stm32h7xx_hal_msp.c **** /* Includes ------------------------------------------------------------------*/
  22:Core/Src/stm32h7xx_hal_msp.c **** #include "main.h"
  23:Core/Src/stm32h7xx_hal_msp.c **** /* USER CODE BEGIN Includes */
  24:Core/Src/stm32h7xx_hal_msp.c **** 
  25:Core/Src/stm32h7xx_hal_msp.c **** /* USER CODE END Includes */
  26:Core/Src/stm32h7xx_hal_msp.c **** 
  27:Core/Src/stm32h7xx_hal_msp.c **** /* Private typedef -----------------------------------------------------------*/
  28:Core/Src/stm32h7xx_hal_msp.c **** /* USER CODE BEGIN TD */
  29:Core/Src/stm32h7xx_hal_msp.c **** 
  30:Core/Src/stm32h7xx_hal_msp.c **** /* USER CODE END TD */
  31:Core/Src/stm32h7xx_hal_msp.c **** 
ARM GAS  /var/folders/l4/6w9kflz11csb_6qsyz46nv3c0000gp/T//ccYKKSoe.s 			page 2


  32:Core/Src/stm32h7xx_hal_msp.c **** /* Private define ------------------------------------------------------------*/
  33:Core/Src/stm32h7xx_hal_msp.c **** /* USER CODE BEGIN Define */
  34:Core/Src/stm32h7xx_hal_msp.c **** 
  35:Core/Src/stm32h7xx_hal_msp.c **** /* USER CODE END Define */
  36:Core/Src/stm32h7xx_hal_msp.c **** 
  37:Core/Src/stm32h7xx_hal_msp.c **** /* Private macro -------------------------------------------------------------*/
  38:Core/Src/stm32h7xx_hal_msp.c **** /* USER CODE BEGIN Macro */
  39:Core/Src/stm32h7xx_hal_msp.c **** 
  40:Core/Src/stm32h7xx_hal_msp.c **** /* USER CODE END Macro */
  41:Core/Src/stm32h7xx_hal_msp.c **** 
  42:Core/Src/stm32h7xx_hal_msp.c **** /* Private variables ---------------------------------------------------------*/
  43:Core/Src/stm32h7xx_hal_msp.c **** /* USER CODE BEGIN PV */
  44:Core/Src/stm32h7xx_hal_msp.c **** 
  45:Core/Src/stm32h7xx_hal_msp.c **** /* USER CODE END PV */
  46:Core/Src/stm32h7xx_hal_msp.c **** 
  47:Core/Src/stm32h7xx_hal_msp.c **** /* Private function prototypes -----------------------------------------------*/
  48:Core/Src/stm32h7xx_hal_msp.c **** /* USER CODE BEGIN PFP */
  49:Core/Src/stm32h7xx_hal_msp.c **** 
  50:Core/Src/stm32h7xx_hal_msp.c **** /* USER CODE END PFP */
  51:Core/Src/stm32h7xx_hal_msp.c **** 
  52:Core/Src/stm32h7xx_hal_msp.c **** /* External functions --------------------------------------------------------*/
  53:Core/Src/stm32h7xx_hal_msp.c **** /* USER CODE BEGIN ExternalFunctions */
  54:Core/Src/stm32h7xx_hal_msp.c **** 
  55:Core/Src/stm32h7xx_hal_msp.c **** /* USER CODE END ExternalFunctions */
  56:Core/Src/stm32h7xx_hal_msp.c **** 
  57:Core/Src/stm32h7xx_hal_msp.c **** /* USER CODE BEGIN 0 */
  58:Core/Src/stm32h7xx_hal_msp.c **** 
  59:Core/Src/stm32h7xx_hal_msp.c **** /* USER CODE END 0 */
  60:Core/Src/stm32h7xx_hal_msp.c **** /**
  61:Core/Src/stm32h7xx_hal_msp.c ****   * Initializes the Global MSP.
  62:Core/Src/stm32h7xx_hal_msp.c ****   */
  63:Core/Src/stm32h7xx_hal_msp.c **** void HAL_MspInit(void)
  64:Core/Src/stm32h7xx_hal_msp.c **** {
  28              		.loc 1 64 1 view -0
  29              		.cfi_startproc
  30              		@ args = 0, pretend = 0, frame = 8
  31              		@ frame_needed = 0, uses_anonymous_args = 0
  32              		@ link register save eliminated.
  33 0000 82B0     		sub	sp, sp, #8
  34              		.cfi_def_cfa_offset 8
  65:Core/Src/stm32h7xx_hal_msp.c **** 
  66:Core/Src/stm32h7xx_hal_msp.c ****   /* USER CODE BEGIN MspInit 0 */
  67:Core/Src/stm32h7xx_hal_msp.c **** 
  68:Core/Src/stm32h7xx_hal_msp.c ****   /* USER CODE END MspInit 0 */
  69:Core/Src/stm32h7xx_hal_msp.c **** 
  70:Core/Src/stm32h7xx_hal_msp.c ****   __HAL_RCC_SYSCFG_CLK_ENABLE();
  35              		.loc 1 70 3 view .LVU1
  36              	.LBB2:
  37              		.loc 1 70 3 view .LVU2
  38              		.loc 1 70 3 view .LVU3
  39 0002 074B     		ldr	r3, .L3
  40 0004 D3F8F420 		ldr	r2, [r3, #244]
  41 0008 42F00202 		orr	r2, r2, #2
  42 000c C3F8F420 		str	r2, [r3, #244]
  43              		.loc 1 70 3 view .LVU4
  44 0010 D3F8F430 		ldr	r3, [r3, #244]
  45 0014 03F00203 		and	r3, r3, #2
ARM GAS  /var/folders/l4/6w9kflz11csb_6qsyz46nv3c0000gp/T//ccYKKSoe.s 			page 3


  46 0018 0193     		str	r3, [sp, #4]
  47              		.loc 1 70 3 view .LVU5
  48 001a 019B     		ldr	r3, [sp, #4]
  49              	.LBE2:
  50              		.loc 1 70 3 view .LVU6
  71:Core/Src/stm32h7xx_hal_msp.c **** 
  72:Core/Src/stm32h7xx_hal_msp.c ****   /* System interrupt init*/
  73:Core/Src/stm32h7xx_hal_msp.c **** 
  74:Core/Src/stm32h7xx_hal_msp.c ****   /* USER CODE BEGIN MspInit 1 */
  75:Core/Src/stm32h7xx_hal_msp.c **** 
  76:Core/Src/stm32h7xx_hal_msp.c ****   /* USER CODE END MspInit 1 */
  77:Core/Src/stm32h7xx_hal_msp.c **** }
  51              		.loc 1 77 1 is_stmt 0 view .LVU7
  52 001c 02B0     		add	sp, sp, #8
  53              		.cfi_def_cfa_offset 0
  54              		@ sp needed
  55 001e 7047     		bx	lr
  56              	.L4:
  57              		.align	2
  58              	.L3:
  59 0020 00440258 		.word	1476543488
  60              		.cfi_endproc
  61              	.LFE144:
  63              		.section	.text.HAL_LTDC_MspInit,"ax",%progbits
  64              		.align	1
  65              		.global	HAL_LTDC_MspInit
  66              		.syntax unified
  67              		.thumb
  68              		.thumb_func
  70              	HAL_LTDC_MspInit:
  71              	.LVL0:
  72              	.LFB145:
  78:Core/Src/stm32h7xx_hal_msp.c **** 
  79:Core/Src/stm32h7xx_hal_msp.c **** /**
  80:Core/Src/stm32h7xx_hal_msp.c ****   * @brief LTDC MSP Initialization
  81:Core/Src/stm32h7xx_hal_msp.c ****   * This function configures the hardware resources used in this example
  82:Core/Src/stm32h7xx_hal_msp.c ****   * @param hltdc: LTDC handle pointer
  83:Core/Src/stm32h7xx_hal_msp.c ****   * @retval None
  84:Core/Src/stm32h7xx_hal_msp.c ****   */
  85:Core/Src/stm32h7xx_hal_msp.c **** void HAL_LTDC_MspInit(LTDC_HandleTypeDef* hltdc)
  86:Core/Src/stm32h7xx_hal_msp.c **** {
  73              		.loc 1 86 1 is_stmt 1 view -0
  74              		.cfi_startproc
  75              		@ args = 0, pretend = 0, frame = 56
  76              		@ frame_needed = 0, uses_anonymous_args = 0
  77              		.loc 1 86 1 is_stmt 0 view .LVU9
  78 0000 2DE9F04F 		push	{r4, r5, r6, r7, r8, r9, r10, fp, lr}
  79              		.cfi_def_cfa_offset 36
  80              		.cfi_offset 4, -36
  81              		.cfi_offset 5, -32
  82              		.cfi_offset 6, -28
  83              		.cfi_offset 7, -24
  84              		.cfi_offset 8, -20
  85              		.cfi_offset 9, -16
  86              		.cfi_offset 10, -12
  87              		.cfi_offset 11, -8
  88              		.cfi_offset 14, -4
ARM GAS  /var/folders/l4/6w9kflz11csb_6qsyz46nv3c0000gp/T//ccYKKSoe.s 			page 4


  89 0004 8FB0     		sub	sp, sp, #60
  90              		.cfi_def_cfa_offset 96
  87:Core/Src/stm32h7xx_hal_msp.c ****   GPIO_InitTypeDef GPIO_InitStruct = {0};
  91              		.loc 1 87 3 is_stmt 1 view .LVU10
  92              		.loc 1 87 20 is_stmt 0 view .LVU11
  93 0006 09AD     		add	r5, sp, #36
  94 0008 0024     		movs	r4, #0
  95 000a 0994     		str	r4, [sp, #36]
  96 000c 0A94     		str	r4, [sp, #40]
  97 000e 0B94     		str	r4, [sp, #44]
  98 0010 0C94     		str	r4, [sp, #48]
  99 0012 0D94     		str	r4, [sp, #52]
  88:Core/Src/stm32h7xx_hal_msp.c ****     /* USER CODE BEGIN LTDC_MspInit 0 */
  89:Core/Src/stm32h7xx_hal_msp.c **** 
  90:Core/Src/stm32h7xx_hal_msp.c ****     /* USER CODE END LTDC_MspInit 0 */
  91:Core/Src/stm32h7xx_hal_msp.c **** 
  92:Core/Src/stm32h7xx_hal_msp.c ****   /** Initializes the peripherals clock
  93:Core/Src/stm32h7xx_hal_msp.c **** 
  94:Core/Src/stm32h7xx_hal_msp.c ****     /* Peripheral clock enable */
  95:Core/Src/stm32h7xx_hal_msp.c ****     __HAL_RCC_LTDC_CLK_ENABLE();
 100              		.loc 1 95 5 is_stmt 1 view .LVU12
 101              	.LBB3:
 102              		.loc 1 95 5 view .LVU13
 103              		.loc 1 95 5 view .LVU14
 104 0014 6E4B     		ldr	r3, .L7
 105 0016 D3F8E420 		ldr	r2, [r3, #228]
 106 001a 42F00802 		orr	r2, r2, #8
 107 001e C3F8E420 		str	r2, [r3, #228]
 108              		.loc 1 95 5 view .LVU15
 109 0022 D3F8E420 		ldr	r2, [r3, #228]
 110 0026 02F00802 		and	r2, r2, #8
 111 002a 0192     		str	r2, [sp, #4]
 112              		.loc 1 95 5 view .LVU16
 113 002c 019A     		ldr	r2, [sp, #4]
 114              	.LBE3:
 115              		.loc 1 95 5 view .LVU17
  96:Core/Src/stm32h7xx_hal_msp.c **** 
  97:Core/Src/stm32h7xx_hal_msp.c ****     __HAL_RCC_GPIOE_CLK_ENABLE();
 116              		.loc 1 97 5 view .LVU18
 117              	.LBB4:
 118              		.loc 1 97 5 view .LVU19
 119              		.loc 1 97 5 view .LVU20
 120 002e D3F8E020 		ldr	r2, [r3, #224]
 121 0032 42F01002 		orr	r2, r2, #16
 122 0036 C3F8E020 		str	r2, [r3, #224]
 123              		.loc 1 97 5 view .LVU21
 124 003a D3F8E020 		ldr	r2, [r3, #224]
 125 003e 02F01002 		and	r2, r2, #16
 126 0042 0292     		str	r2, [sp, #8]
 127              		.loc 1 97 5 view .LVU22
 128 0044 029A     		ldr	r2, [sp, #8]
 129              	.LBE4:
 130              		.loc 1 97 5 view .LVU23
  98:Core/Src/stm32h7xx_hal_msp.c ****     __HAL_RCC_GPIOF_CLK_ENABLE();
 131              		.loc 1 98 5 view .LVU24
 132              	.LBB5:
 133              		.loc 1 98 5 view .LVU25
ARM GAS  /var/folders/l4/6w9kflz11csb_6qsyz46nv3c0000gp/T//ccYKKSoe.s 			page 5


 134              		.loc 1 98 5 view .LVU26
 135 0046 D3F8E020 		ldr	r2, [r3, #224]
 136 004a 42F02002 		orr	r2, r2, #32
 137 004e C3F8E020 		str	r2, [r3, #224]
 138              		.loc 1 98 5 view .LVU27
 139 0052 D3F8E020 		ldr	r2, [r3, #224]
 140 0056 02F02002 		and	r2, r2, #32
 141 005a 0392     		str	r2, [sp, #12]
 142              		.loc 1 98 5 view .LVU28
 143 005c 039A     		ldr	r2, [sp, #12]
 144              	.LBE5:
 145              		.loc 1 98 5 view .LVU29
  99:Core/Src/stm32h7xx_hal_msp.c ****     __HAL_RCC_GPIOC_CLK_ENABLE();
 146              		.loc 1 99 5 view .LVU30
 147              	.LBB6:
 148              		.loc 1 99 5 view .LVU31
 149              		.loc 1 99 5 view .LVU32
 150 005e D3F8E020 		ldr	r2, [r3, #224]
 151 0062 42F00402 		orr	r2, r2, #4
 152 0066 C3F8E020 		str	r2, [r3, #224]
 153              		.loc 1 99 5 view .LVU33
 154 006a D3F8E020 		ldr	r2, [r3, #224]
 155 006e 02F00402 		and	r2, r2, #4
 156 0072 0492     		str	r2, [sp, #16]
 157              		.loc 1 99 5 view .LVU34
 158 0074 049A     		ldr	r2, [sp, #16]
 159              	.LBE6:
 160              		.loc 1 99 5 view .LVU35
 100:Core/Src/stm32h7xx_hal_msp.c ****     __HAL_RCC_GPIOA_CLK_ENABLE();
 161              		.loc 1 100 5 view .LVU36
 162              	.LBB7:
 163              		.loc 1 100 5 view .LVU37
 164              		.loc 1 100 5 view .LVU38
 165 0076 D3F8E020 		ldr	r2, [r3, #224]
 166 007a 42F00102 		orr	r2, r2, #1
 167 007e C3F8E020 		str	r2, [r3, #224]
 168              		.loc 1 100 5 view .LVU39
 169 0082 D3F8E020 		ldr	r2, [r3, #224]
 170 0086 02F00102 		and	r2, r2, #1
 171 008a 0592     		str	r2, [sp, #20]
 172              		.loc 1 100 5 view .LVU40
 173 008c 059A     		ldr	r2, [sp, #20]
 174              	.LBE7:
 175              		.loc 1 100 5 view .LVU41
 101:Core/Src/stm32h7xx_hal_msp.c ****     __HAL_RCC_GPIOB_CLK_ENABLE();
 176              		.loc 1 101 5 view .LVU42
 177              	.LBB8:
 178              		.loc 1 101 5 view .LVU43
 179              		.loc 1 101 5 view .LVU44
 180 008e D3F8E020 		ldr	r2, [r3, #224]
 181 0092 42F00202 		orr	r2, r2, #2
 182 0096 C3F8E020 		str	r2, [r3, #224]
 183              		.loc 1 101 5 view .LVU45
 184 009a D3F8E020 		ldr	r2, [r3, #224]
 185 009e 02F00202 		and	r2, r2, #2
 186 00a2 0692     		str	r2, [sp, #24]
 187              		.loc 1 101 5 view .LVU46
ARM GAS  /var/folders/l4/6w9kflz11csb_6qsyz46nv3c0000gp/T//ccYKKSoe.s 			page 6


 188 00a4 069A     		ldr	r2, [sp, #24]
 189              	.LBE8:
 190              		.loc 1 101 5 view .LVU47
 102:Core/Src/stm32h7xx_hal_msp.c ****     __HAL_RCC_GPIOD_CLK_ENABLE();
 191              		.loc 1 102 5 view .LVU48
 192              	.LBB9:
 193              		.loc 1 102 5 view .LVU49
 194              		.loc 1 102 5 view .LVU50
 195 00a6 D3F8E020 		ldr	r2, [r3, #224]
 196 00aa 42F00802 		orr	r2, r2, #8
 197 00ae C3F8E020 		str	r2, [r3, #224]
 198              		.loc 1 102 5 view .LVU51
 199 00b2 D3F8E020 		ldr	r2, [r3, #224]
 200 00b6 02F00802 		and	r2, r2, #8
 201 00ba 0792     		str	r2, [sp, #28]
 202              		.loc 1 102 5 view .LVU52
 203 00bc 079A     		ldr	r2, [sp, #28]
 204              	.LBE9:
 205              		.loc 1 102 5 view .LVU53
 103:Core/Src/stm32h7xx_hal_msp.c ****     __HAL_RCC_GPIOG_CLK_ENABLE();
 206              		.loc 1 103 5 view .LVU54
 207              	.LBB10:
 208              		.loc 1 103 5 view .LVU55
 209              		.loc 1 103 5 view .LVU56
 210 00be D3F8E020 		ldr	r2, [r3, #224]
 211 00c2 42F04002 		orr	r2, r2, #64
 212 00c6 C3F8E020 		str	r2, [r3, #224]
 213              		.loc 1 103 5 view .LVU57
 214 00ca D3F8E030 		ldr	r3, [r3, #224]
 215 00ce 03F04003 		and	r3, r3, #64
 216 00d2 0893     		str	r3, [sp, #32]
 217              		.loc 1 103 5 view .LVU58
 218 00d4 089B     		ldr	r3, [sp, #32]
 219              	.LBE10:
 220              		.loc 1 103 5 view .LVU59
 104:Core/Src/stm32h7xx_hal_msp.c ****     /**LTDC GPIO Configuration
 105:Core/Src/stm32h7xx_hal_msp.c ****     PE4     ------> LTDC_B0
 106:Core/Src/stm32h7xx_hal_msp.c ****     PE5     ------> LTDC_G0
 107:Core/Src/stm32h7xx_hal_msp.c ****     PE6     ------> LTDC_G1
 108:Core/Src/stm32h7xx_hal_msp.c ****     PF10     ------> LTDC_DE
 109:Core/Src/stm32h7xx_hal_msp.c ****     PC0     ------> LTDC_R5
 110:Core/Src/stm32h7xx_hal_msp.c ****     PA1     ------> LTDC_R2
 111:Core/Src/stm32h7xx_hal_msp.c ****     PA2     ------> LTDC_R1
 112:Core/Src/stm32h7xx_hal_msp.c ****     PA3     ------> LTDC_B5
 113:Core/Src/stm32h7xx_hal_msp.c ****     PA4     ------> LTDC_VSYNC
 114:Core/Src/stm32h7xx_hal_msp.c ****     PA5     ------> LTDC_R4
 115:Core/Src/stm32h7xx_hal_msp.c ****     PA6     ------> LTDC_G2
 116:Core/Src/stm32h7xx_hal_msp.c ****     PB0     ------> LTDC_R3
 117:Core/Src/stm32h7xx_hal_msp.c ****     PB1     ------> LTDC_R6
 118:Core/Src/stm32h7xx_hal_msp.c ****     PE11     ------> LTDC_G3
 119:Core/Src/stm32h7xx_hal_msp.c ****     PE12     ------> LTDC_B4
 120:Core/Src/stm32h7xx_hal_msp.c ****     PE14     ------> LTDC_CLK
 121:Core/Src/stm32h7xx_hal_msp.c ****     PE15     ------> LTDC_R7
 122:Core/Src/stm32h7xx_hal_msp.c ****     PB10     ------> LTDC_G4
 123:Core/Src/stm32h7xx_hal_msp.c ****     PB11     ------> LTDC_G5
 124:Core/Src/stm32h7xx_hal_msp.c ****     PD10     ------> LTDC_B3
 125:Core/Src/stm32h7xx_hal_msp.c ****     PG8     ------> LTDC_G7
ARM GAS  /var/folders/l4/6w9kflz11csb_6qsyz46nv3c0000gp/T//ccYKKSoe.s 			page 7


 126:Core/Src/stm32h7xx_hal_msp.c ****     PC6     ------> LTDC_HSYNC
 127:Core/Src/stm32h7xx_hal_msp.c ****     PC7     ------> LTDC_G6
 128:Core/Src/stm32h7xx_hal_msp.c ****     PC9     ------> LTDC_B2
 129:Core/Src/stm32h7xx_hal_msp.c ****     PA10     ------> LTDC_B1
 130:Core/Src/stm32h7xx_hal_msp.c ****     PG13     ------> LTDC_R0
 131:Core/Src/stm32h7xx_hal_msp.c ****     PB8     ------> LTDC_B6
 132:Core/Src/stm32h7xx_hal_msp.c ****     PB9     ------> LTDC_B7
 133:Core/Src/stm32h7xx_hal_msp.c ****     */
 134:Core/Src/stm32h7xx_hal_msp.c ****     GPIO_InitStruct.Pin = GPIO_PIN_4|GPIO_PIN_5|GPIO_PIN_6|GPIO_PIN_11
 221              		.loc 1 134 5 view .LVU60
 222              		.loc 1 134 25 is_stmt 0 view .LVU61
 223 00d6 49F67003 		movw	r3, #39024
 224 00da 0993     		str	r3, [sp, #36]
 135:Core/Src/stm32h7xx_hal_msp.c ****                           |GPIO_PIN_12|GPIO_PIN_15;
 136:Core/Src/stm32h7xx_hal_msp.c ****     GPIO_InitStruct.Mode = GPIO_MODE_AF_PP;
 225              		.loc 1 136 5 is_stmt 1 view .LVU62
 226              		.loc 1 136 26 is_stmt 0 view .LVU63
 227 00dc 0227     		movs	r7, #2
 228 00de 0A97     		str	r7, [sp, #40]
 137:Core/Src/stm32h7xx_hal_msp.c ****     GPIO_InitStruct.Pull = GPIO_NOPULL;
 229              		.loc 1 137 5 is_stmt 1 view .LVU64
 138:Core/Src/stm32h7xx_hal_msp.c ****     GPIO_InitStruct.Speed = GPIO_SPEED_FREQ_VERY_HIGH;
 230              		.loc 1 138 5 view .LVU65
 231              		.loc 1 138 27 is_stmt 0 view .LVU66
 232 00e0 0326     		movs	r6, #3
 233 00e2 0C96     		str	r6, [sp, #48]
 139:Core/Src/stm32h7xx_hal_msp.c ****     GPIO_InitStruct.Alternate = GPIO_AF14_LTDC;
 234              		.loc 1 139 5 is_stmt 1 view .LVU67
 235              		.loc 1 139 31 is_stmt 0 view .LVU68
 236 00e4 4FF00E08 		mov	r8, #14
 237 00e8 CDF83480 		str	r8, [sp, #52]
 140:Core/Src/stm32h7xx_hal_msp.c ****     HAL_GPIO_Init(GPIOE, &GPIO_InitStruct);
 238              		.loc 1 140 5 is_stmt 1 view .LVU69
 239 00ec DFF8F8B0 		ldr	fp, .L7+24
 240 00f0 2946     		mov	r1, r5
 241 00f2 5846     		mov	r0, fp
 242              	.LVL1:
 243              		.loc 1 140 5 is_stmt 0 view .LVU70
 244 00f4 FFF7FEFF 		bl	HAL_GPIO_Init
 245              	.LVL2:
 141:Core/Src/stm32h7xx_hal_msp.c **** 
 142:Core/Src/stm32h7xx_hal_msp.c ****     GPIO_InitStruct.Pin = GPIO_PIN_10;
 246              		.loc 1 142 5 is_stmt 1 view .LVU71
 247              		.loc 1 142 25 is_stmt 0 view .LVU72
 248 00f8 4FF48069 		mov	r9, #1024
 249 00fc CDF82490 		str	r9, [sp, #36]
 143:Core/Src/stm32h7xx_hal_msp.c ****     GPIO_InitStruct.Mode = GPIO_MODE_AF_PP;
 250              		.loc 1 143 5 is_stmt 1 view .LVU73
 251              		.loc 1 143 26 is_stmt 0 view .LVU74
 252 0100 0A97     		str	r7, [sp, #40]
 144:Core/Src/stm32h7xx_hal_msp.c ****     GPIO_InitStruct.Pull = GPIO_NOPULL;
 253              		.loc 1 144 5 is_stmt 1 view .LVU75
 254              		.loc 1 144 26 is_stmt 0 view .LVU76
 255 0102 0B94     		str	r4, [sp, #44]
 145:Core/Src/stm32h7xx_hal_msp.c ****     GPIO_InitStruct.Speed = GPIO_SPEED_FREQ_VERY_HIGH;
 256              		.loc 1 145 5 is_stmt 1 view .LVU77
 257              		.loc 1 145 27 is_stmt 0 view .LVU78
ARM GAS  /var/folders/l4/6w9kflz11csb_6qsyz46nv3c0000gp/T//ccYKKSoe.s 			page 8


 258 0104 0C96     		str	r6, [sp, #48]
 146:Core/Src/stm32h7xx_hal_msp.c ****     GPIO_InitStruct.Alternate = GPIO_AF14_LTDC;
 259              		.loc 1 146 5 is_stmt 1 view .LVU79
 260              		.loc 1 146 31 is_stmt 0 view .LVU80
 261 0106 CDF83480 		str	r8, [sp, #52]
 147:Core/Src/stm32h7xx_hal_msp.c ****     HAL_GPIO_Init(GPIOF, &GPIO_InitStruct);
 262              		.loc 1 147 5 is_stmt 1 view .LVU81
 263 010a 2946     		mov	r1, r5
 264 010c 3148     		ldr	r0, .L7+4
 265 010e FFF7FEFF 		bl	HAL_GPIO_Init
 266              	.LVL3:
 148:Core/Src/stm32h7xx_hal_msp.c **** 
 149:Core/Src/stm32h7xx_hal_msp.c ****     GPIO_InitStruct.Pin = GPIO_PIN_0|GPIO_PIN_6|GPIO_PIN_7|GPIO_PIN_9;
 267              		.loc 1 149 5 view .LVU82
 268              		.loc 1 149 25 is_stmt 0 view .LVU83
 269 0112 40F2C123 		movw	r3, #705
 270 0116 0993     		str	r3, [sp, #36]
 150:Core/Src/stm32h7xx_hal_msp.c ****     GPIO_InitStruct.Mode = GPIO_MODE_AF_PP;
 271              		.loc 1 150 5 is_stmt 1 view .LVU84
 272              		.loc 1 150 26 is_stmt 0 view .LVU85
 273 0118 0A97     		str	r7, [sp, #40]
 151:Core/Src/stm32h7xx_hal_msp.c ****     GPIO_InitStruct.Pull = GPIO_NOPULL;
 274              		.loc 1 151 5 is_stmt 1 view .LVU86
 275              		.loc 1 151 26 is_stmt 0 view .LVU87
 276 011a 0B94     		str	r4, [sp, #44]
 152:Core/Src/stm32h7xx_hal_msp.c ****     GPIO_InitStruct.Speed = GPIO_SPEED_FREQ_VERY_HIGH;
 277              		.loc 1 152 5 is_stmt 1 view .LVU88
 278              		.loc 1 152 27 is_stmt 0 view .LVU89
 279 011c 0C96     		str	r6, [sp, #48]
 153:Core/Src/stm32h7xx_hal_msp.c ****     GPIO_InitStruct.Alternate = GPIO_AF14_LTDC;
 280              		.loc 1 153 5 is_stmt 1 view .LVU90
 281              		.loc 1 153 31 is_stmt 0 view .LVU91
 282 011e CDF83480 		str	r8, [sp, #52]
 154:Core/Src/stm32h7xx_hal_msp.c ****     HAL_GPIO_Init(GPIOC, &GPIO_InitStruct);
 283              		.loc 1 154 5 is_stmt 1 view .LVU92
 284 0122 2946     		mov	r1, r5
 285 0124 2C48     		ldr	r0, .L7+8
 286 0126 FFF7FEFF 		bl	HAL_GPIO_Init
 287              	.LVL4:
 155:Core/Src/stm32h7xx_hal_msp.c **** 
 156:Core/Src/stm32h7xx_hal_msp.c ****     GPIO_InitStruct.Pin = GPIO_PIN_1|GPIO_PIN_2|GPIO_PIN_3|GPIO_PIN_4
 288              		.loc 1 156 5 view .LVU93
 289              		.loc 1 156 25 is_stmt 0 view .LVU94
 290 012a 40F27E43 		movw	r3, #1150
 291 012e 0993     		str	r3, [sp, #36]
 157:Core/Src/stm32h7xx_hal_msp.c ****                           |GPIO_PIN_5|GPIO_PIN_6|GPIO_PIN_10;
 158:Core/Src/stm32h7xx_hal_msp.c ****     GPIO_InitStruct.Mode = GPIO_MODE_AF_PP;
 292              		.loc 1 158 5 is_stmt 1 view .LVU95
 293              		.loc 1 158 26 is_stmt 0 view .LVU96
 294 0130 0A97     		str	r7, [sp, #40]
 159:Core/Src/stm32h7xx_hal_msp.c ****     GPIO_InitStruct.Pull = GPIO_NOPULL;
 295              		.loc 1 159 5 is_stmt 1 view .LVU97
 296              		.loc 1 159 26 is_stmt 0 view .LVU98
 297 0132 0B94     		str	r4, [sp, #44]
 160:Core/Src/stm32h7xx_hal_msp.c ****     GPIO_InitStruct.Speed = GPIO_SPEED_FREQ_VERY_HIGH;
 298              		.loc 1 160 5 is_stmt 1 view .LVU99
 299              		.loc 1 160 27 is_stmt 0 view .LVU100
ARM GAS  /var/folders/l4/6w9kflz11csb_6qsyz46nv3c0000gp/T//ccYKKSoe.s 			page 9


 300 0134 0C96     		str	r6, [sp, #48]
 161:Core/Src/stm32h7xx_hal_msp.c ****     GPIO_InitStruct.Alternate = GPIO_AF14_LTDC;
 301              		.loc 1 161 5 is_stmt 1 view .LVU101
 302              		.loc 1 161 31 is_stmt 0 view .LVU102
 303 0136 CDF83480 		str	r8, [sp, #52]
 162:Core/Src/stm32h7xx_hal_msp.c ****     HAL_GPIO_Init(GPIOA, &GPIO_InitStruct);
 304              		.loc 1 162 5 is_stmt 1 view .LVU103
 305 013a 2946     		mov	r1, r5
 306 013c 2748     		ldr	r0, .L7+12
 307 013e FFF7FEFF 		bl	HAL_GPIO_Init
 308              	.LVL5:
 163:Core/Src/stm32h7xx_hal_msp.c **** 
 164:Core/Src/stm32h7xx_hal_msp.c ****     GPIO_InitStruct.Pin = GPIO_PIN_0|GPIO_PIN_1;
 309              		.loc 1 164 5 view .LVU104
 310              		.loc 1 164 25 is_stmt 0 view .LVU105
 311 0142 0996     		str	r6, [sp, #36]
 165:Core/Src/stm32h7xx_hal_msp.c ****     GPIO_InitStruct.Mode = GPIO_MODE_AF_PP;
 312              		.loc 1 165 5 is_stmt 1 view .LVU106
 313              		.loc 1 165 26 is_stmt 0 view .LVU107
 314 0144 0A97     		str	r7, [sp, #40]
 166:Core/Src/stm32h7xx_hal_msp.c ****     GPIO_InitStruct.Pull = GPIO_NOPULL;
 315              		.loc 1 166 5 is_stmt 1 view .LVU108
 316              		.loc 1 166 26 is_stmt 0 view .LVU109
 317 0146 0B94     		str	r4, [sp, #44]
 167:Core/Src/stm32h7xx_hal_msp.c ****     GPIO_InitStruct.Speed = GPIO_SPEED_FREQ_VERY_HIGH;
 318              		.loc 1 167 5 is_stmt 1 view .LVU110
 319              		.loc 1 167 27 is_stmt 0 view .LVU111
 320 0148 0C96     		str	r6, [sp, #48]
 168:Core/Src/stm32h7xx_hal_msp.c ****     GPIO_InitStruct.Alternate = GPIO_AF9_LTDC;
 321              		.loc 1 168 5 is_stmt 1 view .LVU112
 322              		.loc 1 168 31 is_stmt 0 view .LVU113
 323 014a 0923     		movs	r3, #9
 324 014c 0D93     		str	r3, [sp, #52]
 169:Core/Src/stm32h7xx_hal_msp.c ****     HAL_GPIO_Init(GPIOB, &GPIO_InitStruct);
 325              		.loc 1 169 5 is_stmt 1 view .LVU114
 326 014e DFF89CA0 		ldr	r10, .L7+28
 327 0152 2946     		mov	r1, r5
 328 0154 5046     		mov	r0, r10
 329 0156 FFF7FEFF 		bl	HAL_GPIO_Init
 330              	.LVL6:
 170:Core/Src/stm32h7xx_hal_msp.c **** 
 171:Core/Src/stm32h7xx_hal_msp.c ****     GPIO_InitStruct.Pin = GPIO_PIN_14;
 331              		.loc 1 171 5 view .LVU115
 332              		.loc 1 171 25 is_stmt 0 view .LVU116
 333 015a 4FF48043 		mov	r3, #16384
 334 015e 0993     		str	r3, [sp, #36]
 172:Core/Src/stm32h7xx_hal_msp.c ****     GPIO_InitStruct.Mode = GPIO_MODE_AF_PP;
 335              		.loc 1 172 5 is_stmt 1 view .LVU117
 336              		.loc 1 172 26 is_stmt 0 view .LVU118
 337 0160 0A97     		str	r7, [sp, #40]
 173:Core/Src/stm32h7xx_hal_msp.c ****     GPIO_InitStruct.Pull = GPIO_NOPULL;
 338              		.loc 1 173 5 is_stmt 1 view .LVU119
 339              		.loc 1 173 26 is_stmt 0 view .LVU120
 340 0162 0B94     		str	r4, [sp, #44]
 174:Core/Src/stm32h7xx_hal_msp.c ****     GPIO_InitStruct.Speed = GPIO_SPEED_FREQ_VERY_HIGH;
 341              		.loc 1 174 5 is_stmt 1 view .LVU121
 342              		.loc 1 174 27 is_stmt 0 view .LVU122
ARM GAS  /var/folders/l4/6w9kflz11csb_6qsyz46nv3c0000gp/T//ccYKKSoe.s 			page 10


 343 0164 0C96     		str	r6, [sp, #48]
 175:Core/Src/stm32h7xx_hal_msp.c ****     GPIO_InitStruct.Alternate = GPIO_AF14_LTDC;
 344              		.loc 1 175 5 is_stmt 1 view .LVU123
 345              		.loc 1 175 31 is_stmt 0 view .LVU124
 346 0166 CDF83480 		str	r8, [sp, #52]
 176:Core/Src/stm32h7xx_hal_msp.c ****     HAL_GPIO_Init(GPIOE, &GPIO_InitStruct);
 347              		.loc 1 176 5 is_stmt 1 view .LVU125
 348 016a 2946     		mov	r1, r5
 349 016c 5846     		mov	r0, fp
 350 016e FFF7FEFF 		bl	HAL_GPIO_Init
 351              	.LVL7:
 177:Core/Src/stm32h7xx_hal_msp.c **** 
 178:Core/Src/stm32h7xx_hal_msp.c ****     GPIO_InitStruct.Pin = GPIO_PIN_10|GPIO_PIN_11|GPIO_PIN_8|GPIO_PIN_9;
 352              		.loc 1 178 5 view .LVU126
 353              		.loc 1 178 25 is_stmt 0 view .LVU127
 354 0172 4FF47063 		mov	r3, #3840
 355 0176 0993     		str	r3, [sp, #36]
 179:Core/Src/stm32h7xx_hal_msp.c ****     GPIO_InitStruct.Mode = GPIO_MODE_AF_PP;
 356              		.loc 1 179 5 is_stmt 1 view .LVU128
 357              		.loc 1 179 26 is_stmt 0 view .LVU129
 358 0178 0A97     		str	r7, [sp, #40]
 180:Core/Src/stm32h7xx_hal_msp.c ****     GPIO_InitStruct.Pull = GPIO_NOPULL;
 359              		.loc 1 180 5 is_stmt 1 view .LVU130
 360              		.loc 1 180 26 is_stmt 0 view .LVU131
 361 017a 0B94     		str	r4, [sp, #44]
 181:Core/Src/stm32h7xx_hal_msp.c ****     GPIO_InitStruct.Speed = GPIO_SPEED_FREQ_VERY_HIGH;
 362              		.loc 1 181 5 is_stmt 1 view .LVU132
 363              		.loc 1 181 27 is_stmt 0 view .LVU133
 364 017c 0C96     		str	r6, [sp, #48]
 182:Core/Src/stm32h7xx_hal_msp.c ****     GPIO_InitStruct.Alternate = GPIO_AF14_LTDC;
 365              		.loc 1 182 5 is_stmt 1 view .LVU134
 366              		.loc 1 182 31 is_stmt 0 view .LVU135
 367 017e CDF83480 		str	r8, [sp, #52]
 183:Core/Src/stm32h7xx_hal_msp.c ****     HAL_GPIO_Init(GPIOB, &GPIO_InitStruct);
 368              		.loc 1 183 5 is_stmt 1 view .LVU136
 369 0182 2946     		mov	r1, r5
 370 0184 5046     		mov	r0, r10
 371 0186 FFF7FEFF 		bl	HAL_GPIO_Init
 372              	.LVL8:
 184:Core/Src/stm32h7xx_hal_msp.c **** 
 185:Core/Src/stm32h7xx_hal_msp.c ****     GPIO_InitStruct.Pin = GPIO_PIN_10;
 373              		.loc 1 185 5 view .LVU137
 374              		.loc 1 185 25 is_stmt 0 view .LVU138
 375 018a CDF82490 		str	r9, [sp, #36]
 186:Core/Src/stm32h7xx_hal_msp.c ****     GPIO_InitStruct.Mode = GPIO_MODE_AF_PP;
 376              		.loc 1 186 5 is_stmt 1 view .LVU139
 377              		.loc 1 186 26 is_stmt 0 view .LVU140
 378 018e 0A97     		str	r7, [sp, #40]
 187:Core/Src/stm32h7xx_hal_msp.c ****     GPIO_InitStruct.Pull = GPIO_NOPULL;
 379              		.loc 1 187 5 is_stmt 1 view .LVU141
 380              		.loc 1 187 26 is_stmt 0 view .LVU142
 381 0190 0B94     		str	r4, [sp, #44]
 188:Core/Src/stm32h7xx_hal_msp.c ****     GPIO_InitStruct.Speed = GPIO_SPEED_FREQ_VERY_HIGH;
 382              		.loc 1 188 5 is_stmt 1 view .LVU143
 383              		.loc 1 188 27 is_stmt 0 view .LVU144
 384 0192 0C96     		str	r6, [sp, #48]
 189:Core/Src/stm32h7xx_hal_msp.c ****     GPIO_InitStruct.Alternate = GPIO_AF14_LTDC;
ARM GAS  /var/folders/l4/6w9kflz11csb_6qsyz46nv3c0000gp/T//ccYKKSoe.s 			page 11


 385              		.loc 1 189 5 is_stmt 1 view .LVU145
 386              		.loc 1 189 31 is_stmt 0 view .LVU146
 387 0194 CDF83480 		str	r8, [sp, #52]
 190:Core/Src/stm32h7xx_hal_msp.c ****     HAL_GPIO_Init(GPIOD, &GPIO_InitStruct);
 388              		.loc 1 190 5 is_stmt 1 view .LVU147
 389 0198 2946     		mov	r1, r5
 390 019a 1148     		ldr	r0, .L7+16
 391 019c FFF7FEFF 		bl	HAL_GPIO_Init
 392              	.LVL9:
 191:Core/Src/stm32h7xx_hal_msp.c **** 
 192:Core/Src/stm32h7xx_hal_msp.c ****     GPIO_InitStruct.Pin = GPIO_PIN_8|GPIO_PIN_13;
 393              		.loc 1 192 5 view .LVU148
 394              		.loc 1 192 25 is_stmt 0 view .LVU149
 395 01a0 4FF40453 		mov	r3, #8448
 396 01a4 0993     		str	r3, [sp, #36]
 193:Core/Src/stm32h7xx_hal_msp.c ****     GPIO_InitStruct.Mode = GPIO_MODE_AF_PP;
 397              		.loc 1 193 5 is_stmt 1 view .LVU150
 398              		.loc 1 193 26 is_stmt 0 view .LVU151
 399 01a6 0A97     		str	r7, [sp, #40]
 194:Core/Src/stm32h7xx_hal_msp.c ****     GPIO_InitStruct.Pull = GPIO_NOPULL;
 400              		.loc 1 194 5 is_stmt 1 view .LVU152
 401              		.loc 1 194 26 is_stmt 0 view .LVU153
 402 01a8 0B94     		str	r4, [sp, #44]
 195:Core/Src/stm32h7xx_hal_msp.c ****     GPIO_InitStruct.Speed = GPIO_SPEED_FREQ_VERY_HIGH;
 403              		.loc 1 195 5 is_stmt 1 view .LVU154
 404              		.loc 1 195 27 is_stmt 0 view .LVU155
 405 01aa 0C96     		str	r6, [sp, #48]
 196:Core/Src/stm32h7xx_hal_msp.c ****     GPIO_InitStruct.Alternate = GPIO_AF14_LTDC;
 406              		.loc 1 196 5 is_stmt 1 view .LVU156
 407              		.loc 1 196 31 is_stmt 0 view .LVU157
 408 01ac CDF83480 		str	r8, [sp, #52]
 197:Core/Src/stm32h7xx_hal_msp.c ****     HAL_GPIO_Init(GPIOG, &GPIO_InitStruct);
 409              		.loc 1 197 5 is_stmt 1 view .LVU158
 410 01b0 2946     		mov	r1, r5
 411 01b2 0C48     		ldr	r0, .L7+20
 412 01b4 FFF7FEFF 		bl	HAL_GPIO_Init
 413              	.LVL10:
 198:Core/Src/stm32h7xx_hal_msp.c **** 
 199:Core/Src/stm32h7xx_hal_msp.c ****     /* USER CODE BEGIN LTDC_MspInit 1 */
 200:Core/Src/stm32h7xx_hal_msp.c ****     HAL_NVIC_SetPriority(LTDC_IRQn, 0,0);
 414              		.loc 1 200 5 view .LVU159
 415 01b8 2246     		mov	r2, r4
 416 01ba 2146     		mov	r1, r4
 417 01bc 5820     		movs	r0, #88
 418 01be FFF7FEFF 		bl	HAL_NVIC_SetPriority
 419              	.LVL11:
 201:Core/Src/stm32h7xx_hal_msp.c ****     HAL_NVIC_EnableIRQ(LTDC_IRQn);
 420              		.loc 1 201 5 view .LVU160
 421 01c2 5820     		movs	r0, #88
 422 01c4 FFF7FEFF 		bl	HAL_NVIC_EnableIRQ
 423              	.LVL12:
 202:Core/Src/stm32h7xx_hal_msp.c ****     /* USER CODE END LTDC_MspInit 1 */
 203:Core/Src/stm32h7xx_hal_msp.c **** 
 204:Core/Src/stm32h7xx_hal_msp.c **** }
 424              		.loc 1 204 1 is_stmt 0 view .LVU161
 425 01c8 0FB0     		add	sp, sp, #60
 426              		.cfi_def_cfa_offset 36
ARM GAS  /var/folders/l4/6w9kflz11csb_6qsyz46nv3c0000gp/T//ccYKKSoe.s 			page 12


 427              		@ sp needed
 428 01ca BDE8F08F 		pop	{r4, r5, r6, r7, r8, r9, r10, fp, pc}
 429              	.L8:
 430 01ce 00BF     		.align	2
 431              	.L7:
 432 01d0 00440258 		.word	1476543488
 433 01d4 00140258 		.word	1476531200
 434 01d8 00080258 		.word	1476528128
 435 01dc 00000258 		.word	1476526080
 436 01e0 000C0258 		.word	1476529152
 437 01e4 00180258 		.word	1476532224
 438 01e8 00100258 		.word	1476530176
 439 01ec 00040258 		.word	1476527104
 440              		.cfi_endproc
 441              	.LFE145:
 443              		.section	.text.HAL_LTDC_MspDeInit,"ax",%progbits
 444              		.align	1
 445              		.global	HAL_LTDC_MspDeInit
 446              		.syntax unified
 447              		.thumb
 448              		.thumb_func
 450              	HAL_LTDC_MspDeInit:
 451              	.LVL13:
 452              	.LFB146:
 205:Core/Src/stm32h7xx_hal_msp.c **** 
 206:Core/Src/stm32h7xx_hal_msp.c **** /**
 207:Core/Src/stm32h7xx_hal_msp.c ****   * @brief LTDC MSP De-Initialization
 208:Core/Src/stm32h7xx_hal_msp.c ****   * This function freeze the hardware resources used in this example
 209:Core/Src/stm32h7xx_hal_msp.c ****   * @param hltdc: LTDC handle pointer
 210:Core/Src/stm32h7xx_hal_msp.c ****   * @retval None
 211:Core/Src/stm32h7xx_hal_msp.c ****   */
 212:Core/Src/stm32h7xx_hal_msp.c **** void HAL_LTDC_MspDeInit(LTDC_HandleTypeDef* hltdc)
 213:Core/Src/stm32h7xx_hal_msp.c **** {
 453              		.loc 1 213 1 is_stmt 1 view -0
 454              		.cfi_startproc
 455              		@ args = 0, pretend = 0, frame = 0
 456              		@ frame_needed = 0, uses_anonymous_args = 0
 457              		.loc 1 213 1 is_stmt 0 view .LVU163
 458 0000 08B5     		push	{r3, lr}
 459              		.cfi_def_cfa_offset 8
 460              		.cfi_offset 3, -8
 461              		.cfi_offset 14, -4
 214:Core/Src/stm32h7xx_hal_msp.c ****   if(hltdc->Instance==LTDC)
 462              		.loc 1 214 3 is_stmt 1 view .LVU164
 463              		.loc 1 214 11 is_stmt 0 view .LVU165
 464 0002 0268     		ldr	r2, [r0]
 465              		.loc 1 214 5 view .LVU166
 466 0004 174B     		ldr	r3, .L13
 467 0006 9A42     		cmp	r2, r3
 468 0008 00D0     		beq	.L12
 469              	.LVL14:
 470              	.L9:
 215:Core/Src/stm32h7xx_hal_msp.c ****   {
 216:Core/Src/stm32h7xx_hal_msp.c ****     /* USER CODE BEGIN LTDC_MspDeInit 0 */
 217:Core/Src/stm32h7xx_hal_msp.c **** 
 218:Core/Src/stm32h7xx_hal_msp.c ****     /* USER CODE END LTDC_MspDeInit 0 */
 219:Core/Src/stm32h7xx_hal_msp.c ****     /* Peripheral clock disable */
ARM GAS  /var/folders/l4/6w9kflz11csb_6qsyz46nv3c0000gp/T//ccYKKSoe.s 			page 13


 220:Core/Src/stm32h7xx_hal_msp.c ****     __HAL_RCC_LTDC_CLK_DISABLE();
 221:Core/Src/stm32h7xx_hal_msp.c **** 
 222:Core/Src/stm32h7xx_hal_msp.c ****     /**LTDC GPIO Configuration
 223:Core/Src/stm32h7xx_hal_msp.c ****     PE4     ------> LTDC_B0
 224:Core/Src/stm32h7xx_hal_msp.c ****     PE5     ------> LTDC_G0
 225:Core/Src/stm32h7xx_hal_msp.c ****     PE6     ------> LTDC_G1
 226:Core/Src/stm32h7xx_hal_msp.c ****     PF10     ------> LTDC_DE
 227:Core/Src/stm32h7xx_hal_msp.c ****     PC0     ------> LTDC_R5
 228:Core/Src/stm32h7xx_hal_msp.c ****     PA1     ------> LTDC_R2
 229:Core/Src/stm32h7xx_hal_msp.c ****     PA2     ------> LTDC_R1
 230:Core/Src/stm32h7xx_hal_msp.c ****     PA3     ------> LTDC_B5
 231:Core/Src/stm32h7xx_hal_msp.c ****     PA4     ------> LTDC_VSYNC
 232:Core/Src/stm32h7xx_hal_msp.c ****     PA5     ------> LTDC_R4
 233:Core/Src/stm32h7xx_hal_msp.c ****     PA6     ------> LTDC_G2
 234:Core/Src/stm32h7xx_hal_msp.c ****     PB0     ------> LTDC_R3
 235:Core/Src/stm32h7xx_hal_msp.c ****     PB1     ------> LTDC_R6
 236:Core/Src/stm32h7xx_hal_msp.c ****     PE11     ------> LTDC_G3
 237:Core/Src/stm32h7xx_hal_msp.c ****     PE12     ------> LTDC_B4
 238:Core/Src/stm32h7xx_hal_msp.c ****     PE14     ------> LTDC_CLK
 239:Core/Src/stm32h7xx_hal_msp.c ****     PE15     ------> LTDC_R7
 240:Core/Src/stm32h7xx_hal_msp.c ****     PB10     ------> LTDC_G4
 241:Core/Src/stm32h7xx_hal_msp.c ****     PB11     ------> LTDC_G5
 242:Core/Src/stm32h7xx_hal_msp.c ****     PD10     ------> LTDC_B3
 243:Core/Src/stm32h7xx_hal_msp.c ****     PG8     ------> LTDC_G7
 244:Core/Src/stm32h7xx_hal_msp.c ****     PC6     ------> LTDC_HSYNC
 245:Core/Src/stm32h7xx_hal_msp.c ****     PC7     ------> LTDC_G6
 246:Core/Src/stm32h7xx_hal_msp.c ****     PC9     ------> LTDC_B2
 247:Core/Src/stm32h7xx_hal_msp.c ****     PA10     ------> LTDC_B1
 248:Core/Src/stm32h7xx_hal_msp.c ****     PG13     ------> LTDC_R0
 249:Core/Src/stm32h7xx_hal_msp.c ****     PB8     ------> LTDC_B6
 250:Core/Src/stm32h7xx_hal_msp.c ****     PB9     ------> LTDC_B7
 251:Core/Src/stm32h7xx_hal_msp.c ****     */
 252:Core/Src/stm32h7xx_hal_msp.c ****     HAL_GPIO_DeInit(GPIOE, GPIO_PIN_4|GPIO_PIN_5|GPIO_PIN_6|GPIO_PIN_11
 253:Core/Src/stm32h7xx_hal_msp.c ****                           |GPIO_PIN_12|GPIO_PIN_14|GPIO_PIN_15);
 254:Core/Src/stm32h7xx_hal_msp.c **** 
 255:Core/Src/stm32h7xx_hal_msp.c ****     HAL_GPIO_DeInit(GPIOF, GPIO_PIN_10);
 256:Core/Src/stm32h7xx_hal_msp.c **** 
 257:Core/Src/stm32h7xx_hal_msp.c ****     HAL_GPIO_DeInit(GPIOC, GPIO_PIN_0|GPIO_PIN_6|GPIO_PIN_7|GPIO_PIN_9);
 258:Core/Src/stm32h7xx_hal_msp.c **** 
 259:Core/Src/stm32h7xx_hal_msp.c ****     HAL_GPIO_DeInit(GPIOA, GPIO_PIN_1|GPIO_PIN_2|GPIO_PIN_3|GPIO_PIN_4
 260:Core/Src/stm32h7xx_hal_msp.c ****                           |GPIO_PIN_5|GPIO_PIN_6|GPIO_PIN_10);
 261:Core/Src/stm32h7xx_hal_msp.c **** 
 262:Core/Src/stm32h7xx_hal_msp.c ****     HAL_GPIO_DeInit(GPIOB, GPIO_PIN_0|GPIO_PIN_1|GPIO_PIN_10|GPIO_PIN_11
 263:Core/Src/stm32h7xx_hal_msp.c ****                           |GPIO_PIN_8|GPIO_PIN_9);
 264:Core/Src/stm32h7xx_hal_msp.c **** 
 265:Core/Src/stm32h7xx_hal_msp.c ****     HAL_GPIO_DeInit(GPIOD, GPIO_PIN_10);
 266:Core/Src/stm32h7xx_hal_msp.c **** 
 267:Core/Src/stm32h7xx_hal_msp.c ****     HAL_GPIO_DeInit(GPIOG, GPIO_PIN_8|GPIO_PIN_13);
 268:Core/Src/stm32h7xx_hal_msp.c **** 
 269:Core/Src/stm32h7xx_hal_msp.c ****     /* USER CODE BEGIN LTDC_MspDeInit 1 */
 270:Core/Src/stm32h7xx_hal_msp.c **** 
 271:Core/Src/stm32h7xx_hal_msp.c ****     /* USER CODE END LTDC_MspDeInit 1 */
 272:Core/Src/stm32h7xx_hal_msp.c ****   }
 273:Core/Src/stm32h7xx_hal_msp.c **** 
 274:Core/Src/stm32h7xx_hal_msp.c **** }
 471              		.loc 1 274 1 view .LVU167
 472 000a 08BD     		pop	{r3, pc}
ARM GAS  /var/folders/l4/6w9kflz11csb_6qsyz46nv3c0000gp/T//ccYKKSoe.s 			page 14


 473              	.LVL15:
 474              	.L12:
 220:Core/Src/stm32h7xx_hal_msp.c **** 
 475              		.loc 1 220 5 is_stmt 1 view .LVU168
 476 000c 164A     		ldr	r2, .L13+4
 477 000e D2F8E430 		ldr	r3, [r2, #228]
 478 0012 23F00803 		bic	r3, r3, #8
 479 0016 C2F8E430 		str	r3, [r2, #228]
 252:Core/Src/stm32h7xx_hal_msp.c ****                           |GPIO_PIN_12|GPIO_PIN_14|GPIO_PIN_15);
 480              		.loc 1 252 5 view .LVU169
 481 001a 4DF67001 		movw	r1, #55408
 482 001e 1348     		ldr	r0, .L13+8
 483              	.LVL16:
 252:Core/Src/stm32h7xx_hal_msp.c ****                           |GPIO_PIN_12|GPIO_PIN_14|GPIO_PIN_15);
 484              		.loc 1 252 5 is_stmt 0 view .LVU170
 485 0020 FFF7FEFF 		bl	HAL_GPIO_DeInit
 486              	.LVL17:
 255:Core/Src/stm32h7xx_hal_msp.c **** 
 487              		.loc 1 255 5 is_stmt 1 view .LVU171
 488 0024 4FF48061 		mov	r1, #1024
 489 0028 1148     		ldr	r0, .L13+12
 490 002a FFF7FEFF 		bl	HAL_GPIO_DeInit
 491              	.LVL18:
 257:Core/Src/stm32h7xx_hal_msp.c **** 
 492              		.loc 1 257 5 view .LVU172
 493 002e 40F2C121 		movw	r1, #705
 494 0032 1048     		ldr	r0, .L13+16
 495 0034 FFF7FEFF 		bl	HAL_GPIO_DeInit
 496              	.LVL19:
 259:Core/Src/stm32h7xx_hal_msp.c ****                           |GPIO_PIN_5|GPIO_PIN_6|GPIO_PIN_10);
 497              		.loc 1 259 5 view .LVU173
 498 0038 40F27E41 		movw	r1, #1150
 499 003c 0E48     		ldr	r0, .L13+20
 500 003e FFF7FEFF 		bl	HAL_GPIO_DeInit
 501              	.LVL20:
 262:Core/Src/stm32h7xx_hal_msp.c ****                           |GPIO_PIN_8|GPIO_PIN_9);
 502              		.loc 1 262 5 view .LVU174
 503 0042 40F60371 		movw	r1, #3843
 504 0046 0D48     		ldr	r0, .L13+24
 505 0048 FFF7FEFF 		bl	HAL_GPIO_DeInit
 506              	.LVL21:
 265:Core/Src/stm32h7xx_hal_msp.c **** 
 507              		.loc 1 265 5 view .LVU175
 508 004c 4FF48061 		mov	r1, #1024
 509 0050 0B48     		ldr	r0, .L13+28
 510 0052 FFF7FEFF 		bl	HAL_GPIO_DeInit
 511              	.LVL22:
 267:Core/Src/stm32h7xx_hal_msp.c **** 
 512              		.loc 1 267 5 view .LVU176
 513 0056 4FF40451 		mov	r1, #8448
 514 005a 0A48     		ldr	r0, .L13+32
 515 005c FFF7FEFF 		bl	HAL_GPIO_DeInit
 516              	.LVL23:
 517              		.loc 1 274 1 is_stmt 0 view .LVU177
 518 0060 D3E7     		b	.L9
 519              	.L14:
 520 0062 00BF     		.align	2
ARM GAS  /var/folders/l4/6w9kflz11csb_6qsyz46nv3c0000gp/T//ccYKKSoe.s 			page 15


 521              	.L13:
 522 0064 00100050 		.word	1342181376
 523 0068 00440258 		.word	1476543488
 524 006c 00100258 		.word	1476530176
 525 0070 00140258 		.word	1476531200
 526 0074 00080258 		.word	1476528128
 527 0078 00000258 		.word	1476526080
 528 007c 00040258 		.word	1476527104
 529 0080 000C0258 		.word	1476529152
 530 0084 00180258 		.word	1476532224
 531              		.cfi_endproc
 532              	.LFE146:
 534              		.text
 535              	.Letext0:
 536              		.file 2 "Drivers/CMSIS/Device/ST/STM32H7xx/Include/stm32h743xx.h"
 537              		.file 3 "/Users/rasil/Library/Application Support/Code/User/globalStorage/bmd.stm32-for-vscode/@xp
 538              		.file 4 "/Users/rasil/Library/Application Support/Code/User/globalStorage/bmd.stm32-for-vscode/@xp
 539              		.file 5 "Drivers/STM32H7xx_HAL_Driver/Inc/stm32h7xx_hal_def.h"
 540              		.file 6 "Drivers/STM32H7xx_HAL_Driver/Inc/stm32h7xx_hal_gpio.h"
 541              		.file 7 "Drivers/STM32H7xx_HAL_Driver/Inc/stm32h7xx_hal_ltdc.h"
 542              		.file 8 "Drivers/STM32H7xx_HAL_Driver/Inc/stm32h7xx_hal_cortex.h"
ARM GAS  /var/folders/l4/6w9kflz11csb_6qsyz46nv3c0000gp/T//ccYKKSoe.s 			page 16

