ARM GAS  /var/folders/l4/6w9kflz11csb_6qsyz46nv3c0000gp/T//ccAOOg7d.s 			page 1


   1              		.cpu cortex-m7
   2              		.arch armv7e-m
   3              		.fpu fpv5-d16
   4              		.eabi_attribute 28, 1
   5              		.eabi_attribute 20, 1
   6              		.eabi_attribute 21, 1
   7              		.eabi_attribute 23, 3
   8              		.eabi_attribute 24, 1
   9              		.eabi_attribute 25, 1
  10              		.eabi_attribute 26, 1
  11              		.eabi_attribute 30, 1
  12              		.eabi_attribute 34, 1
  13              		.eabi_attribute 18, 4
  14              		.file	"main.c"
  15              		.text
  16              		.section	.text.MX_GPIO_Init,"ax",%progbits
  17              		.align	1
  18              		.syntax unified
  19              		.thumb
  20              		.thumb_func
  22              	MX_GPIO_Init:
  23              		@ args = 0, pretend = 0, frame = 32
  24              		@ frame_needed = 0, uses_anonymous_args = 0
  25              		@ link register save eliminated.
  26 0000 88B0     		sub	sp, sp, #32
  27 0002 2B4B     		ldr	r3, .L3
  28 0004 D3F8E020 		ldr	r2, [r3, #224]
  29 0008 42F01002 		orr	r2, r2, #16
  30 000c C3F8E020 		str	r2, [r3, #224]
  31 0010 D3F8E020 		ldr	r2, [r3, #224]
  32 0014 02F01002 		and	r2, r2, #16
  33 0018 0192     		str	r2, [sp, #4]
  34 001a 019A     		ldr	r2, [sp, #4]
  35 001c D3F8E020 		ldr	r2, [r3, #224]
  36 0020 42F02002 		orr	r2, r2, #32
  37 0024 C3F8E020 		str	r2, [r3, #224]
  38 0028 D3F8E020 		ldr	r2, [r3, #224]
  39 002c 02F02002 		and	r2, r2, #32
  40 0030 0292     		str	r2, [sp, #8]
  41 0032 029A     		ldr	r2, [sp, #8]
  42 0034 D3F8E020 		ldr	r2, [r3, #224]
  43 0038 42F00402 		orr	r2, r2, #4
  44 003c C3F8E020 		str	r2, [r3, #224]
  45 0040 D3F8E020 		ldr	r2, [r3, #224]
  46 0044 02F00402 		and	r2, r2, #4
  47 0048 0392     		str	r2, [sp, #12]
  48 004a 039A     		ldr	r2, [sp, #12]
  49 004c D3F8E020 		ldr	r2, [r3, #224]
  50 0050 42F00102 		orr	r2, r2, #1
  51 0054 C3F8E020 		str	r2, [r3, #224]
  52 0058 D3F8E020 		ldr	r2, [r3, #224]
  53 005c 02F00102 		and	r2, r2, #1
  54 0060 0492     		str	r2, [sp, #16]
  55 0062 049A     		ldr	r2, [sp, #16]
  56 0064 D3F8E020 		ldr	r2, [r3, #224]
  57 0068 42F00202 		orr	r2, r2, #2
  58 006c C3F8E020 		str	r2, [r3, #224]
ARM GAS  /var/folders/l4/6w9kflz11csb_6qsyz46nv3c0000gp/T//ccAOOg7d.s 			page 2


  59 0070 D3F8E020 		ldr	r2, [r3, #224]
  60 0074 02F00202 		and	r2, r2, #2
  61 0078 0592     		str	r2, [sp, #20]
  62 007a 059A     		ldr	r2, [sp, #20]
  63 007c D3F8E020 		ldr	r2, [r3, #224]
  64 0080 42F00802 		orr	r2, r2, #8
  65 0084 C3F8E020 		str	r2, [r3, #224]
  66 0088 D3F8E020 		ldr	r2, [r3, #224]
  67 008c 02F00802 		and	r2, r2, #8
  68 0090 0692     		str	r2, [sp, #24]
  69 0092 069A     		ldr	r2, [sp, #24]
  70 0094 D3F8E020 		ldr	r2, [r3, #224]
  71 0098 42F04002 		orr	r2, r2, #64
  72 009c C3F8E020 		str	r2, [r3, #224]
  73 00a0 D3F8E030 		ldr	r3, [r3, #224]
  74 00a4 03F04003 		and	r3, r3, #64
  75 00a8 0793     		str	r3, [sp, #28]
  76 00aa 079B     		ldr	r3, [sp, #28]
  77 00ac 08B0     		add	sp, sp, #32
  78              		@ sp needed
  79 00ae 7047     		bx	lr
  80              	.L4:
  81              		.align	2
  82              	.L3:
  83 00b0 00440258 		.word	1476543488
  85              		.section	.text.MPU_Config,"ax",%progbits
  86              		.align	1
  87              		.syntax unified
  88              		.thumb
  89              		.thumb_func
  91              	MPU_Config:
  92              		@ args = 0, pretend = 0, frame = 16
  93              		@ frame_needed = 0, uses_anonymous_args = 0
  94 0000 30B5     		push	{r4, r5, lr}
  95 0002 85B0     		sub	sp, sp, #20
  96 0004 0024     		movs	r4, #0
  97 0006 0094     		str	r4, [sp]
  98 0008 0194     		str	r4, [sp, #4]
  99 000a 0294     		str	r4, [sp, #8]
 100 000c 0394     		str	r4, [sp, #12]
 101 000e FFF7FEFF 		bl	HAL_MPU_Disable
 102 0012 0123     		movs	r3, #1
 103 0014 8DF80030 		strb	r3, [sp]
 104 0018 8DF80140 		strb	r4, [sp, #1]
 105 001c 0194     		str	r4, [sp, #4]
 106 001e 1F22     		movs	r2, #31
 107 0020 8DF80820 		strb	r2, [sp, #8]
 108 0024 8722     		movs	r2, #135
 109 0026 8DF80920 		strb	r2, [sp, #9]
 110 002a 8DF80A40 		strb	r4, [sp, #10]
 111 002e 8DF80B40 		strb	r4, [sp, #11]
 112 0032 8DF80C30 		strb	r3, [sp, #12]
 113 0036 8DF80D30 		strb	r3, [sp, #13]
 114 003a 8DF80E40 		strb	r4, [sp, #14]
 115 003e 8DF80F40 		strb	r4, [sp, #15]
 116 0042 6846     		mov	r0, sp
 117 0044 FFF7FEFF 		bl	HAL_MPU_ConfigRegion
ARM GAS  /var/folders/l4/6w9kflz11csb_6qsyz46nv3c0000gp/T//ccAOOg7d.s 			page 3


 118 0048 0420     		movs	r0, #4
 119 004a FFF7FEFF 		bl	HAL_MPU_Enable
 120 004e 05B0     		add	sp, sp, #20
 121              		@ sp needed
 122 0050 30BD     		pop	{r4, r5, pc}
 124              		.section	.text.FillStrip,"ax",%progbits
 125              		.align	1
 126              		.global	FillStrip
 127              		.syntax unified
 128              		.thumb
 129              		.thumb_func
 131              	FillStrip:
 132              		@ args = 0, pretend = 0, frame = 0
 133              		@ frame_needed = 0, uses_anonymous_args = 0
 134              		@ link register save eliminated.
 135 0000 8446     		mov	ip, r0
 136 0002 0021     		movs	r1, #0
 137 0004 0BE0     		b	.L8
 138              	.L9:
 139 0006 01EB8102 		add	r2, r1, r1, lsl #2
 140 000a 03EB0222 		add	r2, r3, r2, lsl #8
 141 000e FF20     		movs	r0, #255
 142 0010 0CF80200 		strb	r0, [ip, r2]
 143 0014 0133     		adds	r3, r3, #1
 144              	.L10:
 145 0016 B3F5A06F 		cmp	r3, #1280
 146 001a F4D3     		bcc	.L9
 147 001c 0131     		adds	r1, r1, #1
 148              	.L8:
 149 001e C729     		cmp	r1, #199
 150 0020 01D8     		bhi	.L12
 151 0022 0023     		movs	r3, #0
 152 0024 F7E7     		b	.L10
 153              	.L12:
 154 0026 7047     		bx	lr
 156              		.section	.text.LTDC_IRQHandler,"ax",%progbits
 157              		.align	1
 158              		.global	LTDC_IRQHandler
 159              		.syntax unified
 160              		.thumb
 161              		.thumb_func
 163              	LTDC_IRQHandler:
 164              		@ args = 0, pretend = 0, frame = 0
 165              		@ frame_needed = 0, uses_anonymous_args = 0
 166 0000 08B5     		push	{r3, lr}
 167 0002 134B     		ldr	r3, .L17
 168 0004 1B68     		ldr	r3, [r3]
 169 0006 9A6B     		ldr	r2, [r3, #56]
 170 0008 12F0010F 		tst	r2, #1
 171 000c 13D0     		beq	.L13
 172 000e 0122     		movs	r2, #1
 173 0010 DA63     		str	r2, [r3, #60]
 174 0012 104B     		ldr	r3, .L17+4
 175 0014 1A68     		ldr	r2, [r3]
 176 0016 0132     		adds	r2, r2, #1
 177 0018 1A60     		str	r2, [r3]
 178 001a 1B68     		ldr	r3, [r3]
ARM GAS  /var/folders/l4/6w9kflz11csb_6qsyz46nv3c0000gp/T//ccAOOg7d.s 			page 4


 179 001c 0B2B     		cmp	r3, #11
 180 001e 0BD8     		bhi	.L15
 181 0020 0D48     		ldr	r0, .L17+8
 182 0022 FFF7FEFF 		bl	FillStrip
 183 0026 0B4B     		ldr	r3, .L17+4
 184 0028 1B68     		ldr	r3, [r3]
 185 002a C821     		movs	r1, #200
 186 002c 03FB0111 		mla	r1, r3, r1, r1
 187 0030 0748     		ldr	r0, .L17
 188 0032 FFF7FEFF 		bl	HAL_LTDC_ProgramLineEvent
 189              	.L13:
 190 0036 08BD     		pop	{r3, pc}
 191              	.L15:
 192 0038 064B     		ldr	r3, .L17+4
 193 003a 0022     		movs	r2, #0
 194 003c 1A60     		str	r2, [r3]
 195 003e 0648     		ldr	r0, .L17+8
 196 0040 FFF7FEFF 		bl	FillStrip
 197 0044 C821     		movs	r1, #200
 198 0046 0248     		ldr	r0, .L17
 199 0048 FFF7FEFF 		bl	HAL_LTDC_ProgramLineEvent
 200 004c F3E7     		b	.L13
 201              	.L18:
 202 004e 00BF     		.align	2
 203              	.L17:
 204 0050 00000000 		.word	hltdc
 205 0054 00000000 		.word	current_strip
 206 0058 00000000 		.word	strip_buffer1
 208              		.section	.text.Error_Handler,"ax",%progbits
 209              		.align	1
 210              		.global	Error_Handler
 211              		.syntax unified
 212              		.thumb
 213              		.thumb_func
 215              	Error_Handler:
 216              		@ Volatile: function does not return.
 217              		@ args = 0, pretend = 0, frame = 0
 218              		@ frame_needed = 0, uses_anonymous_args = 0
 219              		@ link register save eliminated.
 220              		.syntax unified
 221              	@ 209 "Drivers/CMSIS/Include/cmsis_gcc.h" 1
 222 0000 72B6     		cpsid i
 223              	@ 0 "" 2
 224              		.thumb
 225              		.syntax unified
 226              	.L20:
 227 0002 FEE7     		b	.L20
 229              		.section	.text.MX_LTDC_Init,"ax",%progbits
 230              		.align	1
 231              		.syntax unified
 232              		.thumb
 233              		.thumb_func
 235              	MX_LTDC_Init:
 236              		@ args = 0, pretend = 0, frame = 56
 237              		@ frame_needed = 0, uses_anonymous_args = 0
 238 0000 00B5     		push	{lr}
 239 0002 8FB0     		sub	sp, sp, #60
ARM GAS  /var/folders/l4/6w9kflz11csb_6qsyz46nv3c0000gp/T//ccAOOg7d.s 			page 5


 240 0004 3422     		movs	r2, #52
 241 0006 0021     		movs	r1, #0
 242 0008 01A8     		add	r0, sp, #4
 243 000a FFF7FEFF 		bl	memset
 244 000e 3048     		ldr	r0, .L29
 245 0010 304B     		ldr	r3, .L29+4
 246 0012 0360     		str	r3, [r0]
 247 0014 0023     		movs	r3, #0
 248 0016 4360     		str	r3, [r0, #4]
 249 0018 8360     		str	r3, [r0, #8]
 250 001a C360     		str	r3, [r0, #12]
 251 001c 0361     		str	r3, [r0, #16]
 252 001e 3122     		movs	r2, #49
 253 0020 4261     		str	r2, [r0, #20]
 254 0022 8261     		str	r2, [r0, #24]
 255 0024 6322     		movs	r2, #99
 256 0026 C261     		str	r2, [r0, #28]
 257 0028 0262     		str	r2, [r0, #32]
 258 002a 40F26352 		movw	r2, #1379
 259 002e 4262     		str	r2, [r0, #36]
 260 0030 40F6C312 		movw	r2, #2499
 261 0034 8262     		str	r2, [r0, #40]
 262 0036 40F29552 		movw	r2, #1429
 263 003a C262     		str	r2, [r0, #44]
 264 003c 40F6F512 		movw	r2, #2549
 265 0040 0263     		str	r2, [r0, #48]
 266 0042 80F83430 		strb	r3, [r0, #52]
 267 0046 80F83530 		strb	r3, [r0, #53]
 268 004a 80F83630 		strb	r3, [r0, #54]
 269 004e FFF7FEFF 		bl	HAL_LTDC_Init
 270 0052 20BB     		cbnz	r0, .L27
 271 0054 0023     		movs	r3, #0
 272 0056 0193     		str	r3, [sp, #4]
 273 0058 4FF4A061 		mov	r1, #1280
 274 005c 0291     		str	r1, [sp, #8]
 275 005e 0393     		str	r3, [sp, #12]
 276 0060 4FF41662 		mov	r2, #2400
 277 0064 0492     		str	r2, [sp, #16]
 278 0066 0520     		movs	r0, #5
 279 0068 0590     		str	r0, [sp, #20]
 280 006a FF20     		movs	r0, #255
 281 006c 0690     		str	r0, [sp, #24]
 282 006e 0793     		str	r3, [sp, #28]
 283 0070 4FF4C060 		mov	r0, #1536
 284 0074 0890     		str	r0, [sp, #32]
 285 0076 0720     		movs	r0, #7
 286 0078 0990     		str	r0, [sp, #36]
 287 007a 1748     		ldr	r0, .L29+8
 288 007c 0A90     		str	r0, [sp, #40]
 289 007e 0B91     		str	r1, [sp, #44]
 290 0080 0C92     		str	r2, [sp, #48]
 291 0082 8DF83430 		strb	r3, [sp, #52]
 292 0086 8DF83530 		strb	r3, [sp, #53]
 293 008a 8DF83630 		strb	r3, [sp, #54]
 294 008e 0122     		movs	r2, #1
 295 0090 01A9     		add	r1, sp, #4
 296 0092 0F48     		ldr	r0, .L29
ARM GAS  /var/folders/l4/6w9kflz11csb_6qsyz46nv3c0000gp/T//ccAOOg7d.s 			page 6


 297 0094 FFF7FEFF 		bl	HAL_LTDC_ConfigLayer
 298 0098 18B9     		cbnz	r0, .L28
 299 009a 0023     		movs	r3, #0
 300 009c 0BE0     		b	.L23
 301              	.L27:
 302 009e FFF7FEFF 		bl	Error_Handler
 303              	.L28:
 304 00a2 FFF7FEFF 		bl	Error_Handler
 305              	.L24:
 306 00a6 1A02     		lsls	r2, r3, #8
 307 00a8 42EA0342 		orr	r2, r2, r3, lsl #16
 308 00ac 1A43     		orrs	r2, r2, r3
 309 00ae 0B49     		ldr	r1, .L29+12
 310 00b0 41F82320 		str	r2, [r1, r3, lsl #2]
 311 00b4 0133     		adds	r3, r3, #1
 312              	.L23:
 313 00b6 FF2B     		cmp	r3, #255
 314 00b8 F5DD     		ble	.L24
 315 00ba 0023     		movs	r3, #0
 316 00bc 4FF48072 		mov	r2, #256
 317 00c0 0649     		ldr	r1, .L29+12
 318 00c2 0348     		ldr	r0, .L29
 319 00c4 FFF7FEFF 		bl	HAL_LTDC_ConfigCLUT
 320 00c8 0FB0     		add	sp, sp, #60
 321              		@ sp needed
 322 00ca 5DF804FB 		ldr	pc, [sp], #4
 323              	.L30:
 324 00ce 00BF     		.align	2
 325              	.L29:
 326 00d0 00000000 		.word	hltdc
 327 00d4 00100050 		.word	1342181376
 328 00d8 00000000 		.word	strip_buffer1
 329 00dc 00000000 		.word	clut
 331              		.section	.text.SystemClock_Config,"ax",%progbits
 332              		.align	1
 333              		.global	SystemClock_Config
 334              		.syntax unified
 335              		.thumb
 336              		.thumb_func
 338              	SystemClock_Config:
 339              		@ args = 0, pretend = 0, frame = 112
 340              		@ frame_needed = 0, uses_anonymous_args = 0
 341 0000 00B5     		push	{lr}
 342 0002 9DB0     		sub	sp, sp, #116
 343 0004 4C22     		movs	r2, #76
 344 0006 0021     		movs	r1, #0
 345 0008 09A8     		add	r0, sp, #36
 346 000a FFF7FEFF 		bl	memset
 347 000e 2022     		movs	r2, #32
 348 0010 0021     		movs	r1, #0
 349 0012 01A8     		add	r0, sp, #4
 350 0014 FFF7FEFF 		bl	memset
 351 0018 0220     		movs	r0, #2
 352 001a FFF7FEFF 		bl	HAL_PWREx_ConfigSupply
 353 001e 0023     		movs	r3, #0
 354 0020 0093     		str	r3, [sp]
 355 0022 264B     		ldr	r3, .L38
ARM GAS  /var/folders/l4/6w9kflz11csb_6qsyz46nv3c0000gp/T//ccAOOg7d.s 			page 7


 356 0024 DA6A     		ldr	r2, [r3, #44]
 357 0026 22F00102 		bic	r2, r2, #1
 358 002a DA62     		str	r2, [r3, #44]
 359 002c DB6A     		ldr	r3, [r3, #44]
 360 002e 03F00103 		and	r3, r3, #1
 361 0032 0093     		str	r3, [sp]
 362 0034 224B     		ldr	r3, .L38+4
 363 0036 9A69     		ldr	r2, [r3, #24]
 364 0038 42F44042 		orr	r2, r2, #49152
 365 003c 9A61     		str	r2, [r3, #24]
 366 003e 9B69     		ldr	r3, [r3, #24]
 367 0040 03F44043 		and	r3, r3, #49152
 368 0044 0093     		str	r3, [sp]
 369 0046 009B     		ldr	r3, [sp]
 370              	.L32:
 371 0048 1D4B     		ldr	r3, .L38+4
 372 004a 9B69     		ldr	r3, [r3, #24]
 373 004c 13F4005F 		tst	r3, #8192
 374 0050 FAD0     		beq	.L32
 375 0052 0223     		movs	r3, #2
 376 0054 0993     		str	r3, [sp, #36]
 377 0056 0122     		movs	r2, #1
 378 0058 0C92     		str	r2, [sp, #48]
 379 005a 4022     		movs	r2, #64
 380 005c 0D92     		str	r2, [sp, #52]
 381 005e 1293     		str	r3, [sp, #72]
 382 0060 0022     		movs	r2, #0
 383 0062 1392     		str	r2, [sp, #76]
 384 0064 2021     		movs	r1, #32
 385 0066 1491     		str	r1, [sp, #80]
 386 0068 4FF4C871 		mov	r1, #400
 387 006c 1591     		str	r1, [sp, #84]
 388 006e 1693     		str	r3, [sp, #88]
 389 0070 1793     		str	r3, [sp, #92]
 390 0072 1893     		str	r3, [sp, #96]
 391 0074 0423     		movs	r3, #4
 392 0076 1993     		str	r3, [sp, #100]
 393 0078 1A92     		str	r2, [sp, #104]
 394 007a 1B92     		str	r2, [sp, #108]
 395 007c 09A8     		add	r0, sp, #36
 396 007e FFF7FEFF 		bl	HAL_RCC_OscConfig
 397 0082 B8B9     		cbnz	r0, .L36
 398 0084 3F23     		movs	r3, #63
 399 0086 0193     		str	r3, [sp, #4]
 400 0088 0323     		movs	r3, #3
 401 008a 0293     		str	r3, [sp, #8]
 402 008c 0023     		movs	r3, #0
 403 008e 0393     		str	r3, [sp, #12]
 404 0090 0823     		movs	r3, #8
 405 0092 0493     		str	r3, [sp, #16]
 406 0094 5023     		movs	r3, #80
 407 0096 0593     		str	r3, [sp, #20]
 408 0098 0693     		str	r3, [sp, #24]
 409 009a 4FF48063 		mov	r3, #1024
 410 009e 0793     		str	r3, [sp, #28]
 411 00a0 4023     		movs	r3, #64
 412 00a2 0893     		str	r3, [sp, #32]
ARM GAS  /var/folders/l4/6w9kflz11csb_6qsyz46nv3c0000gp/T//ccAOOg7d.s 			page 8


 413 00a4 0221     		movs	r1, #2
 414 00a6 01A8     		add	r0, sp, #4
 415 00a8 FFF7FEFF 		bl	HAL_RCC_ClockConfig
 416 00ac 20B9     		cbnz	r0, .L37
 417 00ae 1DB0     		add	sp, sp, #116
 418              		@ sp needed
 419 00b0 5DF804FB 		ldr	pc, [sp], #4
 420              	.L36:
 421 00b4 FFF7FEFF 		bl	Error_Handler
 422              	.L37:
 423 00b8 FFF7FEFF 		bl	Error_Handler
 424              	.L39:
 425              		.align	2
 426              	.L38:
 427 00bc 00040058 		.word	1476396032
 428 00c0 00480258 		.word	1476544512
 430              		.section	.text.main,"ax",%progbits
 431              		.align	1
 432              		.global	main
 433              		.syntax unified
 434              		.thumb
 435              		.thumb_func
 437              	main:
 438              		@ Volatile: function does not return.
 439              		@ args = 0, pretend = 0, frame = 0
 440              		@ frame_needed = 0, uses_anonymous_args = 0
 441 0000 08B5     		push	{r3, lr}
 442 0002 FFF7FEFF 		bl	MPU_Config
 443 0006 FFF7FEFF 		bl	HAL_Init
 444 000a FFF7FEFF 		bl	SystemClock_Config
 445 000e FFF7FEFF 		bl	MX_GPIO_Init
 446 0012 FFF7FEFF 		bl	MX_LTDC_Init
 447 0016 0A4D     		ldr	r5, .L43
 448 0018 2846     		mov	r0, r5
 449 001a FFF7FEFF 		bl	FillStrip
 450 001e 094C     		ldr	r4, .L43+4
 451 0020 0022     		movs	r2, #0
 452 0022 2946     		mov	r1, r5
 453 0024 2046     		mov	r0, r4
 454 0026 FFF7FEFF 		bl	HAL_LTDC_SetAddress
 455 002a C821     		movs	r1, #200
 456 002c 2046     		mov	r0, r4
 457 002e FFF7FEFF 		bl	HAL_LTDC_ProgramLineEvent
 458 0032 0121     		movs	r1, #1
 459 0034 2046     		mov	r0, r4
 460 0036 FFF7FEFF 		bl	HAL_LTDC_Reload
 461              	.L41:
 462              		.syntax unified
 463              	@ 146 "Core/Src/main.c" 1
 464 003a 30BF     		wfi
 465              	@ 0 "" 2
 466              		.thumb
 467              		.syntax unified
 468 003c FDE7     		b	.L41
 469              	.L44:
 470 003e 00BF     		.align	2
 471              	.L43:
ARM GAS  /var/folders/l4/6w9kflz11csb_6qsyz46nv3c0000gp/T//ccAOOg7d.s 			page 9


 472 0040 00000000 		.word	strip_buffer1
 473 0044 00000000 		.word	hltdc
 475              		.global	active_buffer
 476              		.section	.bss.active_buffer,"aw",%nobits
 479              	active_buffer:
 480 0000 00       		.space	1
 481              		.global	need_fill
 482              		.section	.bss.need_fill,"aw",%nobits
 485              	need_fill:
 486 0000 00       		.space	1
 487              		.global	current_strip
 488              		.section	.bss.current_strip,"aw",%nobits
 489              		.align	2
 492              	current_strip:
 493 0000 00000000 		.space	4
 494              		.section	.video_buffers,"aw"
 495              		.align	5
 498              	strip_buffer1:
 499 0000 00000000 		.space	256000
 499      00000000 
 499      00000000 
 499      00000000 
 499      00000000 
 500              		.global	clut
 501              		.section	.bss.clut,"aw",%nobits
 502              		.align	2
 505              	clut:
 506 0000 00000000 		.space	1024
 506      00000000 
 506      00000000 
 506      00000000 
 506      00000000 
 507              		.global	hltdc
 508              		.section	.bss.hltdc,"aw",%nobits
 509              		.align	2
 512              	hltdc:
 513 0000 00000000 		.space	168
 513      00000000 
 513      00000000 
 513      00000000 
 513      00000000 
 514              		.ident	"GCC: (xPack GNU Arm Embedded GCC arm64) 14.2.1 20241119"
ARM GAS  /var/folders/l4/6w9kflz11csb_6qsyz46nv3c0000gp/T//ccAOOg7d.s 			page 10

