ARM GAS  /var/folders/l4/6w9kflz11csb_6qsyz46nv3c0000gp/T//ccLo7VpP.s 			page 1


   1              		.cpu cortex-m7
   2              		.arch armv7e-m
   3              		.fpu fpv5-d16
   4              		.eabi_attribute 28, 1
   5              		.eabi_attribute 20, 1
   6              		.eabi_attribute 21, 1
   7              		.eabi_attribute 23, 3
   8              		.eabi_attribute 24, 1
   9              		.eabi_attribute 25, 1
  10              		.eabi_attribute 26, 1
  11              		.eabi_attribute 30, 1
  12              		.eabi_attribute 34, 1
  13              		.eabi_attribute 18, 4
  14              		.file	"stm32h7xx_hal_msp.c"
  15              		.text
  16              		.section	.text.HAL_MspInit,"ax",%progbits
  17              		.align	1
  18              		.global	HAL_MspInit
  19              		.syntax unified
  20              		.thumb
  21              		.thumb_func
  23              	HAL_MspInit:
  24              		@ args = 0, pretend = 0, frame = 8
  25              		@ frame_needed = 0, uses_anonymous_args = 0
  26              		@ link register save eliminated.
  27 0000 82B0     		sub	sp, sp, #8
  28 0002 074B     		ldr	r3, .L3
  29 0004 D3F8F420 		ldr	r2, [r3, #244]
  30 0008 42F00202 		orr	r2, r2, #2
  31 000c C3F8F420 		str	r2, [r3, #244]
  32 0010 D3F8F430 		ldr	r3, [r3, #244]
  33 0014 03F00203 		and	r3, r3, #2
  34 0018 0193     		str	r3, [sp, #4]
  35 001a 019B     		ldr	r3, [sp, #4]
  36 001c 02B0     		add	sp, sp, #8
  37              		@ sp needed
  38 001e 7047     		bx	lr
  39              	.L4:
  40              		.align	2
  41              	.L3:
  42 0020 00440258 		.word	1476543488
  44              		.section	.text.HAL_LTDC_MspInit,"ax",%progbits
  45              		.align	1
  46              		.global	HAL_LTDC_MspInit
  47              		.syntax unified
  48              		.thumb
  49              		.thumb_func
  51              	HAL_LTDC_MspInit:
  52              		@ args = 0, pretend = 0, frame = 248
  53              		@ frame_needed = 0, uses_anonymous_args = 0
  54 0000 2DE9F043 		push	{r4, r5, r6, r7, r8, r9, lr}
  55 0004 BFB0     		sub	sp, sp, #252
  56 0006 0446     		mov	r4, r0
  57 0008 0021     		movs	r1, #0
  58 000a 3991     		str	r1, [sp, #228]
  59 000c 3A91     		str	r1, [sp, #232]
  60 000e 3B91     		str	r1, [sp, #236]
ARM GAS  /var/folders/l4/6w9kflz11csb_6qsyz46nv3c0000gp/T//ccLo7VpP.s 			page 2


  61 0010 3C91     		str	r1, [sp, #240]
  62 0012 3D91     		str	r1, [sp, #244]
  63 0014 C022     		movs	r2, #192
  64 0016 08A8     		add	r0, sp, #32
  65 0018 FFF7FEFF 		bl	memset
  66 001c 2268     		ldr	r2, [r4]
  67 001e 754B     		ldr	r3, .L11
  68 0020 9A42     		cmp	r2, r3
  69 0022 02D0     		beq	.L9
  70              	.L5:
  71 0024 3FB0     		add	sp, sp, #252
  72              		@ sp needed
  73 0026 BDE8F083 		pop	{r4, r5, r6, r7, r8, r9, pc}
  74              	.L9:
  75 002a 4FF00052 		mov	r2, #536870912
  76 002e 0023     		movs	r3, #0
  77 0030 CDE90823 		strd	r2, [sp, #32]
  78 0034 0123     		movs	r3, #1
  79 0036 1293     		str	r3, [sp, #72]
  80 0038 0423     		movs	r3, #4
  81 003a 1393     		str	r3, [sp, #76]
  82 003c 0223     		movs	r3, #2
  83 003e 1493     		str	r3, [sp, #80]
  84 0040 1593     		str	r3, [sp, #84]
  85 0042 5023     		movs	r3, #80
  86 0044 1693     		str	r3, [sp, #88]
  87 0046 4FF44063 		mov	r3, #3072
  88 004a 1793     		str	r3, [sp, #92]
  89 004c 4FF49053 		mov	r3, #4608
  90 0050 1993     		str	r3, [sp, #100]
  91 0052 08A8     		add	r0, sp, #32
  92 0054 FFF7FEFF 		bl	HAL_RCCEx_PeriphCLKConfig
  93 0058 0028     		cmp	r0, #0
  94 005a 40F0C880 		bne	.L10
  95              	.L7:
  96 005e 664B     		ldr	r3, .L11+4
  97 0060 D3F8E420 		ldr	r2, [r3, #228]
  98 0064 42F00802 		orr	r2, r2, #8
  99 0068 C3F8E420 		str	r2, [r3, #228]
 100 006c D3F8E420 		ldr	r2, [r3, #228]
 101 0070 02F00802 		and	r2, r2, #8
 102 0074 0092     		str	r2, [sp]
 103 0076 009A     		ldr	r2, [sp]
 104 0078 D3F8E020 		ldr	r2, [r3, #224]
 105 007c 42F01002 		orr	r2, r2, #16
 106 0080 C3F8E020 		str	r2, [r3, #224]
 107 0084 D3F8E020 		ldr	r2, [r3, #224]
 108 0088 02F01002 		and	r2, r2, #16
 109 008c 0192     		str	r2, [sp, #4]
 110 008e 019A     		ldr	r2, [sp, #4]
 111 0090 D3F8E020 		ldr	r2, [r3, #224]
 112 0094 42F02002 		orr	r2, r2, #32
 113 0098 C3F8E020 		str	r2, [r3, #224]
 114 009c D3F8E020 		ldr	r2, [r3, #224]
 115 00a0 02F02002 		and	r2, r2, #32
 116 00a4 0292     		str	r2, [sp, #8]
 117 00a6 029A     		ldr	r2, [sp, #8]
ARM GAS  /var/folders/l4/6w9kflz11csb_6qsyz46nv3c0000gp/T//ccLo7VpP.s 			page 3


 118 00a8 D3F8E020 		ldr	r2, [r3, #224]
 119 00ac 42F00402 		orr	r2, r2, #4
 120 00b0 C3F8E020 		str	r2, [r3, #224]
 121 00b4 D3F8E020 		ldr	r2, [r3, #224]
 122 00b8 02F00402 		and	r2, r2, #4
 123 00bc 0392     		str	r2, [sp, #12]
 124 00be 039A     		ldr	r2, [sp, #12]
 125 00c0 D3F8E020 		ldr	r2, [r3, #224]
 126 00c4 42F00102 		orr	r2, r2, #1
 127 00c8 C3F8E020 		str	r2, [r3, #224]
 128 00cc D3F8E020 		ldr	r2, [r3, #224]
 129 00d0 02F00102 		and	r2, r2, #1
 130 00d4 0492     		str	r2, [sp, #16]
 131 00d6 049A     		ldr	r2, [sp, #16]
 132 00d8 D3F8E020 		ldr	r2, [r3, #224]
 133 00dc 42F00202 		orr	r2, r2, #2
 134 00e0 C3F8E020 		str	r2, [r3, #224]
 135 00e4 D3F8E020 		ldr	r2, [r3, #224]
 136 00e8 02F00202 		and	r2, r2, #2
 137 00ec 0592     		str	r2, [sp, #20]
 138 00ee 059A     		ldr	r2, [sp, #20]
 139 00f0 D3F8E020 		ldr	r2, [r3, #224]
 140 00f4 42F00802 		orr	r2, r2, #8
 141 00f8 C3F8E020 		str	r2, [r3, #224]
 142 00fc D3F8E020 		ldr	r2, [r3, #224]
 143 0100 02F00802 		and	r2, r2, #8
 144 0104 0692     		str	r2, [sp, #24]
 145 0106 069A     		ldr	r2, [sp, #24]
 146 0108 D3F8E020 		ldr	r2, [r3, #224]
 147 010c 42F04002 		orr	r2, r2, #64
 148 0110 C3F8E020 		str	r2, [r3, #224]
 149 0114 D3F8E030 		ldr	r3, [r3, #224]
 150 0118 03F04003 		and	r3, r3, #64
 151 011c 0793     		str	r3, [sp, #28]
 152 011e 079B     		ldr	r3, [sp, #28]
 153 0120 4DF67003 		movw	r3, #55408
 154 0124 3993     		str	r3, [sp, #228]
 155 0126 0226     		movs	r6, #2
 156 0128 3A96     		str	r6, [sp, #232]
 157 012a 0024     		movs	r4, #0
 158 012c 3B94     		str	r4, [sp, #236]
 159 012e 3C94     		str	r4, [sp, #240]
 160 0130 0E27     		movs	r7, #14
 161 0132 3D97     		str	r7, [sp, #244]
 162 0134 39AD     		add	r5, sp, #228
 163 0136 2946     		mov	r1, r5
 164 0138 3048     		ldr	r0, .L11+8
 165 013a FFF7FEFF 		bl	HAL_GPIO_Init
 166 013e 4FF48068 		mov	r8, #1024
 167 0142 CDF8E480 		str	r8, [sp, #228]
 168 0146 3A96     		str	r6, [sp, #232]
 169 0148 3B94     		str	r4, [sp, #236]
 170 014a 3C94     		str	r4, [sp, #240]
 171 014c 3D97     		str	r7, [sp, #244]
 172 014e 2946     		mov	r1, r5
 173 0150 2B48     		ldr	r0, .L11+12
 174 0152 FFF7FEFF 		bl	HAL_GPIO_Init
ARM GAS  /var/folders/l4/6w9kflz11csb_6qsyz46nv3c0000gp/T//ccLo7VpP.s 			page 4


 175 0156 40F2C123 		movw	r3, #705
 176 015a 3993     		str	r3, [sp, #228]
 177 015c 3A96     		str	r6, [sp, #232]
 178 015e 3B94     		str	r4, [sp, #236]
 179 0160 3C94     		str	r4, [sp, #240]
 180 0162 3D97     		str	r7, [sp, #244]
 181 0164 2946     		mov	r1, r5
 182 0166 2748     		ldr	r0, .L11+16
 183 0168 FFF7FEFF 		bl	HAL_GPIO_Init
 184 016c 40F27E43 		movw	r3, #1150
 185 0170 3993     		str	r3, [sp, #228]
 186 0172 3A96     		str	r6, [sp, #232]
 187 0174 3B94     		str	r4, [sp, #236]
 188 0176 3C94     		str	r4, [sp, #240]
 189 0178 3D97     		str	r7, [sp, #244]
 190 017a 2946     		mov	r1, r5
 191 017c 2248     		ldr	r0, .L11+20
 192 017e FFF7FEFF 		bl	HAL_GPIO_Init
 193 0182 0323     		movs	r3, #3
 194 0184 3993     		str	r3, [sp, #228]
 195 0186 3A96     		str	r6, [sp, #232]
 196 0188 3B94     		str	r4, [sp, #236]
 197 018a 3C94     		str	r4, [sp, #240]
 198 018c 0923     		movs	r3, #9
 199 018e 3D93     		str	r3, [sp, #244]
 200 0190 DFF88090 		ldr	r9, .L11+32
 201 0194 2946     		mov	r1, r5
 202 0196 4846     		mov	r0, r9
 203 0198 FFF7FEFF 		bl	HAL_GPIO_Init
 204 019c 4FF47063 		mov	r3, #3840
 205 01a0 3993     		str	r3, [sp, #228]
 206 01a2 3A96     		str	r6, [sp, #232]
 207 01a4 3B94     		str	r4, [sp, #236]
 208 01a6 3C94     		str	r4, [sp, #240]
 209 01a8 3D97     		str	r7, [sp, #244]
 210 01aa 2946     		mov	r1, r5
 211 01ac 4846     		mov	r0, r9
 212 01ae FFF7FEFF 		bl	HAL_GPIO_Init
 213 01b2 CDF8E480 		str	r8, [sp, #228]
 214 01b6 3A96     		str	r6, [sp, #232]
 215 01b8 3B94     		str	r4, [sp, #236]
 216 01ba 3C94     		str	r4, [sp, #240]
 217 01bc 3D97     		str	r7, [sp, #244]
 218 01be 2946     		mov	r1, r5
 219 01c0 1248     		ldr	r0, .L11+24
 220 01c2 FFF7FEFF 		bl	HAL_GPIO_Init
 221 01c6 4FF40453 		mov	r3, #8448
 222 01ca 3993     		str	r3, [sp, #228]
 223 01cc 3A96     		str	r6, [sp, #232]
 224 01ce 3B94     		str	r4, [sp, #236]
 225 01d0 3C94     		str	r4, [sp, #240]
 226 01d2 3D97     		str	r7, [sp, #244]
 227 01d4 2946     		mov	r1, r5
 228 01d6 0E48     		ldr	r0, .L11+28
 229 01d8 FFF7FEFF 		bl	HAL_GPIO_Init
 230 01dc 2246     		mov	r2, r4
 231 01de 2146     		mov	r1, r4
ARM GAS  /var/folders/l4/6w9kflz11csb_6qsyz46nv3c0000gp/T//ccLo7VpP.s 			page 5


 232 01e0 5820     		movs	r0, #88
 233 01e2 FFF7FEFF 		bl	HAL_NVIC_SetPriority
 234 01e6 5820     		movs	r0, #88
 235 01e8 FFF7FEFF 		bl	HAL_NVIC_EnableIRQ
 236 01ec 1AE7     		b	.L5
 237              	.L10:
 238 01ee FFF7FEFF 		bl	Error_Handler
 239 01f2 34E7     		b	.L7
 240              	.L12:
 241              		.align	2
 242              	.L11:
 243 01f4 00100050 		.word	1342181376
 244 01f8 00440258 		.word	1476543488
 245 01fc 00100258 		.word	1476530176
 246 0200 00140258 		.word	1476531200
 247 0204 00080258 		.word	1476528128
 248 0208 00000258 		.word	1476526080
 249 020c 000C0258 		.word	1476529152
 250 0210 00180258 		.word	1476532224
 251 0214 00040258 		.word	1476527104
 253              		.section	.text.HAL_LTDC_MspDeInit,"ax",%progbits
 254              		.align	1
 255              		.global	HAL_LTDC_MspDeInit
 256              		.syntax unified
 257              		.thumb
 258              		.thumb_func
 260              	HAL_LTDC_MspDeInit:
 261              		@ args = 0, pretend = 0, frame = 0
 262              		@ frame_needed = 0, uses_anonymous_args = 0
 263 0000 08B5     		push	{r3, lr}
 264 0002 0268     		ldr	r2, [r0]
 265 0004 184B     		ldr	r3, .L17
 266 0006 9A42     		cmp	r2, r3
 267 0008 00D0     		beq	.L16
 268              	.L13:
 269 000a 08BD     		pop	{r3, pc}
 270              	.L16:
 271 000c 174A     		ldr	r2, .L17+4
 272 000e D2F8E430 		ldr	r3, [r2, #228]
 273 0012 23F00803 		bic	r3, r3, #8
 274 0016 C2F8E430 		str	r3, [r2, #228]
 275 001a 4DF67001 		movw	r1, #55408
 276 001e 1448     		ldr	r0, .L17+8
 277 0020 FFF7FEFF 		bl	HAL_GPIO_DeInit
 278 0024 4FF48061 		mov	r1, #1024
 279 0028 1248     		ldr	r0, .L17+12
 280 002a FFF7FEFF 		bl	HAL_GPIO_DeInit
 281 002e 40F2C121 		movw	r1, #705
 282 0032 1148     		ldr	r0, .L17+16
 283 0034 FFF7FEFF 		bl	HAL_GPIO_DeInit
 284 0038 40F27E41 		movw	r1, #1150
 285 003c 0F48     		ldr	r0, .L17+20
 286 003e FFF7FEFF 		bl	HAL_GPIO_DeInit
 287 0042 40F60371 		movw	r1, #3843
 288 0046 0E48     		ldr	r0, .L17+24
 289 0048 FFF7FEFF 		bl	HAL_GPIO_DeInit
 290 004c 4FF48061 		mov	r1, #1024
ARM GAS  /var/folders/l4/6w9kflz11csb_6qsyz46nv3c0000gp/T//ccLo7VpP.s 			page 6


 291 0050 0C48     		ldr	r0, .L17+28
 292 0052 FFF7FEFF 		bl	HAL_GPIO_DeInit
 293 0056 4FF40451 		mov	r1, #8448
 294 005a 0B48     		ldr	r0, .L17+32
 295 005c FFF7FEFF 		bl	HAL_GPIO_DeInit
 296 0060 5820     		movs	r0, #88
 297 0062 FFF7FEFF 		bl	HAL_NVIC_DisableIRQ
 298 0066 D0E7     		b	.L13
 299              	.L18:
 300              		.align	2
 301              	.L17:
 302 0068 00100050 		.word	1342181376
 303 006c 00440258 		.word	1476543488
 304 0070 00100258 		.word	1476530176
 305 0074 00140258 		.word	1476531200
 306 0078 00080258 		.word	1476528128
 307 007c 00000258 		.word	1476526080
 308 0080 00040258 		.word	1476527104
 309 0084 000C0258 		.word	1476529152
 310 0088 00180258 		.word	1476532224
 312              		.ident	"GCC: (xPack GNU Arm Embedded GCC arm64) 14.2.1 20241119"
ARM GAS  /var/folders/l4/6w9kflz11csb_6qsyz46nv3c0000gp/T//ccLo7VpP.s 			page 7

